ARM GAS  C:\Users\Xavier\AppData\Local\Temp\cc2gyztd.s 			page 1


   1              		.syntax unified
   2              		.cpu cortex-m0
   3              		.fpu softvfp
   4              		.eabi_attribute 20, 1
   5              		.eabi_attribute 21, 1
   6              		.eabi_attribute 23, 3
   7              		.eabi_attribute 24, 1
   8              		.eabi_attribute 25, 1
   9              		.eabi_attribute 26, 1
  10              		.eabi_attribute 30, 6
  11              		.eabi_attribute 34, 0
  12              		.eabi_attribute 18, 4
  13              		.thumb
  14              		.syntax unified
  15              		.file	"bas.c"
  16              		.text
  17              	.Ltext0:
  18              		.cfi_sections	.debug_frame
  19              		.global	batterySimulationNotify
  20              		.bss
  21              		.align	1
  22              		.type	batterySimulationNotify, %object
  23              		.size	batterySimulationNotify, 2
  24              	batterySimulationNotify:
  25 0000 0000     		.space	2
  26              		.section	.text.BasCallBack,"ax",%progbits
  27              		.align	2
  28              		.global	BasCallBack
  29              		.code	16
  30              		.thumb_func
  31              		.type	BasCallBack, %function
  32              	BasCallBack:
  33              	.LFB36:
  34              		.file 1 "bas.c"
   1:bas.c         **** /*******************************************************************************
   2:bas.c         **** * File Name: bas.c
   3:bas.c         **** *
   4:bas.c         **** * Version: 1.0
   5:bas.c         **** *
   6:bas.c         **** * Description:
   7:bas.c         **** *  This file contains BAS callback handler function.
   8:bas.c         **** *
   9:bas.c         **** * Hardware Dependency:
  10:bas.c         **** *  CY8CKIT-042 BLE
  11:bas.c         **** * 
  12:bas.c         **** ********************************************************************************
  13:bas.c         **** * Copyright 2016, Cypress Semiconductor Corporation.  All rights reserved.
  14:bas.c         **** * You may use this file only in accordance with the license, terms, conditions,
  15:bas.c         **** * disclaimers, and limitations in the end user license agreement accompanying
  16:bas.c         **** * the software package with which this file was provided.
  17:bas.c         **** *******************************************************************************/
  18:bas.c         **** 
  19:bas.c         **** #include "common.h"
  20:bas.c         **** #include "bas.h"
  21:bas.c         **** 
  22:bas.c         **** #if (BAS_SIMULATE_ENABLE != 0)
  23:bas.c         **** uint16 batterySimulationNotify = 0u;
ARM GAS  C:\Users\Xavier\AppData\Local\Temp\cc2gyztd.s 			page 2


  24:bas.c         **** #endif /* (BAS_SIMULATE_ENABLE != 0) */
  25:bas.c         **** 
  26:bas.c         **** #if (BAS_MEASURE_ENABLE != 0)
  27:bas.c         **** uint16 batteryMeasureNotify = 0u;
  28:bas.c         **** #endif /* (BAS_MEASURE_ENABLE != 0) */
  29:bas.c         **** 
  30:bas.c         **** 
  31:bas.c         **** /*******************************************************************************
  32:bas.c         **** * Function Name: BasCallBack()
  33:bas.c         **** ********************************************************************************
  34:bas.c         **** *
  35:bas.c         **** * Summary:
  36:bas.c         **** *   This is an event callback function to receive service specific events from 
  37:bas.c         **** *   Battery Service.
  38:bas.c         **** *
  39:bas.c         **** * Parameters:
  40:bas.c         **** *  event - the event code
  41:bas.c         **** *  *eventParam - the event parameters
  42:bas.c         **** *
  43:bas.c         **** * Return:
  44:bas.c         **** *  None.
  45:bas.c         **** *
  46:bas.c         **** *******************************************************************************/
  47:bas.c         **** void BasCallBack(uint32 event, void *eventParam)
  48:bas.c         **** {
  35              		.loc 1 48 0
  36              		.cfi_startproc
  37              		@ args = 0, pretend = 0, frame = 16
  38              		@ frame_needed = 1, uses_anonymous_args = 0
  39 0000 80B5     		push	{r7, lr}
  40              		.cfi_def_cfa_offset 8
  41              		.cfi_offset 7, -8
  42              		.cfi_offset 14, -4
  43 0002 84B0     		sub	sp, sp, #16
  44              		.cfi_def_cfa_offset 24
  45 0004 00AF     		add	r7, sp, #0
  46              		.cfi_def_cfa_register 7
  47 0006 7860     		str	r0, [r7, #4]
  48 0008 3960     		str	r1, [r7]
  49:bas.c         ****     uint8 locServiceIndex;
  50:bas.c         ****     
  51:bas.c         ****     locServiceIndex = ((CYBLE_BAS_CHAR_VALUE_T *)eventParam)->serviceIndex;
  49              		.loc 1 51 0
  50 000a 0F23     		movs	r3, #15
  51 000c FB18     		adds	r3, r7, r3
  52 000e 3A68     		ldr	r2, [r7]
  53 0010 9278     		ldrb	r2, [r2, #2]
  54 0012 1A70     		strb	r2, [r3]
  52:bas.c         ****     DBG_PRINTF("BAS event: %lx, ", event);
  53:bas.c         ****     
  54:bas.c         ****     switch(event)
  55              		.loc 1 54 0
  56 0014 7B68     		ldr	r3, [r7, #4]
  57 0016 313B     		subs	r3, r3, #49
  58 0018 FF3B     		subs	r3, r3, #255
  59 001a 052B     		cmp	r3, #5
  60 001c 16D8     		bhi	.L13
ARM GAS  C:\Users\Xavier\AppData\Local\Temp\cc2gyztd.s 			page 3


  61 001e 9A00     		lsls	r2, r3, #2
  62 0020 104B     		ldr	r3, .L17
  63 0022 D318     		adds	r3, r2, r3
  64 0024 1B68     		ldr	r3, [r3]
  65 0026 9F46     		mov	pc, r3
  66              		.section	.rodata
  67              		.align	2
  68              	.L4:
  69 0000 28000000 		.word	.L3
  70 0004 3A000000 		.word	.L5
  71 0008 50000000 		.word	.L14
  72 000c 50000000 		.word	.L14
  73 0010 50000000 		.word	.L14
  74 0014 50000000 		.word	.L14
  75              		.section	.text.BasCallBack
  76              	.L3:
  55:bas.c         ****     {
  56:bas.c         ****         case CYBLE_EVT_BASS_NOTIFICATION_ENABLED:
  57:bas.c         ****             DBG_PRINTF("CYBLE_EVT_BASS_NOTIFICATION_ENABLED: %x \r\n", locServiceIndex);
  58:bas.c         ****         #if (BAS_SIMULATE_ENABLE != 0)
  59:bas.c         ****             if(BAS_SERVICE_SIMULATE == locServiceIndex)
  77              		.loc 1 59 0
  78 0028 0F23     		movs	r3, #15
  79 002a FB18     		adds	r3, r7, r3
  80 002c 1B78     		ldrb	r3, [r3]
  81 002e 002B     		cmp	r3, #0
  82 0030 10D1     		bne	.L15
  60:bas.c         ****             {
  61:bas.c         ****                 batterySimulationNotify = ENABLED;
  83              		.loc 1 61 0
  84 0032 0D4B     		ldr	r3, .L17+4
  85 0034 0122     		movs	r2, #1
  86 0036 1A80     		strh	r2, [r3]
  62:bas.c         ****             }
  63:bas.c         ****         #endif /*  (BAS_SIMULATE_ENABLE != 0) */        
  64:bas.c         ****         #if (BAS_MEASURE_ENABLE != 0)
  65:bas.c         ****             if(BAS_SERVICE_MEASURE == locServiceIndex)
  66:bas.c         ****             {
  67:bas.c         ****                 batteryMeasureNotify = ENABLED;
  68:bas.c         ****             }
  69:bas.c         ****         #endif /*  (BAS_MEASURE_ENABLE != 0) */     
  70:bas.c         ****             break;
  87              		.loc 1 70 0
  88 0038 0CE0     		b	.L15
  89              	.L5:
  71:bas.c         ****         case CYBLE_EVT_BASS_NOTIFICATION_DISABLED:
  72:bas.c         ****             DBG_PRINTF("CYBLE_EVT_BASS_NOTIFICATION_DISABLED: %x \r\n", locServiceIndex);
  73:bas.c         ****         #if (BAS_SIMULATE_ENABLE != 0)
  74:bas.c         ****             if(BAS_SERVICE_SIMULATE == locServiceIndex)
  90              		.loc 1 74 0
  91 003a 0F23     		movs	r3, #15
  92 003c FB18     		adds	r3, r7, r3
  93 003e 1B78     		ldrb	r3, [r3]
  94 0040 002B     		cmp	r3, #0
  95 0042 09D1     		bne	.L16
  75:bas.c         ****             {
  76:bas.c         ****                 batterySimulationNotify = DISABLED;
ARM GAS  C:\Users\Xavier\AppData\Local\Temp\cc2gyztd.s 			page 4


  96              		.loc 1 76 0
  97 0044 084B     		ldr	r3, .L17+4
  98 0046 0022     		movs	r2, #0
  99 0048 1A80     		strh	r2, [r3]
  77:bas.c         ****             }
  78:bas.c         ****         #endif /*  (BAS_SIMULATE_ENABLE != 0) */        
  79:bas.c         ****         #if (BAS_MEASURE_ENABLE != 0)
  80:bas.c         ****             if(BAS_SERVICE_MEASURE == locServiceIndex)
  81:bas.c         ****             {
  82:bas.c         ****                 batteryMeasureNotify = DISABLED;
  83:bas.c         ****             }
  84:bas.c         ****         #endif /*  (BAS_MEASURE_ENABLE != 0) */     
  85:bas.c         ****             break;
 100              		.loc 1 85 0
 101 004a 05E0     		b	.L16
 102              	.L13:
  86:bas.c         ****         case CYBLE_EVT_BASC_NOTIFICATION:
  87:bas.c         ****             break;
  88:bas.c         ****         case CYBLE_EVT_BASC_READ_CHAR_RESPONSE:
  89:bas.c         ****             break;
  90:bas.c         ****         case CYBLE_EVT_BASC_READ_DESCR_RESPONSE:
  91:bas.c         ****             break;
  92:bas.c         ****         case CYBLE_EVT_BASC_WRITE_DESCR_RESPONSE:
  93:bas.c         ****             break;
  94:bas.c         **** 		default:
  95:bas.c         ****             DBG_PRINTF("Not supported event\r\n");
  96:bas.c         **** 			break;
 103              		.loc 1 96 0
 104 004c C046     		nop
 105 004e 04E0     		b	.L11
 106              	.L14:
  93:bas.c         **** 		default:
 107              		.loc 1 93 0
 108 0050 C046     		nop
 109 0052 02E0     		b	.L11
 110              	.L15:
  70:bas.c         ****         case CYBLE_EVT_BASS_NOTIFICATION_DISABLED:
 111              		.loc 1 70 0
 112 0054 C046     		nop
 113 0056 00E0     		b	.L11
 114              	.L16:
  85:bas.c         ****         case CYBLE_EVT_BASC_NOTIFICATION:
 115              		.loc 1 85 0
 116 0058 C046     		nop
 117              	.L11:
  97:bas.c         ****     }
  98:bas.c         **** }
 118              		.loc 1 98 0
 119 005a C046     		nop
 120 005c BD46     		mov	sp, r7
 121 005e 04B0     		add	sp, sp, #16
 122              		@ sp needed
 123 0060 80BD     		pop	{r7, pc}
 124              	.L18:
 125 0062 C046     		.align	2
 126              	.L17:
 127 0064 00000000 		.word	.L4
ARM GAS  C:\Users\Xavier\AppData\Local\Temp\cc2gyztd.s 			page 5


 128 0068 00000000 		.word	batterySimulationNotify
 129              		.cfi_endproc
 130              	.LFE36:
 131              		.size	BasCallBack, .-BasCallBack
 132              		.section	.text.BasInit,"ax",%progbits
 133              		.align	2
 134              		.global	BasInit
 135              		.code	16
 136              		.thumb_func
 137              		.type	BasInit, %function
 138              	BasInit:
 139              	.LFB37:
  99:bas.c         **** 
 100:bas.c         **** 
 101:bas.c         **** /*******************************************************************************
 102:bas.c         **** * Function Name: BasInit()
 103:bas.c         **** ********************************************************************************
 104:bas.c         **** *
 105:bas.c         **** * Summary:
 106:bas.c         **** *   Initializes the battery service.
 107:bas.c         **** *
 108:bas.c         **** *******************************************************************************/
 109:bas.c         **** void BasInit(void)
 110:bas.c         **** {
 140              		.loc 1 110 0
 141              		.cfi_startproc
 142              		@ args = 0, pretend = 0, frame = 8
 143              		@ frame_needed = 1, uses_anonymous_args = 0
 144 0000 90B5     		push	{r4, r7, lr}
 145              		.cfi_def_cfa_offset 12
 146              		.cfi_offset 4, -12
 147              		.cfi_offset 7, -8
 148              		.cfi_offset 14, -4
 149 0002 85B0     		sub	sp, sp, #20
 150              		.cfi_def_cfa_offset 32
 151 0004 02AF     		add	r7, sp, #8
 152              		.cfi_def_cfa 7, 24
 111:bas.c         ****     CYBLE_API_RESULT_T apiResult;
 112:bas.c         ****     uint16 cccdValue;
 113:bas.c         ****     
 114:bas.c         ****     /* Register service specific callback function */
 115:bas.c         ****     CyBle_BasRegisterAttrCallback(BasCallBack);
 153              		.loc 1 115 0
 154 0006 114B     		ldr	r3, .L22
 155 0008 1800     		movs	r0, r3
 156 000a FFF7FEFF 		bl	CyBle_BasRegisterAttrCallback
 116:bas.c         **** 
 117:bas.c         ****     /* Read CCCD configurations from flash */
 118:bas.c         **** #if (BAS_SIMULATE_ENABLE != 0)
 119:bas.c         ****     apiResult = CyBle_BassGetCharacteristicDescriptor(BAS_SERVICE_SIMULATE, CYBLE_BAS_BATTERY_LEVEL
 157              		.loc 1 119 0
 158 000e BC1D     		adds	r4, r7, #6
 159 0010 3B1D     		adds	r3, r7, #4
 160 0012 0093     		str	r3, [sp]
 161 0014 0223     		movs	r3, #2
 162 0016 0022     		movs	r2, #0
 163 0018 0021     		movs	r1, #0
ARM GAS  C:\Users\Xavier\AppData\Local\Temp\cc2gyztd.s 			page 6


 164 001a 0020     		movs	r0, #0
 165 001c FFF7FEFF 		bl	CyBle_BassGetCharacteristicDescriptor
 166 0020 0300     		movs	r3, r0
 167 0022 2380     		strh	r3, [r4]
 120:bas.c         ****         CYBLE_BAS_BATTERY_LEVEL_CCCD, CYBLE_CCCD_LEN, (uint8 *)&cccdValue);
 121:bas.c         ****     if((apiResult == CYBLE_ERROR_OK) && (cccdValue != 0u))
 168              		.loc 1 121 0
 169 0024 BB1D     		adds	r3, r7, #6
 170 0026 1B88     		ldrh	r3, [r3]
 171 0028 002B     		cmp	r3, #0
 172 002a 0AD1     		bne	.L21
 173              		.loc 1 121 0 is_stmt 0 discriminator 1
 174 002c 3B1D     		adds	r3, r7, #4
 175 002e 1B88     		ldrh	r3, [r3]
 176 0030 002B     		cmp	r3, #0
 177 0032 06D0     		beq	.L21
 122:bas.c         ****     {
 123:bas.c         ****         batterySimulationNotify |= ENABLED;
 178              		.loc 1 123 0 is_stmt 1
 179 0034 064B     		ldr	r3, .L22+4
 180 0036 1B88     		ldrh	r3, [r3]
 181 0038 0122     		movs	r2, #1
 182 003a 1343     		orrs	r3, r2
 183 003c 9AB2     		uxth	r2, r3
 184 003e 044B     		ldr	r3, .L22+4
 185 0040 1A80     		strh	r2, [r3]
 186              	.L21:
 124:bas.c         ****     }
 125:bas.c         **** #endif /* (BAS_SIMULATE_ENABLE != 0) */
 126:bas.c         **** #if (BAS_MEASURE_ENABLE != 0)
 127:bas.c         ****     apiResult = CyBle_BassGetCharacteristicDescriptor(BAS_SERVICE_MEASURE, CYBLE_BAS_BATTERY_LEVEL,
 128:bas.c         ****         CYBLE_BAS_BATTERY_LEVEL_CCCD, CYBLE_CCCD_LEN, (uint8 *)&cccdValue);
 129:bas.c         ****     if((apiResult == CYBLE_ERROR_OK) && (cccdValue != 0u))
 130:bas.c         ****     {
 131:bas.c         ****         batteryMeasureNotify |= ENABLED;
 132:bas.c         ****     }
 133:bas.c         **** #endif /* (BAS_MEASURE_ENABLE != 0) */
 134:bas.c         **** }
 187              		.loc 1 134 0
 188 0042 C046     		nop
 189 0044 BD46     		mov	sp, r7
 190 0046 03B0     		add	sp, sp, #12
 191              		@ sp needed
 192 0048 90BD     		pop	{r4, r7, pc}
 193              	.L23:
 194 004a C046     		.align	2
 195              	.L22:
 196 004c 00000000 		.word	BasCallBack
 197 0050 00000000 		.word	batterySimulationNotify
 198              		.cfi_endproc
 199              	.LFE37:
 200              		.size	BasInit, .-BasInit
 201              		.section	.text.SimulateBattery,"ax",%progbits
 202              		.align	2
 203              		.global	SimulateBattery
 204              		.code	16
 205              		.thumb_func
ARM GAS  C:\Users\Xavier\AppData\Local\Temp\cc2gyztd.s 			page 7


 206              		.type	SimulateBattery, %function
 207              	SimulateBattery:
 208              	.LFB38:
 135:bas.c         **** 
 136:bas.c         **** 
 137:bas.c         **** #if (BAS_MEASURE_ENABLE != 0)
 138:bas.c         ****     
 139:bas.c         **** 
 140:bas.c         **** /*******************************************************************************
 141:bas.c         **** * Function Name: MeasureBattery()
 142:bas.c         **** ********************************************************************************
 143:bas.c         **** *
 144:bas.c         **** * Summary:
 145:bas.c         **** *   This function measures the battery voltage and sends it to the client.
 146:bas.c         **** *
 147:bas.c         **** *******************************************************************************/
 148:bas.c         **** void MeasureBattery(void)
 149:bas.c         **** {
 150:bas.c         **** 	int16 adcResult;
 151:bas.c         ****     int32 mvolts;
 152:bas.c         **** 	uint32 sarControlReg;
 153:bas.c         ****     uint8 batteryLevel;
 154:bas.c         ****     CYBLE_API_RESULT_T apiResult;
 155:bas.c         ****     
 156:bas.c         ****     static uint32 batteryTimer = BATTERY_TIMEOUT;
 157:bas.c         ****     
 158:bas.c         ****     if(--batteryTimer == 0u) 
 159:bas.c         ****     {
 160:bas.c         ****         batteryTimer = BATTERY_TIMEOUT;
 161:bas.c         ****         
 162:bas.c         ****     	/* Set the reference to VBG and enable reference bypass */
 163:bas.c         ****     	sarControlReg = ADC_SAR_CTRL_REG & ~ADC_VREF_MASK;
 164:bas.c         ****     	ADC_SAR_CTRL_REG = sarControlReg | ADC_VREF_INTERNAL1024BYPASSED;
 165:bas.c         ****     	
 166:bas.c         ****     	/* 25 ms delay for reference capacitor to charge */
 167:bas.c         ****     	CyDelay(25);             
 168:bas.c         ****     	
 169:bas.c         ****     	/* Set the reference to VDD and disable reference bypass */
 170:bas.c         ****     	sarControlReg = ADC_SAR_CTRL_REG & ~ADC_VREF_MASK;
 171:bas.c         ****     	ADC_SAR_CTRL_REG = sarControlReg | ADC_VREF_VDDA;
 172:bas.c         **** 
 173:bas.c         ****     	/* Perform a measurement. Store this value in Vref. */
 174:bas.c         ****     	CyDelay(1);
 175:bas.c         ****     	ADC_StartConvert();
 176:bas.c         ****     	ADC_IsEndConversion(ADC_WAIT_FOR_RESULT);
 177:bas.c         **** 
 178:bas.c         ****         adcResult = ADC_GetResult16(ADC_BATTERY_CHANNEL);
 179:bas.c         ****     	/* Calculate input voltage by using ratio of ADC counts from reference
 180:bas.c         ****     	*  and ADC Full Scale counts. 
 181:bas.c         ****         */
 182:bas.c         ****     	mvolts = (1024 * 2048) / adcResult;
 183:bas.c         ****         
 184:bas.c         ****         /* Convert battery level voltage to percentage using linear approximation
 185:bas.c         ****         *  divided to two sections according to typical performance of 
 186:bas.c         ****         *  CR2033 battery specification:
 187:bas.c         ****         *  3V - 100%
 188:bas.c         ****         *  2.8V - 29%
ARM GAS  C:\Users\Xavier\AppData\Local\Temp\cc2gyztd.s 			page 8


 189:bas.c         ****         *  2.0V - 0%
 190:bas.c         ****         */
 191:bas.c         ****         if(mvolts < MEASURE_BATTERY_MIN)
 192:bas.c         ****         {
 193:bas.c         ****             batteryLevel = 0;
 194:bas.c         ****         }
 195:bas.c         ****         else if(mvolts < MEASURE_BATTERY_MID)
 196:bas.c         ****         {
 197:bas.c         ****             batteryLevel = (mvolts - MEASURE_BATTERY_MIN) * MEASURE_BATTERY_MID_PERCENT / 
 198:bas.c         ****                            (MEASURE_BATTERY_MID - MEASURE_BATTERY_MIN); 
 199:bas.c         ****         }
 200:bas.c         ****         else if(mvolts < MEASURE_BATTERY_MAX)
 201:bas.c         ****         {
 202:bas.c         ****             batteryLevel = MEASURE_BATTERY_MID_PERCENT +
 203:bas.c         ****                            (mvolts - MEASURE_BATTERY_MID) * (100 - MEASURE_BATTERY_MID_PERCENT) / 
 204:bas.c         ****                            (MEASURE_BATTERY_MAX - MEASURE_BATTERY_MID); 
 205:bas.c         ****         }
 206:bas.c         ****         else
 207:bas.c         ****         {
 208:bas.c         ****             batteryLevel = CYBLE_BAS_MAX_BATTERY_LEVEL_VALUE;
 209:bas.c         ****         }
 210:bas.c         ****     #if (BAS_MEASURE_LP_LED != 0u)
 211:bas.c         ****         if(batteryLevel < LOW_BATTERY_LIMIT)
 212:bas.c         ****         {
 213:bas.c         ****             LowPower_LED_Write(LED_ON);
 214:bas.c         ****         }
 215:bas.c         ****         else
 216:bas.c         ****         {
 217:bas.c         ****             LowPower_LED_Write(LED_OFF);
 218:bas.c         ****         }
 219:bas.c         ****     #endif /* (BAS_MEASURE_LP_LED != 0u) */
 220:bas.c         ****     
 221:bas.c         ****         if(batteryMeasureNotify == ENABLED)
 222:bas.c         ****         {
 223:bas.c         ****             /* Update Battery Level characteristic value and send Notification */
 224:bas.c         ****             apiResult = CyBle_BassSendNotification(cyBle_connHandle, BAS_SERVICE_MEASURE, CYBLE_BAS
 225:bas.c         ****                 sizeof(batteryLevel), &batteryLevel);
 226:bas.c         ****         }
 227:bas.c         ****         else
 228:bas.c         ****         {
 229:bas.c         ****             /* Update Battery Level characteristic value */
 230:bas.c         ****             apiResult = CyBle_BassSetCharacteristicValue(BAS_SERVICE_MEASURE, 
 231:bas.c         ****                 CYBLE_BAS_BATTERY_LEVEL, sizeof(batteryLevel), &batteryLevel);
 232:bas.c         ****         }
 233:bas.c         ****             
 234:bas.c         ****         if(apiResult != CYBLE_ERROR_OK)
 235:bas.c         ****         {
 236:bas.c         ****             DBG_PRINTF("API Error: %x \r\n", apiResult);
 237:bas.c         ****             batteryMeasureNotify = DISABLED;
 238:bas.c         ****         }
 239:bas.c         ****         else
 240:bas.c         ****         {
 241:bas.c         ****             DBG_PRINTF("MeasureBatteryLevelUpdate: %d \r\n",batteryLevel);
 242:bas.c         ****         }
 243:bas.c         ****     }
 244:bas.c         **** }
 245:bas.c         **** 
ARM GAS  C:\Users\Xavier\AppData\Local\Temp\cc2gyztd.s 			page 9


 246:bas.c         **** #endif /*  (BAS_MEASURE_ENABLE != 0) */
 247:bas.c         **** 
 248:bas.c         **** #if (BAS_SIMULATE_ENABLE != 0)
 249:bas.c         **** 
 250:bas.c         **** 
 251:bas.c         **** /*******************************************************************************
 252:bas.c         **** * Function Name: SimulateBattery()
 253:bas.c         **** ********************************************************************************
 254:bas.c         **** *
 255:bas.c         **** * Summary:
 256:bas.c         **** *   The custom function to simulate Battery Voltage.
 257:bas.c         **** *
 258:bas.c         **** *******************************************************************************/
 259:bas.c         **** void SimulateBattery(void)
 260:bas.c         **** {
 209              		.loc 1 260 0
 210              		.cfi_startproc
 211              		@ args = 0, pretend = 0, frame = 8
 212              		@ frame_needed = 1, uses_anonymous_args = 0
 213 0000 90B5     		push	{r4, r7, lr}
 214              		.cfi_def_cfa_offset 12
 215              		.cfi_offset 4, -12
 216              		.cfi_offset 7, -8
 217              		.cfi_offset 14, -4
 218 0002 85B0     		sub	sp, sp, #20
 219              		.cfi_def_cfa_offset 32
 220 0004 02AF     		add	r7, sp, #8
 221              		.cfi_def_cfa 7, 24
 261:bas.c         ****     static uint32 batteryTimer = BATTERY_TIMEOUT;
 262:bas.c         ****     static uint8 batteryLevel = SIM_BATTERY_MIN;
 263:bas.c         ****     CYBLE_API_RESULT_T apiResult;
 264:bas.c         ****     
 265:bas.c         ****     if((CyBle_GattGetBusyStatus() == CYBLE_STACK_STATE_FREE) && (--batteryTimer == 0u))
 222              		.loc 1 265 0
 223 0006 264B     		ldr	r3, .L30
 224 0008 1B78     		ldrb	r3, [r3]
 225 000a DBB2     		uxtb	r3, r3
 226 000c 002B     		cmp	r3, #0
 227 000e 43D1     		bne	.L29
 228              		.loc 1 265 0 is_stmt 0 discriminator 1
 229 0010 244B     		ldr	r3, .L30+4
 230 0012 1B68     		ldr	r3, [r3]
 231 0014 5A1E     		subs	r2, r3, #1
 232 0016 234B     		ldr	r3, .L30+4
 233 0018 1A60     		str	r2, [r3]
 234 001a 224B     		ldr	r3, .L30+4
 235 001c 1B68     		ldr	r3, [r3]
 236 001e 002B     		cmp	r3, #0
 237 0020 3AD1     		bne	.L29
 266:bas.c         ****     {
 267:bas.c         ****         batteryTimer = BATTERY_TIMEOUT;
 238              		.loc 1 267 0 is_stmt 1
 239 0022 204B     		ldr	r3, .L30+4
 240 0024 3222     		movs	r2, #50
 241 0026 1A60     		str	r2, [r3]
 268:bas.c         ****         
 269:bas.c         ****         /* Battery Level simulation */
ARM GAS  C:\Users\Xavier\AppData\Local\Temp\cc2gyztd.s 			page 10


 270:bas.c         ****         batteryLevel += SIM_BATTERY_INCREMENT;
 242              		.loc 1 270 0
 243 0028 1F4B     		ldr	r3, .L30+8
 244 002a 1B78     		ldrb	r3, [r3]
 245 002c 0533     		adds	r3, r3, #5
 246 002e DAB2     		uxtb	r2, r3
 247 0030 1D4B     		ldr	r3, .L30+8
 248 0032 1A70     		strb	r2, [r3]
 271:bas.c         ****         if(batteryLevel > SIM_BATTERY_MAX)
 249              		.loc 1 271 0
 250 0034 1C4B     		ldr	r3, .L30+8
 251 0036 1B78     		ldrb	r3, [r3]
 252 0038 502B     		cmp	r3, #80
 253 003a 02D9     		bls	.L26
 272:bas.c         ****         {
 273:bas.c         ****             batteryLevel = SIM_BATTERY_MIN;
 254              		.loc 1 273 0
 255 003c 1A4B     		ldr	r3, .L30+8
 256 003e 1422     		movs	r2, #20
 257 0040 1A70     		strb	r2, [r3]
 258              	.L26:
 274:bas.c         ****         }
 275:bas.c         ****         if(batterySimulationNotify == ENABLED)
 259              		.loc 1 275 0
 260 0042 1A4B     		ldr	r3, .L30+12
 261 0044 1B88     		ldrh	r3, [r3]
 262 0046 012B     		cmp	r3, #1
 263 0048 16D1     		bne	.L27
 276:bas.c         ****         {
 277:bas.c         ****             /* Update Battery Level characteristic value and send Notification */
 278:bas.c         ****              apiResult = CyBle_BassSendNotification(cyBle_connHandle, BAS_SERVICE_SIMULATE, CYBLE_B
 264              		.loc 1 278 0
 265 004a BC1D     		adds	r4, r7, #6
 266 004c 184B     		ldr	r3, .L30+16
 267 004e 164A     		ldr	r2, .L30+8
 268 0050 0092     		str	r2, [sp]
 269 0052 1A78     		ldrb	r2, [r3]
 270 0054 5B78     		ldrb	r3, [r3, #1]
 271 0056 1B02     		lsls	r3, r3, #8
 272 0058 1343     		orrs	r3, r2
 273 005a 0020     		movs	r0, #0
 274 005c 1B04     		lsls	r3, r3, #16
 275 005e 1B0C     		lsrs	r3, r3, #16
 276 0060 020C     		lsrs	r2, r0, #16
 277 0062 1204     		lsls	r2, r2, #16
 278 0064 1343     		orrs	r3, r2
 279 0066 1800     		movs	r0, r3
 280 0068 0123     		movs	r3, #1
 281 006a 0022     		movs	r2, #0
 282 006c 0021     		movs	r1, #0
 283 006e FFF7FEFF 		bl	CyBle_BassSendNotification
 284 0072 0300     		movs	r3, r0
 285 0074 2380     		strh	r3, [r4]
 286 0076 08E0     		b	.L28
 287              	.L27:
 279:bas.c         ****                 sizeof(batteryLevel), &batteryLevel);
 280:bas.c         ****         }
ARM GAS  C:\Users\Xavier\AppData\Local\Temp\cc2gyztd.s 			page 11


 281:bas.c         ****         else
 282:bas.c         ****         {
 283:bas.c         ****             /* Update Battery Level characteristic value */
 284:bas.c         ****              apiResult = CyBle_BassSetCharacteristicValue(BAS_SERVICE_SIMULATE, 
 288              		.loc 1 284 0
 289 0078 BC1D     		adds	r4, r7, #6
 290 007a 0B4B     		ldr	r3, .L30+8
 291 007c 0122     		movs	r2, #1
 292 007e 0021     		movs	r1, #0
 293 0080 0020     		movs	r0, #0
 294 0082 FFF7FEFF 		bl	CyBle_BassSetCharacteristicValue
 295 0086 0300     		movs	r3, r0
 296 0088 2380     		strh	r3, [r4]
 297              	.L28:
 285:bas.c         ****                 CYBLE_BAS_BATTERY_LEVEL, sizeof(batteryLevel), &batteryLevel);
 286:bas.c         ****         }
 287:bas.c         ****         if(apiResult != CYBLE_ERROR_OK)
 298              		.loc 1 287 0
 299 008a BB1D     		adds	r3, r7, #6
 300 008c 1B88     		ldrh	r3, [r3]
 301 008e 002B     		cmp	r3, #0
 302 0090 02D0     		beq	.L29
 288:bas.c         ****         {
 289:bas.c         ****             DBG_PRINTF("API Error: %x \r\n", apiResult);
 290:bas.c         ****             batterySimulationNotify = DISABLED;
 303              		.loc 1 290 0
 304 0092 064B     		ldr	r3, .L30+12
 305 0094 0022     		movs	r2, #0
 306 0096 1A80     		strh	r2, [r3]
 307              	.L29:
 291:bas.c         ****         }
 292:bas.c         ****         else
 293:bas.c         ****         {
 294:bas.c         ****             DBG_PRINTF("SimulBatteryLevelUpdate: %d \r\n",batteryLevel);
 295:bas.c         ****         }
 296:bas.c         ****     }
 297:bas.c         **** }
 308              		.loc 1 297 0
 309 0098 C046     		nop
 310 009a BD46     		mov	sp, r7
 311 009c 03B0     		add	sp, sp, #12
 312              		@ sp needed
 313 009e 90BD     		pop	{r4, r7, pc}
 314              	.L31:
 315              		.align	2
 316              	.L30:
 317 00a0 00000000 		.word	cyBle_busyStatus
 318 00a4 00000000 		.word	batteryTimer.8346
 319 00a8 04000000 		.word	batteryLevel.8347
 320 00ac 00000000 		.word	batterySimulationNotify
 321 00b0 00000000 		.word	cyBle_connHandle
 322              		.cfi_endproc
 323              	.LFE38:
 324              		.size	SimulateBattery, .-SimulateBattery
 325              		.data
 326              		.align	2
 327              		.type	batteryTimer.8346, %object
ARM GAS  C:\Users\Xavier\AppData\Local\Temp\cc2gyztd.s 			page 12


 328              		.size	batteryTimer.8346, 4
 329              	batteryTimer.8346:
 330 0000 32000000 		.word	50
 331              		.type	batteryLevel.8347, %object
 332              		.size	batteryLevel.8347, 1
 333              	batteryLevel.8347:
 334 0004 14       		.byte	20
 335              		.text
 336              	.Letext0:
 337              		.file 2 "Generated_Source\\PSoC4/cytypes.h"
 338              		.file 3 "Generated_Source\\PSoC4/BLE_Stack.h"
 339              		.file 4 "Generated_Source\\PSoC4/BLE_StackGatt.h"
 340              		.file 5 "Generated_Source\\PSoC4/BLE_bas.h"
 341              		.file 6 "Generated_Source\\PSoC4/BLE_dis.h"
 342              		.file 7 "Generated_Source\\PSoC4/BLE_eventHandler.h"