ARM GAS  C:\Users\Xavier\AppData\Local\Temp\ccbkyXFu.s 			page 1


   1              		.syntax unified
   2              		.cpu cortex-m0
   3              		.fpu softvfp
   4              		.eabi_attribute 20, 1
   5              		.eabi_attribute 21, 1
   6              		.eabi_attribute 23, 3
   7              		.eabi_attribute 24, 1
   8              		.eabi_attribute 25, 1
   9              		.eabi_attribute 26, 1
  10              		.eabi_attribute 30, 6
  11              		.eabi_attribute 34, 0
  12              		.eabi_attribute 18, 4
  13              		.thumb
  14              		.syntax unified
  15              		.file	"Columns.c"
  16              		.text
  17              	.Ltext0:
  18              		.cfi_sections	.debug_frame
  19              		.section	.text.Columns_SetDriveMode,"ax",%progbits
  20              		.align	2
  21              		.global	Columns_SetDriveMode
  22              		.code	16
  23              		.thumb_func
  24              		.type	Columns_SetDriveMode, %function
  25              	Columns_SetDriveMode:
  26              	.LFB0:
  27              		.file 1 "Generated_Source\\PSoC4\\Columns.c"
   1:Generated_Source\PSoC4/Columns.c **** /*******************************************************************************
   2:Generated_Source\PSoC4/Columns.c **** * File Name: Columns.c  
   3:Generated_Source\PSoC4/Columns.c **** * Version 2.20
   4:Generated_Source\PSoC4/Columns.c **** *
   5:Generated_Source\PSoC4/Columns.c **** * Description:
   6:Generated_Source\PSoC4/Columns.c **** *  This file contains API to enable firmware control of a Pins component.
   7:Generated_Source\PSoC4/Columns.c **** *
   8:Generated_Source\PSoC4/Columns.c **** ********************************************************************************
   9:Generated_Source\PSoC4/Columns.c **** * Copyright 2008-2015, Cypress Semiconductor Corporation.  All rights reserved.
  10:Generated_Source\PSoC4/Columns.c **** * You may use this file only in accordance with the license, terms, conditions, 
  11:Generated_Source\PSoC4/Columns.c **** * disclaimers, and limitations in the end user license agreement accompanying 
  12:Generated_Source\PSoC4/Columns.c **** * the software package with which this file was provided.
  13:Generated_Source\PSoC4/Columns.c **** *******************************************************************************/
  14:Generated_Source\PSoC4/Columns.c **** 
  15:Generated_Source\PSoC4/Columns.c **** #include "cytypes.h"
  16:Generated_Source\PSoC4/Columns.c **** #include "Columns.h"
  17:Generated_Source\PSoC4/Columns.c **** 
  18:Generated_Source\PSoC4/Columns.c **** 
  19:Generated_Source\PSoC4/Columns.c **** #if defined(Columns__PC)
  20:Generated_Source\PSoC4/Columns.c ****     #define Columns_SetP4PinDriveMode(shift, mode)  \
  21:Generated_Source\PSoC4/Columns.c ****     do { \
  22:Generated_Source\PSoC4/Columns.c ****         Columns_PC =   (Columns_PC & \
  23:Generated_Source\PSoC4/Columns.c ****                                 (uint32)(~(uint32)(Columns_DRIVE_MODE_IND_MASK << \
  24:Generated_Source\PSoC4/Columns.c ****                                 (Columns_DRIVE_MODE_BITS * (shift))))) | \
  25:Generated_Source\PSoC4/Columns.c ****                                 (uint32)((uint32)(mode) << \
  26:Generated_Source\PSoC4/Columns.c ****                                 (Columns_DRIVE_MODE_BITS * (shift))); \
  27:Generated_Source\PSoC4/Columns.c ****     } while (0)
  28:Generated_Source\PSoC4/Columns.c **** #else
  29:Generated_Source\PSoC4/Columns.c ****     #if (CY_PSOC4_4200L)
  30:Generated_Source\PSoC4/Columns.c ****         #define Columns_SetP4PinDriveMode(shift, mode)  \
ARM GAS  C:\Users\Xavier\AppData\Local\Temp\ccbkyXFu.s 			page 2


  31:Generated_Source\PSoC4/Columns.c ****         do { \
  32:Generated_Source\PSoC4/Columns.c ****             Columns_USBIO_CTRL_REG = (Columns_USBIO_CTRL_REG & \
  33:Generated_Source\PSoC4/Columns.c ****                                     (uint32)(~(uint32)(Columns_DRIVE_MODE_IND_MASK << \
  34:Generated_Source\PSoC4/Columns.c ****                                     (Columns_DRIVE_MODE_BITS * (shift))))) | \
  35:Generated_Source\PSoC4/Columns.c ****                                     (uint32)((uint32)(mode) << \
  36:Generated_Source\PSoC4/Columns.c ****                                     (Columns_DRIVE_MODE_BITS * (shift))); \
  37:Generated_Source\PSoC4/Columns.c ****         } while (0)
  38:Generated_Source\PSoC4/Columns.c ****     #endif
  39:Generated_Source\PSoC4/Columns.c **** #endif
  40:Generated_Source\PSoC4/Columns.c ****   
  41:Generated_Source\PSoC4/Columns.c **** 
  42:Generated_Source\PSoC4/Columns.c **** #if defined(Columns__PC) || (CY_PSOC4_4200L) 
  43:Generated_Source\PSoC4/Columns.c ****     /*******************************************************************************
  44:Generated_Source\PSoC4/Columns.c ****     * Function Name: Columns_SetDriveMode
  45:Generated_Source\PSoC4/Columns.c ****     ****************************************************************************//**
  46:Generated_Source\PSoC4/Columns.c ****     *
  47:Generated_Source\PSoC4/Columns.c ****     * \brief Sets the drive mode for each of the Pins component's pins.
  48:Generated_Source\PSoC4/Columns.c ****     * 
  49:Generated_Source\PSoC4/Columns.c ****     * <b>Note</b> This affects all pins in the Pins component instance. Use the
  50:Generated_Source\PSoC4/Columns.c ****     * Per-Pin APIs if you wish to control individual pin's drive modes.
  51:Generated_Source\PSoC4/Columns.c ****     *
  52:Generated_Source\PSoC4/Columns.c ****     * <b>Note</b> USBIOs have limited drive functionality. Refer to the Drive Mode
  53:Generated_Source\PSoC4/Columns.c ****     * parameter for more information.
  54:Generated_Source\PSoC4/Columns.c ****     *
  55:Generated_Source\PSoC4/Columns.c ****     * \param mode
  56:Generated_Source\PSoC4/Columns.c ****     *  Mode for the selected signals. Valid options are documented in 
  57:Generated_Source\PSoC4/Columns.c ****     *  \ref driveMode.
  58:Generated_Source\PSoC4/Columns.c ****     *
  59:Generated_Source\PSoC4/Columns.c ****     * \return
  60:Generated_Source\PSoC4/Columns.c ****     *  None
  61:Generated_Source\PSoC4/Columns.c ****     *
  62:Generated_Source\PSoC4/Columns.c ****     * \sideeffect
  63:Generated_Source\PSoC4/Columns.c ****     *  If you use read-modify-write operations that are not atomic, the ISR can
  64:Generated_Source\PSoC4/Columns.c ****     *  cause corruption of this function. An ISR that interrupts this function 
  65:Generated_Source\PSoC4/Columns.c ****     *  and performs writes to the Pins component Drive Mode registers can cause 
  66:Generated_Source\PSoC4/Columns.c ****     *  corrupted port data. To avoid this issue, you should either use the Per-Pin
  67:Generated_Source\PSoC4/Columns.c ****     *  APIs (primary method) or disable interrupts around this function.
  68:Generated_Source\PSoC4/Columns.c ****     *
  69:Generated_Source\PSoC4/Columns.c ****     * \funcusage
  70:Generated_Source\PSoC4/Columns.c ****     *  \snippet Columns_SUT.c usage_Columns_SetDriveMode
  71:Generated_Source\PSoC4/Columns.c ****     *******************************************************************************/
  72:Generated_Source\PSoC4/Columns.c ****     void Columns_SetDriveMode(uint8 mode)
  73:Generated_Source\PSoC4/Columns.c ****     {
  28              		.loc 1 73 0
  29              		.cfi_startproc
  30              		@ args = 0, pretend = 0, frame = 8
  31              		@ frame_needed = 1, uses_anonymous_args = 0
  32 0000 80B5     		push	{r7, lr}
  33              		.cfi_def_cfa_offset 8
  34              		.cfi_offset 7, -8
  35              		.cfi_offset 14, -4
  36 0002 82B0     		sub	sp, sp, #8
  37              		.cfi_def_cfa_offset 16
  38 0004 00AF     		add	r7, sp, #0
  39              		.cfi_def_cfa_register 7
  40 0006 0200     		movs	r2, r0
  41 0008 FB1D     		adds	r3, r7, #7
ARM GAS  C:\Users\Xavier\AppData\Local\Temp\ccbkyXFu.s 			page 3


  42 000a 1A70     		strb	r2, [r3]
  74:Generated_Source\PSoC4/Columns.c **** 		Columns_SetP4PinDriveMode(Columns__0__SHIFT, mode);
  43              		.loc 1 74 0
  44 000c 114B     		ldr	r3, .L2
  45 000e 114A     		ldr	r2, .L2
  46 0010 1268     		ldr	r2, [r2]
  47 0012 3821     		movs	r1, #56
  48 0014 8A43     		bics	r2, r1
  49 0016 1100     		movs	r1, r2
  50 0018 FA1D     		adds	r2, r7, #7
  51 001a 1278     		ldrb	r2, [r2]
  52 001c D200     		lsls	r2, r2, #3
  53 001e 0A43     		orrs	r2, r1
  54 0020 1A60     		str	r2, [r3]
  75:Generated_Source\PSoC4/Columns.c **** 		Columns_SetP4PinDriveMode(Columns__1__SHIFT, mode);
  55              		.loc 1 75 0
  56 0022 0C4B     		ldr	r3, .L2
  57 0024 0B4A     		ldr	r2, .L2
  58 0026 1268     		ldr	r2, [r2]
  59 0028 0B49     		ldr	r1, .L2+4
  60 002a 1140     		ands	r1, r2
  61 002c FA1D     		adds	r2, r7, #7
  62 002e 1278     		ldrb	r2, [r2]
  63 0030 9201     		lsls	r2, r2, #6
  64 0032 0A43     		orrs	r2, r1
  65 0034 1A60     		str	r2, [r3]
  76:Generated_Source\PSoC4/Columns.c **** 		Columns_SetP4PinDriveMode(Columns__2__SHIFT, mode);
  66              		.loc 1 76 0
  67 0036 074B     		ldr	r3, .L2
  68 0038 064A     		ldr	r2, .L2
  69 003a 1268     		ldr	r2, [r2]
  70 003c 0749     		ldr	r1, .L2+8
  71 003e 1140     		ands	r1, r2
  72 0040 FA1D     		adds	r2, r7, #7
  73 0042 1278     		ldrb	r2, [r2]
  74 0044 5202     		lsls	r2, r2, #9
  75 0046 0A43     		orrs	r2, r1
  76 0048 1A60     		str	r2, [r3]
  77:Generated_Source\PSoC4/Columns.c ****     }
  77              		.loc 1 77 0
  78 004a C046     		nop
  79 004c BD46     		mov	sp, r7
  80 004e 02B0     		add	sp, sp, #8
  81              		@ sp needed
  82 0050 80BD     		pop	{r7, pc}
  83              	.L3:
  84 0052 C046     		.align	2
  85              	.L2:
  86 0054 08010440 		.word	1074004232
  87 0058 3FFEFFFF 		.word	-449
  88 005c FFF1FFFF 		.word	-3585
  89              		.cfi_endproc
  90              	.LFE0:
  91              		.size	Columns_SetDriveMode, .-Columns_SetDriveMode
  92              		.section	.text.Columns_Write,"ax",%progbits
  93              		.align	2
  94              		.global	Columns_Write
ARM GAS  C:\Users\Xavier\AppData\Local\Temp\ccbkyXFu.s 			page 4


  95              		.code	16
  96              		.thumb_func
  97              		.type	Columns_Write, %function
  98              	Columns_Write:
  99              	.LFB1:
  78:Generated_Source\PSoC4/Columns.c **** #endif
  79:Generated_Source\PSoC4/Columns.c **** 
  80:Generated_Source\PSoC4/Columns.c **** 
  81:Generated_Source\PSoC4/Columns.c **** /*******************************************************************************
  82:Generated_Source\PSoC4/Columns.c **** * Function Name: Columns_Write
  83:Generated_Source\PSoC4/Columns.c **** ****************************************************************************//**
  84:Generated_Source\PSoC4/Columns.c **** *
  85:Generated_Source\PSoC4/Columns.c **** * \brief Writes the value to the physical port (data output register), masking
  86:Generated_Source\PSoC4/Columns.c **** *  and shifting the bits appropriately. 
  87:Generated_Source\PSoC4/Columns.c **** *
  88:Generated_Source\PSoC4/Columns.c **** * The data output register controls the signal applied to the physical pin in 
  89:Generated_Source\PSoC4/Columns.c **** * conjunction with the drive mode parameter. This function avoids changing 
  90:Generated_Source\PSoC4/Columns.c **** * other bits in the port by using the appropriate method (read-modify-write or
  91:Generated_Source\PSoC4/Columns.c **** * bit banding).
  92:Generated_Source\PSoC4/Columns.c **** *
  93:Generated_Source\PSoC4/Columns.c **** * <b>Note</b> This function should not be used on a hardware digital output pin 
  94:Generated_Source\PSoC4/Columns.c **** * as it is driven by the hardware signal attached to it.
  95:Generated_Source\PSoC4/Columns.c **** *
  96:Generated_Source\PSoC4/Columns.c **** * \param value
  97:Generated_Source\PSoC4/Columns.c **** *  Value to write to the component instance.
  98:Generated_Source\PSoC4/Columns.c **** *
  99:Generated_Source\PSoC4/Columns.c **** * \return 
 100:Generated_Source\PSoC4/Columns.c **** *  None 
 101:Generated_Source\PSoC4/Columns.c **** *
 102:Generated_Source\PSoC4/Columns.c **** * \sideeffect
 103:Generated_Source\PSoC4/Columns.c **** *  If you use read-modify-write operations that are not atomic; the Interrupt 
 104:Generated_Source\PSoC4/Columns.c **** *  Service Routines (ISR) can cause corruption of this function. An ISR that 
 105:Generated_Source\PSoC4/Columns.c **** *  interrupts this function and performs writes to the Pins component data 
 106:Generated_Source\PSoC4/Columns.c **** *  register can cause corrupted port data. To avoid this issue, you should 
 107:Generated_Source\PSoC4/Columns.c **** *  either use the Per-Pin APIs (primary method) or disable interrupts around 
 108:Generated_Source\PSoC4/Columns.c **** *  this function.
 109:Generated_Source\PSoC4/Columns.c **** *
 110:Generated_Source\PSoC4/Columns.c **** * \funcusage
 111:Generated_Source\PSoC4/Columns.c **** *  \snippet Columns_SUT.c usage_Columns_Write
 112:Generated_Source\PSoC4/Columns.c **** *******************************************************************************/
 113:Generated_Source\PSoC4/Columns.c **** void Columns_Write(uint8 value)
 114:Generated_Source\PSoC4/Columns.c **** {
 100              		.loc 1 114 0
 101              		.cfi_startproc
 102              		@ args = 0, pretend = 0, frame = 16
 103              		@ frame_needed = 1, uses_anonymous_args = 0
 104 0000 80B5     		push	{r7, lr}
 105              		.cfi_def_cfa_offset 8
 106              		.cfi_offset 7, -8
 107              		.cfi_offset 14, -4
 108 0002 84B0     		sub	sp, sp, #16
 109              		.cfi_def_cfa_offset 24
 110 0004 00AF     		add	r7, sp, #0
 111              		.cfi_def_cfa_register 7
 112 0006 0200     		movs	r2, r0
 113 0008 FB1D     		adds	r3, r7, #7
 114 000a 1A70     		strb	r2, [r3]
ARM GAS  C:\Users\Xavier\AppData\Local\Temp\ccbkyXFu.s 			page 5


 115:Generated_Source\PSoC4/Columns.c ****     uint8 drVal = (uint8)(Columns_DR & (uint8)(~Columns_MASK));
 115              		.loc 1 115 0
 116 000c 0F4B     		ldr	r3, .L5
 117 000e 1B68     		ldr	r3, [r3]
 118 0010 DAB2     		uxtb	r2, r3
 119 0012 0F23     		movs	r3, #15
 120 0014 FB18     		adds	r3, r7, r3
 121 0016 0E21     		movs	r1, #14
 122 0018 8A43     		bics	r2, r1
 123 001a 1A70     		strb	r2, [r3]
 116:Generated_Source\PSoC4/Columns.c ****     drVal = (drVal | ((uint8)(value << Columns_SHIFT) & Columns_MASK));
 124              		.loc 1 116 0
 125 001c FB1D     		adds	r3, r7, #7
 126 001e 1B78     		ldrb	r3, [r3]
 127 0020 DB18     		adds	r3, r3, r3
 128 0022 DBB2     		uxtb	r3, r3
 129 0024 0E22     		movs	r2, #14
 130 0026 1340     		ands	r3, r2
 131 0028 D9B2     		uxtb	r1, r3
 132 002a 0F23     		movs	r3, #15
 133 002c FB18     		adds	r3, r7, r3
 134 002e 0F22     		movs	r2, #15
 135 0030 BA18     		adds	r2, r7, r2
 136 0032 1278     		ldrb	r2, [r2]
 137 0034 0A43     		orrs	r2, r1
 138 0036 1A70     		strb	r2, [r3]
 117:Generated_Source\PSoC4/Columns.c ****     Columns_DR = (uint32)drVal;
 139              		.loc 1 117 0
 140 0038 044B     		ldr	r3, .L5
 141 003a 0F22     		movs	r2, #15
 142 003c BA18     		adds	r2, r7, r2
 143 003e 1278     		ldrb	r2, [r2]
 144 0040 1A60     		str	r2, [r3]
 118:Generated_Source\PSoC4/Columns.c **** }
 145              		.loc 1 118 0
 146 0042 C046     		nop
 147 0044 BD46     		mov	sp, r7
 148 0046 04B0     		add	sp, sp, #16
 149              		@ sp needed
 150 0048 80BD     		pop	{r7, pc}
 151              	.L6:
 152 004a C046     		.align	2
 153              	.L5:
 154 004c 00010440 		.word	1074004224
 155              		.cfi_endproc
 156              	.LFE1:
 157              		.size	Columns_Write, .-Columns_Write
 158              		.section	.text.Columns_Read,"ax",%progbits
 159              		.align	2
 160              		.global	Columns_Read
 161              		.code	16
 162              		.thumb_func
 163              		.type	Columns_Read, %function
 164              	Columns_Read:
 165              	.LFB2:
 119:Generated_Source\PSoC4/Columns.c **** 
 120:Generated_Source\PSoC4/Columns.c **** 
ARM GAS  C:\Users\Xavier\AppData\Local\Temp\ccbkyXFu.s 			page 6


 121:Generated_Source\PSoC4/Columns.c **** /*******************************************************************************
 122:Generated_Source\PSoC4/Columns.c **** * Function Name: Columns_Read
 123:Generated_Source\PSoC4/Columns.c **** ****************************************************************************//**
 124:Generated_Source\PSoC4/Columns.c **** *
 125:Generated_Source\PSoC4/Columns.c **** * \brief Reads the associated physical port (pin status register) and masks 
 126:Generated_Source\PSoC4/Columns.c **** *  the required bits according to the width and bit position of the component
 127:Generated_Source\PSoC4/Columns.c **** *  instance. 
 128:Generated_Source\PSoC4/Columns.c **** *
 129:Generated_Source\PSoC4/Columns.c **** * The pin's status register returns the current logic level present on the 
 130:Generated_Source\PSoC4/Columns.c **** * physical pin.
 131:Generated_Source\PSoC4/Columns.c **** *
 132:Generated_Source\PSoC4/Columns.c **** * \return 
 133:Generated_Source\PSoC4/Columns.c **** *  The current value for the pins in the component as a right justified number.
 134:Generated_Source\PSoC4/Columns.c **** *
 135:Generated_Source\PSoC4/Columns.c **** * \funcusage
 136:Generated_Source\PSoC4/Columns.c **** *  \snippet Columns_SUT.c usage_Columns_Read  
 137:Generated_Source\PSoC4/Columns.c **** *******************************************************************************/
 138:Generated_Source\PSoC4/Columns.c **** uint8 Columns_Read(void)
 139:Generated_Source\PSoC4/Columns.c **** {
 166              		.loc 1 139 0
 167              		.cfi_startproc
 168              		@ args = 0, pretend = 0, frame = 0
 169              		@ frame_needed = 1, uses_anonymous_args = 0
 170 0000 80B5     		push	{r7, lr}
 171              		.cfi_def_cfa_offset 8
 172              		.cfi_offset 7, -8
 173              		.cfi_offset 14, -4
 174 0002 00AF     		add	r7, sp, #0
 175              		.cfi_def_cfa_register 7
 140:Generated_Source\PSoC4/Columns.c ****     return (uint8)((Columns_PS & Columns_MASK) >> Columns_SHIFT);
 176              		.loc 1 140 0
 177 0004 044B     		ldr	r3, .L9
 178 0006 1B68     		ldr	r3, [r3]
 179 0008 0E22     		movs	r2, #14
 180 000a 1340     		ands	r3, r2
 181 000c 5B08     		lsrs	r3, r3, #1
 182 000e DBB2     		uxtb	r3, r3
 141:Generated_Source\PSoC4/Columns.c **** }
 183              		.loc 1 141 0
 184 0010 1800     		movs	r0, r3
 185 0012 BD46     		mov	sp, r7
 186              		@ sp needed
 187 0014 80BD     		pop	{r7, pc}
 188              	.L10:
 189 0016 C046     		.align	2
 190              	.L9:
 191 0018 04010440 		.word	1074004228
 192              		.cfi_endproc
 193              	.LFE2:
 194              		.size	Columns_Read, .-Columns_Read
 195              		.section	.text.Columns_ReadDataReg,"ax",%progbits
 196              		.align	2
 197              		.global	Columns_ReadDataReg
 198              		.code	16
 199              		.thumb_func
 200              		.type	Columns_ReadDataReg, %function
 201              	Columns_ReadDataReg:
ARM GAS  C:\Users\Xavier\AppData\Local\Temp\ccbkyXFu.s 			page 7


 202              	.LFB3:
 142:Generated_Source\PSoC4/Columns.c **** 
 143:Generated_Source\PSoC4/Columns.c **** 
 144:Generated_Source\PSoC4/Columns.c **** /*******************************************************************************
 145:Generated_Source\PSoC4/Columns.c **** * Function Name: Columns_ReadDataReg
 146:Generated_Source\PSoC4/Columns.c **** ****************************************************************************//**
 147:Generated_Source\PSoC4/Columns.c **** *
 148:Generated_Source\PSoC4/Columns.c **** * \brief Reads the associated physical port's data output register and masks 
 149:Generated_Source\PSoC4/Columns.c **** *  the correct bits according to the width and bit position of the component 
 150:Generated_Source\PSoC4/Columns.c **** *  instance. 
 151:Generated_Source\PSoC4/Columns.c **** *
 152:Generated_Source\PSoC4/Columns.c **** * The data output register controls the signal applied to the physical pin in 
 153:Generated_Source\PSoC4/Columns.c **** * conjunction with the drive mode parameter. This is not the same as the 
 154:Generated_Source\PSoC4/Columns.c **** * preferred Columns_Read() API because the 
 155:Generated_Source\PSoC4/Columns.c **** * Columns_ReadDataReg() reads the data register instead of the status 
 156:Generated_Source\PSoC4/Columns.c **** * register. For output pins this is a useful function to determine the value 
 157:Generated_Source\PSoC4/Columns.c **** * just written to the pin.
 158:Generated_Source\PSoC4/Columns.c **** *
 159:Generated_Source\PSoC4/Columns.c **** * \return 
 160:Generated_Source\PSoC4/Columns.c **** *  The current value of the data register masked and shifted into a right 
 161:Generated_Source\PSoC4/Columns.c **** *  justified number for the component instance.
 162:Generated_Source\PSoC4/Columns.c **** *
 163:Generated_Source\PSoC4/Columns.c **** * \funcusage
 164:Generated_Source\PSoC4/Columns.c **** *  \snippet Columns_SUT.c usage_Columns_ReadDataReg 
 165:Generated_Source\PSoC4/Columns.c **** *******************************************************************************/
 166:Generated_Source\PSoC4/Columns.c **** uint8 Columns_ReadDataReg(void)
 167:Generated_Source\PSoC4/Columns.c **** {
 203              		.loc 1 167 0
 204              		.cfi_startproc
 205              		@ args = 0, pretend = 0, frame = 0
 206              		@ frame_needed = 1, uses_anonymous_args = 0
 207 0000 80B5     		push	{r7, lr}
 208              		.cfi_def_cfa_offset 8
 209              		.cfi_offset 7, -8
 210              		.cfi_offset 14, -4
 211 0002 00AF     		add	r7, sp, #0
 212              		.cfi_def_cfa_register 7
 168:Generated_Source\PSoC4/Columns.c ****     return (uint8)((Columns_DR & Columns_MASK) >> Columns_SHIFT);
 213              		.loc 1 168 0
 214 0004 044B     		ldr	r3, .L13
 215 0006 1B68     		ldr	r3, [r3]
 216 0008 0E22     		movs	r2, #14
 217 000a 1340     		ands	r3, r2
 218 000c 5B08     		lsrs	r3, r3, #1
 219 000e DBB2     		uxtb	r3, r3
 169:Generated_Source\PSoC4/Columns.c **** }
 220              		.loc 1 169 0
 221 0010 1800     		movs	r0, r3
 222 0012 BD46     		mov	sp, r7
 223              		@ sp needed
 224 0014 80BD     		pop	{r7, pc}
 225              	.L14:
 226 0016 C046     		.align	2
 227              	.L13:
 228 0018 00010440 		.word	1074004224
 229              		.cfi_endproc
 230              	.LFE3:
ARM GAS  C:\Users\Xavier\AppData\Local\Temp\ccbkyXFu.s 			page 8


 231              		.size	Columns_ReadDataReg, .-Columns_ReadDataReg
 232              		.section	.text.Columns_SetInterruptMode,"ax",%progbits
 233              		.align	2
 234              		.global	Columns_SetInterruptMode
 235              		.code	16
 236              		.thumb_func
 237              		.type	Columns_SetInterruptMode, %function
 238              	Columns_SetInterruptMode:
 239              	.LFB4:
 170:Generated_Source\PSoC4/Columns.c **** 
 171:Generated_Source\PSoC4/Columns.c **** 
 172:Generated_Source\PSoC4/Columns.c **** /*******************************************************************************
 173:Generated_Source\PSoC4/Columns.c **** * Function Name: Columns_SetInterruptMode
 174:Generated_Source\PSoC4/Columns.c **** ****************************************************************************//**
 175:Generated_Source\PSoC4/Columns.c **** *
 176:Generated_Source\PSoC4/Columns.c **** * \brief Configures the interrupt mode for each of the Pins component's
 177:Generated_Source\PSoC4/Columns.c **** *  pins. Alternatively you may set the interrupt mode for all the pins
 178:Generated_Source\PSoC4/Columns.c **** *  specified in the Pins component.
 179:Generated_Source\PSoC4/Columns.c **** *
 180:Generated_Source\PSoC4/Columns.c **** *  <b>Note</b> The interrupt is port-wide and therefore any enabled pin
 181:Generated_Source\PSoC4/Columns.c **** *  interrupt may trigger it.
 182:Generated_Source\PSoC4/Columns.c **** *
 183:Generated_Source\PSoC4/Columns.c **** * \param position
 184:Generated_Source\PSoC4/Columns.c **** *  The pin position as listed in the Pins component. You may OR these to be 
 185:Generated_Source\PSoC4/Columns.c **** *  able to configure the interrupt mode of multiple pins within a Pins 
 186:Generated_Source\PSoC4/Columns.c **** *  component. Or you may use Columns_INTR_ALL to configure the
 187:Generated_Source\PSoC4/Columns.c **** *  interrupt mode of all the pins in the Pins component.       
 188:Generated_Source\PSoC4/Columns.c **** *  - Columns_0_INTR       (First pin in the list)
 189:Generated_Source\PSoC4/Columns.c **** *  - Columns_1_INTR       (Second pin in the list)
 190:Generated_Source\PSoC4/Columns.c **** *  - ...
 191:Generated_Source\PSoC4/Columns.c **** *  - Columns_INTR_ALL     (All pins in Pins component)
 192:Generated_Source\PSoC4/Columns.c **** *
 193:Generated_Source\PSoC4/Columns.c **** * \param mode
 194:Generated_Source\PSoC4/Columns.c **** *  Interrupt mode for the selected pins. Valid options are documented in
 195:Generated_Source\PSoC4/Columns.c **** *  \ref intrMode.
 196:Generated_Source\PSoC4/Columns.c **** *
 197:Generated_Source\PSoC4/Columns.c **** * \return 
 198:Generated_Source\PSoC4/Columns.c **** *  None
 199:Generated_Source\PSoC4/Columns.c **** *  
 200:Generated_Source\PSoC4/Columns.c **** * \sideeffect
 201:Generated_Source\PSoC4/Columns.c **** *  It is recommended that the interrupt be disabled before calling this 
 202:Generated_Source\PSoC4/Columns.c **** *  function to avoid unintended interrupt requests. Note that the interrupt
 203:Generated_Source\PSoC4/Columns.c **** *  type is port wide, and therefore will trigger for any enabled pin on the 
 204:Generated_Source\PSoC4/Columns.c **** *  port.
 205:Generated_Source\PSoC4/Columns.c **** *
 206:Generated_Source\PSoC4/Columns.c **** * \funcusage
 207:Generated_Source\PSoC4/Columns.c **** *  \snippet Columns_SUT.c usage_Columns_SetInterruptMode
 208:Generated_Source\PSoC4/Columns.c **** *******************************************************************************/
 209:Generated_Source\PSoC4/Columns.c **** void Columns_SetInterruptMode(uint16 position, uint16 mode)
 210:Generated_Source\PSoC4/Columns.c **** {
 240              		.loc 1 210 0
 241              		.cfi_startproc
 242              		@ args = 0, pretend = 0, frame = 16
 243              		@ frame_needed = 1, uses_anonymous_args = 0
 244 0000 80B5     		push	{r7, lr}
 245              		.cfi_def_cfa_offset 8
 246              		.cfi_offset 7, -8
ARM GAS  C:\Users\Xavier\AppData\Local\Temp\ccbkyXFu.s 			page 9


 247              		.cfi_offset 14, -4
 248 0002 84B0     		sub	sp, sp, #16
 249              		.cfi_def_cfa_offset 24
 250 0004 00AF     		add	r7, sp, #0
 251              		.cfi_def_cfa_register 7
 252 0006 0200     		movs	r2, r0
 253 0008 BB1D     		adds	r3, r7, #6
 254 000a 1A80     		strh	r2, [r3]
 255 000c 3B1D     		adds	r3, r7, #4
 256 000e 0A1C     		adds	r2, r1, #0
 257 0010 1A80     		strh	r2, [r3]
 211:Generated_Source\PSoC4/Columns.c ****     uint32 intrCfg;
 212:Generated_Source\PSoC4/Columns.c ****     
 213:Generated_Source\PSoC4/Columns.c ****     intrCfg =  Columns_INTCFG & (uint32)(~(uint32)position);
 258              		.loc 1 213 0
 259 0012 0B4B     		ldr	r3, .L16
 260 0014 1B68     		ldr	r3, [r3]
 261 0016 BA1D     		adds	r2, r7, #6
 262 0018 1288     		ldrh	r2, [r2]
 263 001a D243     		mvns	r2, r2
 264 001c 1340     		ands	r3, r2
 265 001e FB60     		str	r3, [r7, #12]
 214:Generated_Source\PSoC4/Columns.c ****     Columns_INTCFG = intrCfg | ((uint32)position & (uint32)mode);
 266              		.loc 1 214 0
 267 0020 074B     		ldr	r3, .L16
 268 0022 BA1D     		adds	r2, r7, #6
 269 0024 391D     		adds	r1, r7, #4
 270 0026 1288     		ldrh	r2, [r2]
 271 0028 0988     		ldrh	r1, [r1]
 272 002a 0A40     		ands	r2, r1
 273 002c 92B2     		uxth	r2, r2
 274 002e 1100     		movs	r1, r2
 275 0030 FA68     		ldr	r2, [r7, #12]
 276 0032 0A43     		orrs	r2, r1
 277 0034 1A60     		str	r2, [r3]
 215:Generated_Source\PSoC4/Columns.c **** }
 278              		.loc 1 215 0
 279 0036 C046     		nop
 280 0038 BD46     		mov	sp, r7
 281 003a 04B0     		add	sp, sp, #16
 282              		@ sp needed
 283 003c 80BD     		pop	{r7, pc}
 284              	.L17:
 285 003e C046     		.align	2
 286              	.L16:
 287 0040 0C010440 		.word	1074004236
 288              		.cfi_endproc
 289              	.LFE4:
 290              		.size	Columns_SetInterruptMode, .-Columns_SetInterruptMode
 291              		.section	.text.Columns_ClearInterrupt,"ax",%progbits
 292              		.align	2
 293              		.global	Columns_ClearInterrupt
 294              		.code	16
 295              		.thumb_func
 296              		.type	Columns_ClearInterrupt, %function
 297              	Columns_ClearInterrupt:
 298              	.LFB5:
ARM GAS  C:\Users\Xavier\AppData\Local\Temp\ccbkyXFu.s 			page 10


 216:Generated_Source\PSoC4/Columns.c **** 
 217:Generated_Source\PSoC4/Columns.c **** 
 218:Generated_Source\PSoC4/Columns.c **** /*******************************************************************************
 219:Generated_Source\PSoC4/Columns.c **** * Function Name: Columns_ClearInterrupt
 220:Generated_Source\PSoC4/Columns.c **** ****************************************************************************//**
 221:Generated_Source\PSoC4/Columns.c **** *
 222:Generated_Source\PSoC4/Columns.c **** * \brief Clears any active interrupts attached with the component and returns 
 223:Generated_Source\PSoC4/Columns.c **** *  the value of the interrupt status register allowing determination of which
 224:Generated_Source\PSoC4/Columns.c **** *  pins generated an interrupt event.
 225:Generated_Source\PSoC4/Columns.c **** *
 226:Generated_Source\PSoC4/Columns.c **** * \return 
 227:Generated_Source\PSoC4/Columns.c **** *  The right-shifted current value of the interrupt status register. Each pin 
 228:Generated_Source\PSoC4/Columns.c **** *  has one bit set if it generated an interrupt event. For example, bit 0 is 
 229:Generated_Source\PSoC4/Columns.c **** *  for pin 0 and bit 1 is for pin 1 of the Pins component.
 230:Generated_Source\PSoC4/Columns.c **** *  
 231:Generated_Source\PSoC4/Columns.c **** * \sideeffect
 232:Generated_Source\PSoC4/Columns.c **** *  Clears all bits of the physical port's interrupt status register, not just
 233:Generated_Source\PSoC4/Columns.c **** *  those associated with the Pins component.
 234:Generated_Source\PSoC4/Columns.c **** *
 235:Generated_Source\PSoC4/Columns.c **** * \funcusage
 236:Generated_Source\PSoC4/Columns.c **** *  \snippet Columns_SUT.c usage_Columns_ClearInterrupt
 237:Generated_Source\PSoC4/Columns.c **** *******************************************************************************/
 238:Generated_Source\PSoC4/Columns.c **** uint8 Columns_ClearInterrupt(void)
 239:Generated_Source\PSoC4/Columns.c **** {
 299              		.loc 1 239 0
 300              		.cfi_startproc
 301              		@ args = 0, pretend = 0, frame = 8
 302              		@ frame_needed = 1, uses_anonymous_args = 0
 303 0000 80B5     		push	{r7, lr}
 304              		.cfi_def_cfa_offset 8
 305              		.cfi_offset 7, -8
 306              		.cfi_offset 14, -4
 307 0002 82B0     		sub	sp, sp, #8
 308              		.cfi_def_cfa_offset 16
 309 0004 00AF     		add	r7, sp, #0
 310              		.cfi_def_cfa_register 7
 240:Generated_Source\PSoC4/Columns.c **** 	uint8 maskedStatus = (uint8)(Columns_INTSTAT & Columns_MASK);
 311              		.loc 1 240 0
 312 0006 094B     		ldr	r3, .L20
 313 0008 1B68     		ldr	r3, [r3]
 314 000a DAB2     		uxtb	r2, r3
 315 000c FB1D     		adds	r3, r7, #7
 316 000e 0E21     		movs	r1, #14
 317 0010 0A40     		ands	r2, r1
 318 0012 1A70     		strb	r2, [r3]
 241:Generated_Source\PSoC4/Columns.c **** 	Columns_INTSTAT = maskedStatus;
 319              		.loc 1 241 0
 320 0014 054B     		ldr	r3, .L20
 321 0016 FA1D     		adds	r2, r7, #7
 322 0018 1278     		ldrb	r2, [r2]
 323 001a 1A60     		str	r2, [r3]
 242:Generated_Source\PSoC4/Columns.c ****     return maskedStatus >> Columns_SHIFT;
 324              		.loc 1 242 0
 325 001c FB1D     		adds	r3, r7, #7
 326 001e 1B78     		ldrb	r3, [r3]
 327 0020 5B08     		lsrs	r3, r3, #1
 328 0022 DBB2     		uxtb	r3, r3
ARM GAS  C:\Users\Xavier\AppData\Local\Temp\ccbkyXFu.s 			page 11


 243:Generated_Source\PSoC4/Columns.c **** }
 329              		.loc 1 243 0
 330 0024 1800     		movs	r0, r3
 331 0026 BD46     		mov	sp, r7
 332 0028 02B0     		add	sp, sp, #8
 333              		@ sp needed
 334 002a 80BD     		pop	{r7, pc}
 335              	.L21:
 336              		.align	2
 337              	.L20:
 338 002c 10010440 		.word	1074004240
 339              		.cfi_endproc
 340              	.LFE5:
 341              		.size	Columns_ClearInterrupt, .-Columns_ClearInterrupt
 342              		.text
 343              	.Letext0:
 344              		.file 2 "Generated_Source\\PSoC4\\cytypes.h"