ARM GAS  C:\Users\Xavier\AppData\Local\Temp\ccadZIMz.s 			page 1


   1              		.syntax unified
   2              		.cpu cortex-m0
   3              		.fpu softvfp
   4              		.eabi_attribute 20, 1
   5              		.eabi_attribute 21, 1
   6              		.eabi_attribute 23, 3
   7              		.eabi_attribute 24, 1
   8              		.eabi_attribute 25, 1
   9              		.eabi_attribute 26, 1
  10              		.eabi_attribute 30, 6
  11              		.eabi_attribute 34, 0
  12              		.eabi_attribute 18, 4
  13              		.thumb
  14              		.syntax unified
  15              		.file	"cyfitter_cfg.c"
  16              		.text
  17              	.Ltext0:
  18              		.cfi_sections	.debug_frame
  19              		.section	.text.CYMEMZERO,"ax",%progbits
  20              		.align	2
  21              		.code	16
  22              		.thumb_func
  23              		.type	CYMEMZERO, %function
  24              	CYMEMZERO:
  25              	.LFB2:
  26              		.file 1 "Generated_Source\\PSoC4\\cyfitter_cfg.c"
   1:Generated_Source\PSoC4/cyfitter_cfg.c **** 
   2:Generated_Source\PSoC4/cyfitter_cfg.c **** /*******************************************************************************
   3:Generated_Source\PSoC4/cyfitter_cfg.c **** * File Name: cyfitter_cfg.c
   4:Generated_Source\PSoC4/cyfitter_cfg.c **** * 
   5:Generated_Source\PSoC4/cyfitter_cfg.c **** * PSoC Creator  4.4
   6:Generated_Source\PSoC4/cyfitter_cfg.c **** *
   7:Generated_Source\PSoC4/cyfitter_cfg.c **** * Description:
   8:Generated_Source\PSoC4/cyfitter_cfg.c **** * This file contains device initialization code.
   9:Generated_Source\PSoC4/cyfitter_cfg.c **** * Except for the user defined sections in CyClockStartupError(), this file should not be modified.
  10:Generated_Source\PSoC4/cyfitter_cfg.c **** * This file is automatically generated by PSoC Creator.
  11:Generated_Source\PSoC4/cyfitter_cfg.c **** *
  12:Generated_Source\PSoC4/cyfitter_cfg.c **** ********************************************************************************
  13:Generated_Source\PSoC4/cyfitter_cfg.c **** * Copyright (c) 2007-2020 Cypress Semiconductor.  All rights reserved.
  14:Generated_Source\PSoC4/cyfitter_cfg.c **** * You may use this file only in accordance with the license, terms, conditions, 
  15:Generated_Source\PSoC4/cyfitter_cfg.c **** * disclaimers, and limitations in the end user license agreement accompanying 
  16:Generated_Source\PSoC4/cyfitter_cfg.c **** * the software package with which this file was provided.
  17:Generated_Source\PSoC4/cyfitter_cfg.c **** ********************************************************************************/
  18:Generated_Source\PSoC4/cyfitter_cfg.c **** 
  19:Generated_Source\PSoC4/cyfitter_cfg.c **** #include <string.h>
  20:Generated_Source\PSoC4/cyfitter_cfg.c **** #include "cytypes.h"
  21:Generated_Source\PSoC4/cyfitter_cfg.c **** #include "cydevice_trm.h"
  22:Generated_Source\PSoC4/cyfitter_cfg.c **** #include "cyfitter.h"
  23:Generated_Source\PSoC4/cyfitter_cfg.c **** #include "CyLib.h"
  24:Generated_Source\PSoC4/cyfitter_cfg.c **** #include "cyfitter_cfg.h"
  25:Generated_Source\PSoC4/cyfitter_cfg.c **** #include "cyapicallbacks.h"
  26:Generated_Source\PSoC4/cyfitter_cfg.c **** 
  27:Generated_Source\PSoC4/cyfitter_cfg.c **** 
  28:Generated_Source\PSoC4/cyfitter_cfg.c **** #if defined(__GNUC__) || defined(__ARMCC_VERSION)
  29:Generated_Source\PSoC4/cyfitter_cfg.c ****     #define CYPACKED 
  30:Generated_Source\PSoC4/cyfitter_cfg.c ****     #define CYPACKED_ATTR __attribute__ ((packed))
  31:Generated_Source\PSoC4/cyfitter_cfg.c ****     #define CYALIGNED __attribute__ ((aligned))
ARM GAS  C:\Users\Xavier\AppData\Local\Temp\ccadZIMz.s 			page 2


  32:Generated_Source\PSoC4/cyfitter_cfg.c ****     #define CY_CFG_UNUSED __attribute__ ((unused))
  33:Generated_Source\PSoC4/cyfitter_cfg.c ****     #ifndef CY_CFG_SECTION
  34:Generated_Source\PSoC4/cyfitter_cfg.c ****         #define CY_CFG_SECTION __attribute__ ((section(".psocinit")))
  35:Generated_Source\PSoC4/cyfitter_cfg.c ****     #endif
  36:Generated_Source\PSoC4/cyfitter_cfg.c ****     
  37:Generated_Source\PSoC4/cyfitter_cfg.c ****     #if defined(__ARMCC_VERSION)
  38:Generated_Source\PSoC4/cyfitter_cfg.c ****         #define CY_CFG_MEMORY_BARRIER() __memory_changed()
  39:Generated_Source\PSoC4/cyfitter_cfg.c ****     #else
  40:Generated_Source\PSoC4/cyfitter_cfg.c ****         #define CY_CFG_MEMORY_BARRIER() __sync_synchronize()
  41:Generated_Source\PSoC4/cyfitter_cfg.c ****     #endif
  42:Generated_Source\PSoC4/cyfitter_cfg.c ****     
  43:Generated_Source\PSoC4/cyfitter_cfg.c **** #elif defined(__ICCARM__)
  44:Generated_Source\PSoC4/cyfitter_cfg.c ****     #include <intrinsics.h>
  45:Generated_Source\PSoC4/cyfitter_cfg.c **** 
  46:Generated_Source\PSoC4/cyfitter_cfg.c ****     #define CYPACKED __packed
  47:Generated_Source\PSoC4/cyfitter_cfg.c ****     #define CYPACKED_ATTR 
  48:Generated_Source\PSoC4/cyfitter_cfg.c ****     #define CYALIGNED _Pragma("data_alignment=4")
  49:Generated_Source\PSoC4/cyfitter_cfg.c ****     #define CY_CFG_UNUSED _Pragma("diag_suppress=Pe177")
  50:Generated_Source\PSoC4/cyfitter_cfg.c ****     #define CY_CFG_SECTION _Pragma("location=\".psocinit\"")
  51:Generated_Source\PSoC4/cyfitter_cfg.c ****     
  52:Generated_Source\PSoC4/cyfitter_cfg.c ****     #define CY_CFG_MEMORY_BARRIER() __DMB()
  53:Generated_Source\PSoC4/cyfitter_cfg.c ****     
  54:Generated_Source\PSoC4/cyfitter_cfg.c **** #else
  55:Generated_Source\PSoC4/cyfitter_cfg.c ****     #error Unsupported toolchain
  56:Generated_Source\PSoC4/cyfitter_cfg.c **** #endif
  57:Generated_Source\PSoC4/cyfitter_cfg.c **** 
  58:Generated_Source\PSoC4/cyfitter_cfg.c **** #ifndef CYCODE
  59:Generated_Source\PSoC4/cyfitter_cfg.c ****     #define CYCODE
  60:Generated_Source\PSoC4/cyfitter_cfg.c **** #endif
  61:Generated_Source\PSoC4/cyfitter_cfg.c **** #ifndef CYDATA
  62:Generated_Source\PSoC4/cyfitter_cfg.c ****     #define CYDATA
  63:Generated_Source\PSoC4/cyfitter_cfg.c **** #endif
  64:Generated_Source\PSoC4/cyfitter_cfg.c **** #ifndef CYFAR
  65:Generated_Source\PSoC4/cyfitter_cfg.c ****     #define CYFAR
  66:Generated_Source\PSoC4/cyfitter_cfg.c **** #endif
  67:Generated_Source\PSoC4/cyfitter_cfg.c **** #ifndef CYXDATA
  68:Generated_Source\PSoC4/cyfitter_cfg.c ****     #define CYXDATA
  69:Generated_Source\PSoC4/cyfitter_cfg.c **** #endif
  70:Generated_Source\PSoC4/cyfitter_cfg.c **** 
  71:Generated_Source\PSoC4/cyfitter_cfg.c **** 
  72:Generated_Source\PSoC4/cyfitter_cfg.c **** CY_CFG_UNUSED
  73:Generated_Source\PSoC4/cyfitter_cfg.c **** static void CYMEMZERO(void *s, size_t n);
  74:Generated_Source\PSoC4/cyfitter_cfg.c **** CY_CFG_UNUSED
  75:Generated_Source\PSoC4/cyfitter_cfg.c **** static void CYMEMZERO(void *s, size_t n)
  76:Generated_Source\PSoC4/cyfitter_cfg.c **** {
  27              		.loc 1 76 0
  28              		.cfi_startproc
  29              		@ args = 0, pretend = 0, frame = 8
  30              		@ frame_needed = 1, uses_anonymous_args = 0
  31 0000 80B5     		push	{r7, lr}
  32              		.cfi_def_cfa_offset 8
  33              		.cfi_offset 7, -8
  34              		.cfi_offset 14, -4
  35 0002 82B0     		sub	sp, sp, #8
  36              		.cfi_def_cfa_offset 16
  37 0004 00AF     		add	r7, sp, #0
  38              		.cfi_def_cfa_register 7
ARM GAS  C:\Users\Xavier\AppData\Local\Temp\ccadZIMz.s 			page 3


  39 0006 7860     		str	r0, [r7, #4]
  40 0008 3960     		str	r1, [r7]
  77:Generated_Source\PSoC4/cyfitter_cfg.c **** 	(void)memset(s, 0, n);
  41              		.loc 1 77 0
  42 000a 3A68     		ldr	r2, [r7]
  43 000c 7B68     		ldr	r3, [r7, #4]
  44 000e 0021     		movs	r1, #0
  45 0010 1800     		movs	r0, r3
  46 0012 FFF7FEFF 		bl	memset
  78:Generated_Source\PSoC4/cyfitter_cfg.c **** }
  47              		.loc 1 78 0
  48 0016 C046     		nop
  49 0018 BD46     		mov	sp, r7
  50 001a 02B0     		add	sp, sp, #8
  51              		@ sp needed
  52 001c 80BD     		pop	{r7, pc}
  53              		.cfi_endproc
  54              	.LFE2:
  55              		.size	CYMEMZERO, .-CYMEMZERO
  56 001e C046     		.section	.text.CYCONFIGCPY,"ax",%progbits
  57              		.align	2
  58              		.code	16
  59              		.thumb_func
  60              		.type	CYCONFIGCPY, %function
  61              	CYCONFIGCPY:
  62              	.LFB3:
  79:Generated_Source\PSoC4/cyfitter_cfg.c **** CY_CFG_UNUSED
  80:Generated_Source\PSoC4/cyfitter_cfg.c **** static void CYCONFIGCPY(void *dest, const void *src, size_t n);
  81:Generated_Source\PSoC4/cyfitter_cfg.c **** CY_CFG_UNUSED
  82:Generated_Source\PSoC4/cyfitter_cfg.c **** static void CYCONFIGCPY(void *dest, const void *src, size_t n)
  83:Generated_Source\PSoC4/cyfitter_cfg.c **** {
  63              		.loc 1 83 0
  64              		.cfi_startproc
  65              		@ args = 0, pretend = 0, frame = 16
  66              		@ frame_needed = 1, uses_anonymous_args = 0
  67 0000 80B5     		push	{r7, lr}
  68              		.cfi_def_cfa_offset 8
  69              		.cfi_offset 7, -8
  70              		.cfi_offset 14, -4
  71 0002 84B0     		sub	sp, sp, #16
  72              		.cfi_def_cfa_offset 24
  73 0004 00AF     		add	r7, sp, #0
  74              		.cfi_def_cfa_register 7
  75 0006 F860     		str	r0, [r7, #12]
  76 0008 B960     		str	r1, [r7, #8]
  77 000a 7A60     		str	r2, [r7, #4]
  84:Generated_Source\PSoC4/cyfitter_cfg.c **** 	(void)memcpy(dest, src, n);
  78              		.loc 1 84 0
  79 000c 7A68     		ldr	r2, [r7, #4]
  80 000e B968     		ldr	r1, [r7, #8]
  81 0010 FB68     		ldr	r3, [r7, #12]
  82 0012 1800     		movs	r0, r3
  83 0014 FFF7FEFF 		bl	memcpy
  85:Generated_Source\PSoC4/cyfitter_cfg.c **** }
  84              		.loc 1 85 0
  85 0018 C046     		nop
  86 001a BD46     		mov	sp, r7
ARM GAS  C:\Users\Xavier\AppData\Local\Temp\ccadZIMz.s 			page 4


  87 001c 04B0     		add	sp, sp, #16
  88              		@ sp needed
  89 001e 80BD     		pop	{r7, pc}
  90              		.cfi_endproc
  91              	.LFE3:
  92              		.size	CYCONFIGCPY, .-CYCONFIGCPY
  93              		.section	.text.CYCONFIGCPYCODE,"ax",%progbits
  94              		.align	2
  95              		.code	16
  96              		.thumb_func
  97              		.type	CYCONFIGCPYCODE, %function
  98              	CYCONFIGCPYCODE:
  99              	.LFB4:
  86:Generated_Source\PSoC4/cyfitter_cfg.c **** CY_CFG_UNUSED
  87:Generated_Source\PSoC4/cyfitter_cfg.c **** static void CYCONFIGCPYCODE(void *dest, const void *src, size_t n);
  88:Generated_Source\PSoC4/cyfitter_cfg.c **** CY_CFG_UNUSED
  89:Generated_Source\PSoC4/cyfitter_cfg.c **** static void CYCONFIGCPYCODE(void *dest, const void *src, size_t n)
  90:Generated_Source\PSoC4/cyfitter_cfg.c **** {
 100              		.loc 1 90 0
 101              		.cfi_startproc
 102              		@ args = 0, pretend = 0, frame = 16
 103              		@ frame_needed = 1, uses_anonymous_args = 0
 104 0000 80B5     		push	{r7, lr}
 105              		.cfi_def_cfa_offset 8
 106              		.cfi_offset 7, -8
 107              		.cfi_offset 14, -4
 108 0002 84B0     		sub	sp, sp, #16
 109              		.cfi_def_cfa_offset 24
 110 0004 00AF     		add	r7, sp, #0
 111              		.cfi_def_cfa_register 7
 112 0006 F860     		str	r0, [r7, #12]
 113 0008 B960     		str	r1, [r7, #8]
 114 000a 7A60     		str	r2, [r7, #4]
  91:Generated_Source\PSoC4/cyfitter_cfg.c **** 	(void)memcpy(dest, src, n);
 115              		.loc 1 91 0
 116 000c 7A68     		ldr	r2, [r7, #4]
 117 000e B968     		ldr	r1, [r7, #8]
 118 0010 FB68     		ldr	r3, [r7, #12]
 119 0012 1800     		movs	r0, r3
 120 0014 FFF7FEFF 		bl	memcpy
  92:Generated_Source\PSoC4/cyfitter_cfg.c **** }
 121              		.loc 1 92 0
 122 0018 C046     		nop
 123 001a BD46     		mov	sp, r7
 124 001c 04B0     		add	sp, sp, #16
 125              		@ sp needed
 126 001e 80BD     		pop	{r7, pc}
 127              		.cfi_endproc
 128              	.LFE4:
 129              		.size	CYCONFIGCPYCODE, .-CYCONFIGCPYCODE
 130              		.section	.text.cfg_write_bytes32,"ax",%progbits
 131              		.align	2
 132              		.code	16
 133              		.thumb_func
 134              		.type	cfg_write_bytes32, %function
 135              	cfg_write_bytes32:
 136              	.LFB5:
ARM GAS  C:\Users\Xavier\AppData\Local\Temp\ccadZIMz.s 			page 5


  93:Generated_Source\PSoC4/cyfitter_cfg.c **** 
  94:Generated_Source\PSoC4/cyfitter_cfg.c **** 
  95:Generated_Source\PSoC4/cyfitter_cfg.c **** 
  96:Generated_Source\PSoC4/cyfitter_cfg.c **** 
  97:Generated_Source\PSoC4/cyfitter_cfg.c **** /* Clock startup error codes                                                   */
  98:Generated_Source\PSoC4/cyfitter_cfg.c **** #define CYCLOCKSTART_NO_ERROR    0u
  99:Generated_Source\PSoC4/cyfitter_cfg.c **** #define CYCLOCKSTART_XTAL_ERROR  1u
 100:Generated_Source\PSoC4/cyfitter_cfg.c **** #define CYCLOCKSTART_32KHZ_ERROR 2u
 101:Generated_Source\PSoC4/cyfitter_cfg.c **** #define CYCLOCKSTART_PLL_ERROR   3u
 102:Generated_Source\PSoC4/cyfitter_cfg.c **** #define CYCLOCKSTART_FLL_ERROR   4u
 103:Generated_Source\PSoC4/cyfitter_cfg.c **** #define CYCLOCKSTART_WCO_ERROR   5u
 104:Generated_Source\PSoC4/cyfitter_cfg.c **** 
 105:Generated_Source\PSoC4/cyfitter_cfg.c **** 
 106:Generated_Source\PSoC4/cyfitter_cfg.c **** #ifdef CY_NEED_CYCLOCKSTARTUPERROR
 107:Generated_Source\PSoC4/cyfitter_cfg.c **** /*******************************************************************************
 108:Generated_Source\PSoC4/cyfitter_cfg.c **** * Function Name: CyClockStartupError
 109:Generated_Source\PSoC4/cyfitter_cfg.c **** ********************************************************************************
 110:Generated_Source\PSoC4/cyfitter_cfg.c **** * Summary:
 111:Generated_Source\PSoC4/cyfitter_cfg.c **** *  If an error is encountered during clock configuration (crystal startup error,
 112:Generated_Source\PSoC4/cyfitter_cfg.c **** *  PLL lock error, etc.), the system will end up here.  Unless reimplemented by
 113:Generated_Source\PSoC4/cyfitter_cfg.c **** *  the customer, this function will stop in an infinite loop.
 114:Generated_Source\PSoC4/cyfitter_cfg.c **** *
 115:Generated_Source\PSoC4/cyfitter_cfg.c **** * Parameters:
 116:Generated_Source\PSoC4/cyfitter_cfg.c **** *   void
 117:Generated_Source\PSoC4/cyfitter_cfg.c **** *
 118:Generated_Source\PSoC4/cyfitter_cfg.c **** * Return:
 119:Generated_Source\PSoC4/cyfitter_cfg.c **** *   void
 120:Generated_Source\PSoC4/cyfitter_cfg.c **** *
 121:Generated_Source\PSoC4/cyfitter_cfg.c **** *******************************************************************************/
 122:Generated_Source\PSoC4/cyfitter_cfg.c **** CY_CFG_UNUSED
 123:Generated_Source\PSoC4/cyfitter_cfg.c **** static void CyClockStartupError(uint8 errorCode);
 124:Generated_Source\PSoC4/cyfitter_cfg.c **** CY_CFG_UNUSED
 125:Generated_Source\PSoC4/cyfitter_cfg.c **** static void CyClockStartupError(uint8 errorCode)
 126:Generated_Source\PSoC4/cyfitter_cfg.c **** {
 127:Generated_Source\PSoC4/cyfitter_cfg.c ****     /* To remove the compiler warning if errorCode not used.                */
 128:Generated_Source\PSoC4/cyfitter_cfg.c ****     errorCode = errorCode;
 129:Generated_Source\PSoC4/cyfitter_cfg.c **** 
 130:Generated_Source\PSoC4/cyfitter_cfg.c ****     /* If we have a clock startup error (bad MHz crystal, PLL lock, etc.),  */
 131:Generated_Source\PSoC4/cyfitter_cfg.c ****     /* we will end up here to allow the customer to implement something to  */
 132:Generated_Source\PSoC4/cyfitter_cfg.c ****     /* deal with the clock condition.                                       */
 133:Generated_Source\PSoC4/cyfitter_cfg.c **** 
 134:Generated_Source\PSoC4/cyfitter_cfg.c **** #ifdef CY_CFG_CLOCK_STARTUP_ERROR_CALLBACK
 135:Generated_Source\PSoC4/cyfitter_cfg.c ****     CY_CFG_Clock_Startup_ErrorCallback();
 136:Generated_Source\PSoC4/cyfitter_cfg.c **** #else
 137:Generated_Source\PSoC4/cyfitter_cfg.c ****     /*  If not using CY_CFG_CLOCK_STARTUP_ERROR_CALLBACK, place your clock startup code here. */
 138:Generated_Source\PSoC4/cyfitter_cfg.c ****     /* `#START CyClockStartupError` */
 139:Generated_Source\PSoC4/cyfitter_cfg.c **** 
 140:Generated_Source\PSoC4/cyfitter_cfg.c **** 
 141:Generated_Source\PSoC4/cyfitter_cfg.c **** 
 142:Generated_Source\PSoC4/cyfitter_cfg.c ****     /* `#END` */
 143:Generated_Source\PSoC4/cyfitter_cfg.c **** 
 144:Generated_Source\PSoC4/cyfitter_cfg.c ****     while(1) {}
 145:Generated_Source\PSoC4/cyfitter_cfg.c **** #endif /* CY_CFG_CLOCK_STARTUP_ERROR_CALLBACK */
 146:Generated_Source\PSoC4/cyfitter_cfg.c **** }
 147:Generated_Source\PSoC4/cyfitter_cfg.c **** #endif
 148:Generated_Source\PSoC4/cyfitter_cfg.c **** 
 149:Generated_Source\PSoC4/cyfitter_cfg.c **** #define CY_CFG_BASE_ADDR_COUNT 7u
ARM GAS  C:\Users\Xavier\AppData\Local\Temp\ccadZIMz.s 			page 6


 150:Generated_Source\PSoC4/cyfitter_cfg.c **** CYPACKED typedef struct
 151:Generated_Source\PSoC4/cyfitter_cfg.c **** {
 152:Generated_Source\PSoC4/cyfitter_cfg.c **** 	uint8 offset;
 153:Generated_Source\PSoC4/cyfitter_cfg.c **** 	uint8 value;
 154:Generated_Source\PSoC4/cyfitter_cfg.c **** } CYPACKED_ATTR cy_cfg_addrvalue_t;
 155:Generated_Source\PSoC4/cyfitter_cfg.c **** 
 156:Generated_Source\PSoC4/cyfitter_cfg.c **** 
 157:Generated_Source\PSoC4/cyfitter_cfg.c **** 
 158:Generated_Source\PSoC4/cyfitter_cfg.c **** /*******************************************************************************
 159:Generated_Source\PSoC4/cyfitter_cfg.c **** * Function Name: cfg_write_bytes32
 160:Generated_Source\PSoC4/cyfitter_cfg.c **** ********************************************************************************
 161:Generated_Source\PSoC4/cyfitter_cfg.c **** * Summary:
 162:Generated_Source\PSoC4/cyfitter_cfg.c **** *  This function is used for setting up the chip configuration areas that
 163:Generated_Source\PSoC4/cyfitter_cfg.c **** *  contain relatively sparse data.
 164:Generated_Source\PSoC4/cyfitter_cfg.c **** *
 165:Generated_Source\PSoC4/cyfitter_cfg.c **** * Parameters:
 166:Generated_Source\PSoC4/cyfitter_cfg.c **** *   void
 167:Generated_Source\PSoC4/cyfitter_cfg.c **** *
 168:Generated_Source\PSoC4/cyfitter_cfg.c **** * Return:
 169:Generated_Source\PSoC4/cyfitter_cfg.c **** *   void
 170:Generated_Source\PSoC4/cyfitter_cfg.c **** *
 171:Generated_Source\PSoC4/cyfitter_cfg.c **** *******************************************************************************/
 172:Generated_Source\PSoC4/cyfitter_cfg.c **** static void cfg_write_bytes32(const uint32 addr_table[], const cy_cfg_addrvalue_t data_table[]);
 173:Generated_Source\PSoC4/cyfitter_cfg.c **** static void cfg_write_bytes32(const uint32 addr_table[], const cy_cfg_addrvalue_t data_table[])
 174:Generated_Source\PSoC4/cyfitter_cfg.c **** {
 137              		.loc 1 174 0
 138              		.cfi_startproc
 139              		@ args = 0, pretend = 0, frame = 24
 140              		@ frame_needed = 1, uses_anonymous_args = 0
 141 0000 80B5     		push	{r7, lr}
 142              		.cfi_def_cfa_offset 8
 143              		.cfi_offset 7, -8
 144              		.cfi_offset 14, -4
 145 0002 86B0     		sub	sp, sp, #24
 146              		.cfi_def_cfa_offset 32
 147 0004 00AF     		add	r7, sp, #0
 148              		.cfi_def_cfa_register 7
 149 0006 7860     		str	r0, [r7, #4]
 150 0008 3960     		str	r1, [r7]
 175:Generated_Source\PSoC4/cyfitter_cfg.c **** 	/* For 32-bit little-endian architectures */
 176:Generated_Source\PSoC4/cyfitter_cfg.c **** 	uint32 i, j = 0u;
 151              		.loc 1 176 0
 152 000a 0023     		movs	r3, #0
 153 000c 3B61     		str	r3, [r7, #16]
 177:Generated_Source\PSoC4/cyfitter_cfg.c **** 	for (i = 0u; i < CY_CFG_BASE_ADDR_COUNT; i++)
 154              		.loc 1 177 0
 155 000e 0023     		movs	r3, #0
 156 0010 7B61     		str	r3, [r7, #20]
 157 0012 2FE0     		b	.L5
 158              	.L8:
 159              	.LBB2:
 178:Generated_Source\PSoC4/cyfitter_cfg.c **** 	{
 179:Generated_Source\PSoC4/cyfitter_cfg.c **** 		uint32 baseAddr = addr_table[i];
 160              		.loc 1 179 0
 161 0014 7B69     		ldr	r3, [r7, #20]
 162 0016 9B00     		lsls	r3, r3, #2
 163 0018 7A68     		ldr	r2, [r7, #4]
ARM GAS  C:\Users\Xavier\AppData\Local\Temp\ccadZIMz.s 			page 7


 164 001a D318     		adds	r3, r2, r3
 165 001c 1B68     		ldr	r3, [r3]
 166 001e BB60     		str	r3, [r7, #8]
 180:Generated_Source\PSoC4/cyfitter_cfg.c **** 		uint8 count = (uint8)baseAddr;
 167              		.loc 1 180 0
 168 0020 0F23     		movs	r3, #15
 169 0022 FB18     		adds	r3, r7, r3
 170 0024 BA68     		ldr	r2, [r7, #8]
 171 0026 1A70     		strb	r2, [r3]
 181:Generated_Source\PSoC4/cyfitter_cfg.c **** 		baseAddr &= 0xFFFFFF00u;
 172              		.loc 1 181 0
 173 0028 BB68     		ldr	r3, [r7, #8]
 174 002a FF22     		movs	r2, #255
 175 002c 9343     		bics	r3, r2
 176 002e BB60     		str	r3, [r7, #8]
 182:Generated_Source\PSoC4/cyfitter_cfg.c **** 		while (count != 0u)
 177              		.loc 1 182 0
 178 0030 18E0     		b	.L6
 179              	.L7:
 183:Generated_Source\PSoC4/cyfitter_cfg.c **** 		{
 184:Generated_Source\PSoC4/cyfitter_cfg.c **** 			CY_SET_REG8((void *)(baseAddr + data_table[j].offset), data_table[j].value);
 180              		.loc 1 184 0
 181 0032 3B69     		ldr	r3, [r7, #16]
 182 0034 5B00     		lsls	r3, r3, #1
 183 0036 3A68     		ldr	r2, [r7]
 184 0038 D318     		adds	r3, r2, r3
 185 003a 1B78     		ldrb	r3, [r3]
 186 003c 1A00     		movs	r2, r3
 187 003e BB68     		ldr	r3, [r7, #8]
 188 0040 D318     		adds	r3, r2, r3
 189 0042 1900     		movs	r1, r3
 190 0044 3B69     		ldr	r3, [r7, #16]
 191 0046 5B00     		lsls	r3, r3, #1
 192 0048 3A68     		ldr	r2, [r7]
 193 004a D318     		adds	r3, r2, r3
 194 004c 5B78     		ldrb	r3, [r3, #1]
 195 004e 0B70     		strb	r3, [r1]
 185:Generated_Source\PSoC4/cyfitter_cfg.c **** 			j++;
 196              		.loc 1 185 0
 197 0050 3B69     		ldr	r3, [r7, #16]
 198 0052 0133     		adds	r3, r3, #1
 199 0054 3B61     		str	r3, [r7, #16]
 186:Generated_Source\PSoC4/cyfitter_cfg.c **** 			count--;
 200              		.loc 1 186 0
 201 0056 0F23     		movs	r3, #15
 202 0058 FB18     		adds	r3, r7, r3
 203 005a 1A78     		ldrb	r2, [r3]
 204 005c 0F23     		movs	r3, #15
 205 005e FB18     		adds	r3, r7, r3
 206 0060 013A     		subs	r2, r2, #1
 207 0062 1A70     		strb	r2, [r3]
 208              	.L6:
 182:Generated_Source\PSoC4/cyfitter_cfg.c **** 		{
 209              		.loc 1 182 0
 210 0064 0F23     		movs	r3, #15
 211 0066 FB18     		adds	r3, r7, r3
 212 0068 1B78     		ldrb	r3, [r3]
ARM GAS  C:\Users\Xavier\AppData\Local\Temp\ccadZIMz.s 			page 8


 213 006a 002B     		cmp	r3, #0
 214 006c E1D1     		bne	.L7
 215              	.LBE2:
 177:Generated_Source\PSoC4/cyfitter_cfg.c **** 	{
 216              		.loc 1 177 0 discriminator 2
 217 006e 7B69     		ldr	r3, [r7, #20]
 218 0070 0133     		adds	r3, r3, #1
 219 0072 7B61     		str	r3, [r7, #20]
 220              	.L5:
 177:Generated_Source\PSoC4/cyfitter_cfg.c **** 	{
 221              		.loc 1 177 0 is_stmt 0 discriminator 1
 222 0074 7B69     		ldr	r3, [r7, #20]
 223 0076 062B     		cmp	r3, #6
 224 0078 CCD9     		bls	.L8
 187:Generated_Source\PSoC4/cyfitter_cfg.c **** 		}
 188:Generated_Source\PSoC4/cyfitter_cfg.c **** 	}
 189:Generated_Source\PSoC4/cyfitter_cfg.c **** }
 225              		.loc 1 189 0 is_stmt 1
 226 007a C046     		nop
 227 007c BD46     		mov	sp, r7
 228 007e 06B0     		add	sp, sp, #24
 229              		@ sp needed
 230 0080 80BD     		pop	{r7, pc}
 231              		.cfi_endproc
 232              	.LFE5:
 233              		.size	cfg_write_bytes32, .-cfg_write_bytes32
 234 0082 C046     		.section	.psocinit,"ax",%progbits
 235              		.align	2
 236              		.code	16
 237              		.thumb_func
 238              		.type	ClockSetup, %function
 239              	ClockSetup:
 240              	.LFB6:
 190:Generated_Source\PSoC4/cyfitter_cfg.c **** 
 191:Generated_Source\PSoC4/cyfitter_cfg.c **** 
 192:Generated_Source\PSoC4/cyfitter_cfg.c **** /*******************************************************************************
 193:Generated_Source\PSoC4/cyfitter_cfg.c **** * Function Name: ClockSetup
 194:Generated_Source\PSoC4/cyfitter_cfg.c **** ********************************************************************************
 195:Generated_Source\PSoC4/cyfitter_cfg.c **** *
 196:Generated_Source\PSoC4/cyfitter_cfg.c **** * Summary:
 197:Generated_Source\PSoC4/cyfitter_cfg.c **** *   Performs the initialization of all of the clocks in the device based on the
 198:Generated_Source\PSoC4/cyfitter_cfg.c **** *   settings in the Clock tab of the DWR.  This includes enabling the requested
 199:Generated_Source\PSoC4/cyfitter_cfg.c **** *   clocks and setting the necessary dividers to produce the desired frequency. 
 200:Generated_Source\PSoC4/cyfitter_cfg.c **** *
 201:Generated_Source\PSoC4/cyfitter_cfg.c **** * Parameters:
 202:Generated_Source\PSoC4/cyfitter_cfg.c **** *   void
 203:Generated_Source\PSoC4/cyfitter_cfg.c **** *
 204:Generated_Source\PSoC4/cyfitter_cfg.c **** * Return:
 205:Generated_Source\PSoC4/cyfitter_cfg.c **** *   void
 206:Generated_Source\PSoC4/cyfitter_cfg.c **** *
 207:Generated_Source\PSoC4/cyfitter_cfg.c **** *******************************************************************************/
 208:Generated_Source\PSoC4/cyfitter_cfg.c **** static void ClockSetup(void);
 209:Generated_Source\PSoC4/cyfitter_cfg.c **** CY_CFG_SECTION
 210:Generated_Source\PSoC4/cyfitter_cfg.c **** static void ClockSetup(void)
 211:Generated_Source\PSoC4/cyfitter_cfg.c **** {
 241              		.loc 1 211 0
 242              		.cfi_startproc
ARM GAS  C:\Users\Xavier\AppData\Local\Temp\ccadZIMz.s 			page 9


 243              		@ args = 0, pretend = 0, frame = 0
 244              		@ frame_needed = 1, uses_anonymous_args = 0
 245 0000 80B5     		push	{r7, lr}
 246              		.cfi_def_cfa_offset 8
 247              		.cfi_offset 7, -8
 248              		.cfi_offset 14, -4
 249 0002 00AF     		add	r7, sp, #0
 250              		.cfi_def_cfa_register 7
 212:Generated_Source\PSoC4/cyfitter_cfg.c **** 
 213:Generated_Source\PSoC4/cyfitter_cfg.c **** 	/* Set Flash Cycles based on max possible frequency in case a glitch occurs during ClockSetup(). *
 214:Generated_Source\PSoC4/cyfitter_cfg.c **** 	CY_SET_REG32((void CYXDATA *)(CYREG_CPUSS_FLASH_CTL), (0x0012u));
 251              		.loc 1 214 0
 252 0004 244B     		ldr	r3, .L10
 253 0006 1222     		movs	r2, #18
 254 0008 1A60     		str	r2, [r3]
 215:Generated_Source\PSoC4/cyfitter_cfg.c **** 
 216:Generated_Source\PSoC4/cyfitter_cfg.c **** 	/* Start the WCO */
 217:Generated_Source\PSoC4/cyfitter_cfg.c **** 	CySysClkWcoStart();
 255              		.loc 1 217 0
 256 000a FFF7FEFF 		bl	CySysClkWcoStart
 218:Generated_Source\PSoC4/cyfitter_cfg.c **** 	CyDelayCycles(12000000u); /* WCO may take up to 500ms to start */
 257              		.loc 1 218 0
 258 000e 234B     		ldr	r3, .L10+4
 259 0010 1800     		movs	r0, r3
 260 0012 FFF7FEFF 		bl	CyDelayCycles
 219:Generated_Source\PSoC4/cyfitter_cfg.c **** 	(void)CySysClkWcoSetPowerMode(CY_SYS_CLK_WCO_LPM);    /* Switch to the low power mode */
 261              		.loc 1 219 0
 262 0016 0120     		movs	r0, #1
 263 0018 FFF7FEFF 		bl	CySysClkWcoSetPowerMode
 220:Generated_Source\PSoC4/cyfitter_cfg.c **** 
 221:Generated_Source\PSoC4/cyfitter_cfg.c **** 	/* Setup and trim IMO based on desired frequency. */
 222:Generated_Source\PSoC4/cyfitter_cfg.c **** 	CySysClkWriteImoFreq(48u);
 264              		.loc 1 222 0
 265 001c 3020     		movs	r0, #48
 266 001e FFF7FEFF 		bl	CySysClkWriteImoFreq
 223:Generated_Source\PSoC4/cyfitter_cfg.c **** 	/* CYDEV_CLK_ILO_CONFIG Starting address: CYDEV_CLK_ILO_CONFIG */
 224:Generated_Source\PSoC4/cyfitter_cfg.c **** 	CY_SET_REG32((void *)(CYREG_CLK_ILO_CONFIG), 0x80000006u);
 267              		.loc 1 224 0
 268 0022 1F4B     		ldr	r3, .L10+8
 269 0024 1F4A     		ldr	r2, .L10+12
 270 0026 1A60     		str	r2, [r3]
 225:Generated_Source\PSoC4/cyfitter_cfg.c **** 
 226:Generated_Source\PSoC4/cyfitter_cfg.c **** 	/* CYDEV_WDT_CONFIG Starting address: CYDEV_WDT_CONFIG */
 227:Generated_Source\PSoC4/cyfitter_cfg.c **** 	CY_SET_REG32((void *)(CYREG_WDT_CONFIG), 0x40000000u);
 271              		.loc 1 227 0
 272 0028 1F4B     		ldr	r3, .L10+16
 273 002a 8022     		movs	r2, #128
 274 002c D205     		lsls	r2, r2, #23
 275 002e 1A60     		str	r2, [r3]
 228:Generated_Source\PSoC4/cyfitter_cfg.c **** 
 229:Generated_Source\PSoC4/cyfitter_cfg.c **** 
 230:Generated_Source\PSoC4/cyfitter_cfg.c **** 	/* Enable fast start mode for XO */
 231:Generated_Source\PSoC4/cyfitter_cfg.c **** 	CY_SET_REG32((void*)CYREG_BLE_BLERD_BB_XO, CY_GET_REG32((void*)CYREG_BLE_BLERD_BB_XO) | (uint32)0x
 276              		.loc 1 231 0
 277 0030 1E4B     		ldr	r3, .L10+20
 278 0032 1E4A     		ldr	r2, .L10+20
 279 0034 1268     		ldr	r2, [r2]
ARM GAS  C:\Users\Xavier\AppData\Local\Temp\ccadZIMz.s 			page 10


 280 0036 0221     		movs	r1, #2
 281 0038 0A43     		orrs	r2, r1
 282 003a 1A60     		str	r2, [r3]
 232:Generated_Source\PSoC4/cyfitter_cfg.c **** 	CY_SET_REG32((void *)(CYREG_BLE_BLERD_BB_XO_CAPTRIM), 0x00002D6Au);
 283              		.loc 1 232 0
 284 003c 1C4B     		ldr	r3, .L10+24
 285 003e 1D4A     		ldr	r2, .L10+28
 286 0040 1A60     		str	r2, [r3]
 233:Generated_Source\PSoC4/cyfitter_cfg.c **** 	/*Set XTAL(ECO) divider*/
 234:Generated_Source\PSoC4/cyfitter_cfg.c **** 	CY_SET_REG32((void *)(CYREG_BLE_BLESS_XTAL_CLK_DIV_CONFIG), 0x00000000u);
 287              		.loc 1 234 0
 288 0042 1D4B     		ldr	r3, .L10+32
 289 0044 0022     		movs	r2, #0
 290 0046 1A60     		str	r2, [r3]
 235:Generated_Source\PSoC4/cyfitter_cfg.c **** 	/* Disable Crystal Stable Interrupt before enabling ECO */
 236:Generated_Source\PSoC4/cyfitter_cfg.c **** 	CY_SET_REG32((void*)CYREG_BLE_BLESS_LL_DSM_CTRL, CY_GET_REG32((void*)CYREG_BLE_BLESS_LL_DSM_CTRL) 
 291              		.loc 1 236 0
 292 0048 1C4B     		ldr	r3, .L10+36
 293 004a 1C4A     		ldr	r2, .L10+36
 294 004c 1268     		ldr	r2, [r2]
 295 004e 0821     		movs	r1, #8
 296 0050 8A43     		bics	r2, r1
 297 0052 1A60     		str	r2, [r3]
 237:Generated_Source\PSoC4/cyfitter_cfg.c **** 	/* Start the ECO and do not check status since it is not needed for HFCLK */
 238:Generated_Source\PSoC4/cyfitter_cfg.c **** 	(void)CySysClkEcoStart(2000u);
 298              		.loc 1 238 0
 299 0054 FA23     		movs	r3, #250
 300 0056 DB00     		lsls	r3, r3, #3
 301 0058 1800     		movs	r0, r3
 302 005a FFF7FEFF 		bl	CySysClkEcoStart
 239:Generated_Source\PSoC4/cyfitter_cfg.c **** 	CyDelayUs(1500u); /* Wait to stabilize */
 303              		.loc 1 239 0
 304 005e 184B     		ldr	r3, .L10+40
 305 0060 1800     		movs	r0, r3
 306 0062 FFF7FEFF 		bl	CyDelayUs
 240:Generated_Source\PSoC4/cyfitter_cfg.c **** 
 241:Generated_Source\PSoC4/cyfitter_cfg.c **** 	/* Setup phase aligned clocks */
 242:Generated_Source\PSoC4/cyfitter_cfg.c **** 	CY_SET_REG32((void *)CYREG_PERI_DIV_16_CTL0, 0x00001700u);
 307              		.loc 1 242 0
 308 0066 174B     		ldr	r3, .L10+44
 309 0068 B822     		movs	r2, #184
 310 006a 5201     		lsls	r2, r2, #5
 311 006c 1A60     		str	r2, [r3]
 243:Generated_Source\PSoC4/cyfitter_cfg.c **** 	CY_SET_REG32((void *)CYREG_PERI_DIV_CMD, 0x8000FF40u);
 312              		.loc 1 243 0
 313 006e 164B     		ldr	r3, .L10+48
 314 0070 164A     		ldr	r2, .L10+52
 315 0072 1A60     		str	r2, [r3]
 244:Generated_Source\PSoC4/cyfitter_cfg.c **** 
 245:Generated_Source\PSoC4/cyfitter_cfg.c **** 	/* CYDEV_CLK_IMO_CONFIG Starting address: CYDEV_CLK_IMO_CONFIG */
 246:Generated_Source\PSoC4/cyfitter_cfg.c **** 	CY_SET_REG32((void *)(CYREG_CLK_IMO_CONFIG), 0x80000000u);
 316              		.loc 1 246 0
 317 0074 164B     		ldr	r3, .L10+56
 318 0076 8022     		movs	r2, #128
 319 0078 1206     		lsls	r2, r2, #24
 320 007a 1A60     		str	r2, [r3]
 247:Generated_Source\PSoC4/cyfitter_cfg.c **** 
ARM GAS  C:\Users\Xavier\AppData\Local\Temp\ccadZIMz.s 			page 11


 248:Generated_Source\PSoC4/cyfitter_cfg.c **** 	/* CYDEV_CLK_SELECT Starting address: CYDEV_CLK_SELECT */
 249:Generated_Source\PSoC4/cyfitter_cfg.c **** 	CY_SET_REG32((void *)(CYREG_CLK_SELECT), 0x00080000u);
 321              		.loc 1 249 0
 322 007c 154B     		ldr	r3, .L10+60
 323 007e 8022     		movs	r2, #128
 324 0080 1203     		lsls	r2, r2, #12
 325 0082 1A60     		str	r2, [r3]
 250:Generated_Source\PSoC4/cyfitter_cfg.c **** 
 251:Generated_Source\PSoC4/cyfitter_cfg.c **** 	/* CYDEV_PERI_PCLK_CTL11 Starting address: CYDEV_PERI_PCLK_CTL11 */
 252:Generated_Source\PSoC4/cyfitter_cfg.c **** 	CY_SET_REG32((void *)(CYREG_PERI_PCLK_CTL11), 0x00000040u);
 326              		.loc 1 252 0
 327 0084 144B     		ldr	r3, .L10+64
 328 0086 4022     		movs	r2, #64
 329 0088 1A60     		str	r2, [r3]
 253:Generated_Source\PSoC4/cyfitter_cfg.c **** 
 254:Generated_Source\PSoC4/cyfitter_cfg.c **** 	CY_SET_REG32((void *)(CYREG_WDT_CONFIG), 0x40000000u);
 330              		.loc 1 254 0
 331 008a 074B     		ldr	r3, .L10+16
 332 008c 8022     		movs	r2, #128
 333 008e D205     		lsls	r2, r2, #23
 334 0090 1A60     		str	r2, [r3]
 255:Generated_Source\PSoC4/cyfitter_cfg.c **** }
 335              		.loc 1 255 0
 336 0092 C046     		nop
 337 0094 BD46     		mov	sp, r7
 338              		@ sp needed
 339 0096 80BD     		pop	{r7, pc}
 340              	.L11:
 341              		.align	2
 342              	.L10:
 343 0098 30001040 		.word	1074790448
 344 009c 001BB700 		.word	12000000
 345 00a0 04010B40 		.word	1074462980
 346 00a4 06000080 		.word	-2147483642
 347 00a8 0C020B40 		.word	1074463244
 348 00ac 78002E40 		.word	1076756600
 349 00b0 7C002E40 		.word	1076756604
 350 00b4 6A2D0000 		.word	11626
 351 00b8 64F02E40 		.word	1076818020
 352 00bc 6CF02E40 		.word	1076818028
 353 00c0 DC050000 		.word	1500
 354 00c4 00030140 		.word	1073808128
 355 00c8 00000140 		.word	1073807360
 356 00cc 40FF0080 		.word	-2147418304
 357 00d0 08010B40 		.word	1074462984
 358 00d4 00010B40 		.word	1074462976
 359 00d8 2C010140 		.word	1073807660
 360              		.cfi_endproc
 361              	.LFE6:
 362              		.size	ClockSetup, .-ClockSetup
 363              		.section	.text.AnalogSetDefault,"ax",%progbits
 364              		.align	2
 365              		.code	16
 366              		.thumb_func
 367              		.type	AnalogSetDefault, %function
 368              	AnalogSetDefault:
 369              	.LFB7:
ARM GAS  C:\Users\Xavier\AppData\Local\Temp\ccadZIMz.s 			page 12


 256:Generated_Source\PSoC4/cyfitter_cfg.c **** 
 257:Generated_Source\PSoC4/cyfitter_cfg.c **** 
 258:Generated_Source\PSoC4/cyfitter_cfg.c **** /* Analog API Functions */
 259:Generated_Source\PSoC4/cyfitter_cfg.c **** 
 260:Generated_Source\PSoC4/cyfitter_cfg.c **** 
 261:Generated_Source\PSoC4/cyfitter_cfg.c **** /*******************************************************************************
 262:Generated_Source\PSoC4/cyfitter_cfg.c **** * Function Name: AnalogSetDefault
 263:Generated_Source\PSoC4/cyfitter_cfg.c **** ********************************************************************************
 264:Generated_Source\PSoC4/cyfitter_cfg.c **** *
 265:Generated_Source\PSoC4/cyfitter_cfg.c **** * Summary:
 266:Generated_Source\PSoC4/cyfitter_cfg.c **** *  Sets up the analog portions of the chip to default values based on chip
 267:Generated_Source\PSoC4/cyfitter_cfg.c **** *  configuration options from the project.
 268:Generated_Source\PSoC4/cyfitter_cfg.c **** *
 269:Generated_Source\PSoC4/cyfitter_cfg.c **** * Parameters:
 270:Generated_Source\PSoC4/cyfitter_cfg.c **** *  void
 271:Generated_Source\PSoC4/cyfitter_cfg.c **** *
 272:Generated_Source\PSoC4/cyfitter_cfg.c **** * Return:
 273:Generated_Source\PSoC4/cyfitter_cfg.c **** *  void
 274:Generated_Source\PSoC4/cyfitter_cfg.c **** *
 275:Generated_Source\PSoC4/cyfitter_cfg.c **** *******************************************************************************/
 276:Generated_Source\PSoC4/cyfitter_cfg.c **** static void AnalogSetDefault(void);
 277:Generated_Source\PSoC4/cyfitter_cfg.c **** static void AnalogSetDefault(void)
 278:Generated_Source\PSoC4/cyfitter_cfg.c **** {
 370              		.loc 1 278 0
 371              		.cfi_startproc
 372              		@ args = 0, pretend = 0, frame = 0
 373              		@ frame_needed = 1, uses_anonymous_args = 0
 374 0000 80B5     		push	{r7, lr}
 375              		.cfi_def_cfa_offset 8
 376              		.cfi_offset 7, -8
 377              		.cfi_offset 14, -4
 378 0002 00AF     		add	r7, sp, #0
 379              		.cfi_def_cfa_register 7
 279:Generated_Source\PSoC4/cyfitter_cfg.c **** 	CY_SET_XTND_REG32((void CYFAR *)CYREG_CTBM0_DFT_CTRL, 0x00000003u);
 380              		.loc 1 279 0
 381 0004 054B     		ldr	r3, .L13
 382 0006 0322     		movs	r2, #3
 383 0008 1A60     		str	r2, [r3]
 280:Generated_Source\PSoC4/cyfitter_cfg.c **** 	CY_SET_XTND_REG32((void CYFAR *)CYREG_CTBM1_DFT_CTRL, 0x00000003u);
 384              		.loc 1 280 0
 385 000a 054B     		ldr	r3, .L13+4
 386 000c 0322     		movs	r2, #3
 387 000e 1A60     		str	r2, [r3]
 281:Generated_Source\PSoC4/cyfitter_cfg.c **** 	CY_SET_XTND_REG32((void CYFAR *)CYREG_PASS_DSAB_DSAB_CTRL, 0x00000000u);
 388              		.loc 1 281 0
 389 0010 044B     		ldr	r3, .L13+8
 390 0012 0022     		movs	r2, #0
 391 0014 1A60     		str	r2, [r3]
 282:Generated_Source\PSoC4/cyfitter_cfg.c **** }
 392              		.loc 1 282 0
 393 0016 C046     		nop
 394 0018 BD46     		mov	sp, r7
 395              		@ sp needed
 396 001a 80BD     		pop	{r7, pc}
 397              	.L14:
 398              		.align	2
 399              	.L13:
ARM GAS  C:\Users\Xavier\AppData\Local\Temp\ccadZIMz.s 			page 13


 400 001c 30003040 		.word	1076887600
 401 0020 30003140 		.word	1076953136
 402 0024 000E3F40 		.word	1077874176
 403              		.cfi_endproc
 404              	.LFE7:
 405              		.size	AnalogSetDefault, .-AnalogSetDefault
 406              		.section	.psocinit
 407              		.align	2
 408              		.global	cyfitter_cfg
 409              		.code	16
 410              		.thumb_func
 411              		.type	cyfitter_cfg, %function
 412              	cyfitter_cfg:
 413              	.LFB8:
 283:Generated_Source\PSoC4/cyfitter_cfg.c **** 
 284:Generated_Source\PSoC4/cyfitter_cfg.c **** 
 285:Generated_Source\PSoC4/cyfitter_cfg.c **** 
 286:Generated_Source\PSoC4/cyfitter_cfg.c **** 
 287:Generated_Source\PSoC4/cyfitter_cfg.c **** /*******************************************************************************
 288:Generated_Source\PSoC4/cyfitter_cfg.c **** * Function Name: cyfitter_cfg
 289:Generated_Source\PSoC4/cyfitter_cfg.c **** ********************************************************************************
 290:Generated_Source\PSoC4/cyfitter_cfg.c **** * Summary:
 291:Generated_Source\PSoC4/cyfitter_cfg.c **** *  This function is called by the start-up code for the selected device. It
 292:Generated_Source\PSoC4/cyfitter_cfg.c **** *  performs all of the necessary device configuration based on the design
 293:Generated_Source\PSoC4/cyfitter_cfg.c **** *  settings.  This includes settings from the Design Wide Resources (DWR) such
 294:Generated_Source\PSoC4/cyfitter_cfg.c **** *  as Clocks and Pins as well as any component configuration that is necessary.
 295:Generated_Source\PSoC4/cyfitter_cfg.c **** *
 296:Generated_Source\PSoC4/cyfitter_cfg.c **** * Parameters:
 297:Generated_Source\PSoC4/cyfitter_cfg.c **** *   void
 298:Generated_Source\PSoC4/cyfitter_cfg.c **** *
 299:Generated_Source\PSoC4/cyfitter_cfg.c **** * Return:
 300:Generated_Source\PSoC4/cyfitter_cfg.c **** *   void
 301:Generated_Source\PSoC4/cyfitter_cfg.c **** *
 302:Generated_Source\PSoC4/cyfitter_cfg.c **** *******************************************************************************/
 303:Generated_Source\PSoC4/cyfitter_cfg.c **** CY_CFG_SECTION
 304:Generated_Source\PSoC4/cyfitter_cfg.c **** void cyfitter_cfg(void)
 305:Generated_Source\PSoC4/cyfitter_cfg.c **** {
 414              		.loc 1 305 0
 415              		.cfi_startproc
 416              		@ args = 0, pretend = 0, frame = 24
 417              		@ frame_needed = 1, uses_anonymous_args = 0
 418 00dc 80B5     		push	{r7, lr}
 419              		.cfi_def_cfa_offset 8
 420              		.cfi_offset 7, -8
 421              		.cfi_offset 14, -4
 422 00de 86B0     		sub	sp, sp, #24
 423              		.cfi_def_cfa_offset 32
 424 00e0 00AF     		add	r7, sp, #0
 425              		.cfi_def_cfa_register 7
 306:Generated_Source\PSoC4/cyfitter_cfg.c **** 	/* Disable interrupts by default. Let user enable if/when they want. */
 307:Generated_Source\PSoC4/cyfitter_cfg.c **** 	CyGlobalIntDisable;
 426              		.loc 1 307 0
 427              		.syntax divided
 428              	@ 307 "Generated_Source\PSoC4\cyfitter_cfg.c" 1
 429 00e2 72B6     		CPSID   i
 430              	@ 0 "" 2
 308:Generated_Source\PSoC4/cyfitter_cfg.c **** 
ARM GAS  C:\Users\Xavier\AppData\Local\Temp\ccadZIMz.s 			page 14


 309:Generated_Source\PSoC4/cyfitter_cfg.c **** 	CY_SET_REG32((void *)(CYREG_BLE_BLESS_LL_DSM_CTRL), 0x00000000u);
 431              		.loc 1 309 0
 432              		.thumb
 433              		.syntax unified
 434 00e4 644B     		ldr	r3, .L20
 435 00e6 0022     		movs	r2, #0
 436 00e8 1A60     		str	r2, [r3]
 437              	.LBB3:
 310:Generated_Source\PSoC4/cyfitter_cfg.c **** 
 311:Generated_Source\PSoC4/cyfitter_cfg.c **** 	{
 312:Generated_Source\PSoC4/cyfitter_cfg.c **** 		static const uint32 CYCODE cy_cfg_addr_table[] = {
 313:Generated_Source\PSoC4/cyfitter_cfg.c **** 			0x400F0001u, /* Base address: 0x400F0000 Count: 1 */
 314:Generated_Source\PSoC4/cyfitter_cfg.c **** 			0x400F302Fu, /* Base address: 0x400F3000 Count: 47 */
 315:Generated_Source\PSoC4/cyfitter_cfg.c **** 			0x400F3125u, /* Base address: 0x400F3100 Count: 37 */
 316:Generated_Source\PSoC4/cyfitter_cfg.c **** 			0x400F3337u, /* Base address: 0x400F3300 Count: 55 */
 317:Generated_Source\PSoC4/cyfitter_cfg.c **** 			0x400F4006u, /* Base address: 0x400F4000 Count: 6 */
 318:Generated_Source\PSoC4/cyfitter_cfg.c **** 			0x400F4106u, /* Base address: 0x400F4100 Count: 6 */
 319:Generated_Source\PSoC4/cyfitter_cfg.c **** 			0x400F6002u, /* Base address: 0x400F6000 Count: 2 */
 320:Generated_Source\PSoC4/cyfitter_cfg.c **** 		};
 321:Generated_Source\PSoC4/cyfitter_cfg.c **** 
 322:Generated_Source\PSoC4/cyfitter_cfg.c **** 		static const cy_cfg_addrvalue_t CYCODE cy_cfg_data_table[] = {
 323:Generated_Source\PSoC4/cyfitter_cfg.c **** 			{0x81u, 0x0Fu},
 324:Generated_Source\PSoC4/cyfitter_cfg.c **** 			{0x54u, 0x40u},
 325:Generated_Source\PSoC4/cyfitter_cfg.c **** 			{0x5Bu, 0x04u},
 326:Generated_Source\PSoC4/cyfitter_cfg.c **** 			{0x5Fu, 0x01u},
 327:Generated_Source\PSoC4/cyfitter_cfg.c **** 			{0x80u, 0x68u},
 328:Generated_Source\PSoC4/cyfitter_cfg.c **** 			{0x81u, 0x70u},
 329:Generated_Source\PSoC4/cyfitter_cfg.c **** 			{0x84u, 0x16u},
 330:Generated_Source\PSoC4/cyfitter_cfg.c **** 			{0x85u, 0x70u},
 331:Generated_Source\PSoC4/cyfitter_cfg.c **** 			{0x86u, 0x41u},
 332:Generated_Source\PSoC4/cyfitter_cfg.c **** 			{0x88u, 0x12u},
 333:Generated_Source\PSoC4/cyfitter_cfg.c **** 			{0x89u, 0x02u},
 334:Generated_Source\PSoC4/cyfitter_cfg.c **** 			{0x8Au, 0x24u},
 335:Generated_Source\PSoC4/cyfitter_cfg.c **** 			{0x8Bu, 0x1Du},
 336:Generated_Source\PSoC4/cyfitter_cfg.c **** 			{0x8Eu, 0x03u},
 337:Generated_Source\PSoC4/cyfitter_cfg.c **** 			{0x8Fu, 0x70u},
 338:Generated_Source\PSoC4/cyfitter_cfg.c **** 			{0x90u, 0x10u},
 339:Generated_Source\PSoC4/cyfitter_cfg.c **** 			{0x91u, 0x83u},
 340:Generated_Source\PSoC4/cyfitter_cfg.c **** 			{0x92u, 0x68u},
 341:Generated_Source\PSoC4/cyfitter_cfg.c **** 			{0x93u, 0x0Cu},
 342:Generated_Source\PSoC4/cyfitter_cfg.c **** 			{0x94u, 0x0Du},
 343:Generated_Source\PSoC4/cyfitter_cfg.c **** 			{0x95u, 0x81u},
 344:Generated_Source\PSoC4/cyfitter_cfg.c **** 			{0x96u, 0x12u},
 345:Generated_Source\PSoC4/cyfitter_cfg.c **** 			{0x97u, 0x1Au},
 346:Generated_Source\PSoC4/cyfitter_cfg.c **** 			{0x98u, 0x68u},
 347:Generated_Source\PSoC4/cyfitter_cfg.c **** 			{0x99u, 0x03u},
 348:Generated_Source\PSoC4/cyfitter_cfg.c **** 			{0x9Bu, 0x94u},
 349:Generated_Source\PSoC4/cyfitter_cfg.c **** 			{0x9Eu, 0x04u},
 350:Generated_Source\PSoC4/cyfitter_cfg.c **** 			{0xA0u, 0x68u},
 351:Generated_Source\PSoC4/cyfitter_cfg.c **** 			{0xA7u, 0x40u},
 352:Generated_Source\PSoC4/cyfitter_cfg.c **** 			{0xA8u, 0x68u},
 353:Generated_Source\PSoC4/cyfitter_cfg.c **** 			{0xA9u, 0x70u},
 354:Generated_Source\PSoC4/cyfitter_cfg.c **** 			{0xACu, 0x68u},
 355:Generated_Source\PSoC4/cyfitter_cfg.c **** 			{0xADu, 0x70u},
 356:Generated_Source\PSoC4/cyfitter_cfg.c **** 			{0xB0u, 0x78u},
 357:Generated_Source\PSoC4/cyfitter_cfg.c **** 			{0xB1u, 0x80u},
 358:Generated_Source\PSoC4/cyfitter_cfg.c **** 			{0xB3u, 0x40u},
ARM GAS  C:\Users\Xavier\AppData\Local\Temp\ccadZIMz.s 			page 15


 359:Generated_Source\PSoC4/cyfitter_cfg.c **** 			{0xB5u, 0x1Fu},
 360:Generated_Source\PSoC4/cyfitter_cfg.c **** 			{0xB6u, 0x07u},
 361:Generated_Source\PSoC4/cyfitter_cfg.c **** 			{0xB7u, 0x20u},
 362:Generated_Source\PSoC4/cyfitter_cfg.c **** 			{0xBAu, 0x02u},
 363:Generated_Source\PSoC4/cyfitter_cfg.c **** 			{0xBBu, 0x20u},
 364:Generated_Source\PSoC4/cyfitter_cfg.c **** 			{0xBFu, 0x44u},
 365:Generated_Source\PSoC4/cyfitter_cfg.c **** 			{0xD6u, 0x02u},
 366:Generated_Source\PSoC4/cyfitter_cfg.c **** 			{0xD7u, 0x28u},
 367:Generated_Source\PSoC4/cyfitter_cfg.c **** 			{0xD8u, 0x04u},
 368:Generated_Source\PSoC4/cyfitter_cfg.c **** 			{0xD9u, 0x04u},
 369:Generated_Source\PSoC4/cyfitter_cfg.c **** 			{0xDBu, 0x04u},
 370:Generated_Source\PSoC4/cyfitter_cfg.c **** 			{0xDFu, 0x01u},
 371:Generated_Source\PSoC4/cyfitter_cfg.c **** 			{0x04u, 0x02u},
 372:Generated_Source\PSoC4/cyfitter_cfg.c **** 			{0x05u, 0x50u},
 373:Generated_Source\PSoC4/cyfitter_cfg.c **** 			{0x07u, 0x20u},
 374:Generated_Source\PSoC4/cyfitter_cfg.c **** 			{0x0Eu, 0x64u},
 375:Generated_Source\PSoC4/cyfitter_cfg.c **** 			{0x0Fu, 0x02u},
 376:Generated_Source\PSoC4/cyfitter_cfg.c **** 			{0x15u, 0x11u},
 377:Generated_Source\PSoC4/cyfitter_cfg.c **** 			{0x16u, 0x02u},
 378:Generated_Source\PSoC4/cyfitter_cfg.c **** 			{0x1Du, 0x40u},
 379:Generated_Source\PSoC4/cyfitter_cfg.c **** 			{0x1Eu, 0x40u},
 380:Generated_Source\PSoC4/cyfitter_cfg.c **** 			{0x24u, 0x51u},
 381:Generated_Source\PSoC4/cyfitter_cfg.c **** 			{0x25u, 0x30u},
 382:Generated_Source\PSoC4/cyfitter_cfg.c **** 			{0x27u, 0x01u},
 383:Generated_Source\PSoC4/cyfitter_cfg.c **** 			{0x2Du, 0x80u},
 384:Generated_Source\PSoC4/cyfitter_cfg.c **** 			{0x2Fu, 0x28u},
 385:Generated_Source\PSoC4/cyfitter_cfg.c **** 			{0x35u, 0x11u},
 386:Generated_Source\PSoC4/cyfitter_cfg.c **** 			{0x36u, 0x08u},
 387:Generated_Source\PSoC4/cyfitter_cfg.c **** 			{0x3Du, 0xA0u},
 388:Generated_Source\PSoC4/cyfitter_cfg.c **** 			{0x3Eu, 0x05u},
 389:Generated_Source\PSoC4/cyfitter_cfg.c **** 			{0x45u, 0x20u},
 390:Generated_Source\PSoC4/cyfitter_cfg.c **** 			{0x46u, 0x08u},
 391:Generated_Source\PSoC4/cyfitter_cfg.c **** 			{0x60u, 0x10u},
 392:Generated_Source\PSoC4/cyfitter_cfg.c **** 			{0x62u, 0x80u},
 393:Generated_Source\PSoC4/cyfitter_cfg.c **** 			{0x63u, 0x08u},
 394:Generated_Source\PSoC4/cyfitter_cfg.c **** 			{0x66u, 0x08u},
 395:Generated_Source\PSoC4/cyfitter_cfg.c **** 			{0x6Cu, 0x01u},
 396:Generated_Source\PSoC4/cyfitter_cfg.c **** 			{0x6Du, 0x95u},
 397:Generated_Source\PSoC4/cyfitter_cfg.c **** 			{0x6Eu, 0x17u},
 398:Generated_Source\PSoC4/cyfitter_cfg.c **** 			{0x6Fu, 0x08u},
 399:Generated_Source\PSoC4/cyfitter_cfg.c **** 			{0x75u, 0x80u},
 400:Generated_Source\PSoC4/cyfitter_cfg.c **** 			{0x76u, 0x02u},
 401:Generated_Source\PSoC4/cyfitter_cfg.c **** 			{0xC0u, 0xF0u},
 402:Generated_Source\PSoC4/cyfitter_cfg.c **** 			{0xC2u, 0xF0u},
 403:Generated_Source\PSoC4/cyfitter_cfg.c **** 			{0xC4u, 0xD0u},
 404:Generated_Source\PSoC4/cyfitter_cfg.c **** 			{0xCAu, 0x70u},
 405:Generated_Source\PSoC4/cyfitter_cfg.c **** 			{0xCCu, 0xE0u},
 406:Generated_Source\PSoC4/cyfitter_cfg.c **** 			{0xCEu, 0xF0u},
 407:Generated_Source\PSoC4/cyfitter_cfg.c **** 			{0xD8u, 0x4Eu},
 408:Generated_Source\PSoC4/cyfitter_cfg.c **** 			{0x04u, 0x02u},
 409:Generated_Source\PSoC4/cyfitter_cfg.c **** 			{0x05u, 0x94u},
 410:Generated_Source\PSoC4/cyfitter_cfg.c **** 			{0x0Eu, 0x11u},
 411:Generated_Source\PSoC4/cyfitter_cfg.c **** 			{0x15u, 0x05u},
 412:Generated_Source\PSoC4/cyfitter_cfg.c **** 			{0x17u, 0x20u},
 413:Generated_Source\PSoC4/cyfitter_cfg.c **** 			{0x1Du, 0x7Du},
 414:Generated_Source\PSoC4/cyfitter_cfg.c **** 			{0x1Eu, 0x20u},
 415:Generated_Source\PSoC4/cyfitter_cfg.c **** 			{0x1Fu, 0x10u},
ARM GAS  C:\Users\Xavier\AppData\Local\Temp\ccadZIMz.s 			page 16


 416:Generated_Source\PSoC4/cyfitter_cfg.c **** 			{0x25u, 0x10u},
 417:Generated_Source\PSoC4/cyfitter_cfg.c **** 			{0x26u, 0x48u},
 418:Generated_Source\PSoC4/cyfitter_cfg.c **** 			{0x27u, 0x20u},
 419:Generated_Source\PSoC4/cyfitter_cfg.c **** 			{0x2Du, 0x80u},
 420:Generated_Source\PSoC4/cyfitter_cfg.c **** 			{0x2Eu, 0x10u},
 421:Generated_Source\PSoC4/cyfitter_cfg.c **** 			{0x2Fu, 0x10u},
 422:Generated_Source\PSoC4/cyfitter_cfg.c **** 			{0x36u, 0x19u},
 423:Generated_Source\PSoC4/cyfitter_cfg.c **** 			{0x3Du, 0xA5u},
 424:Generated_Source\PSoC4/cyfitter_cfg.c **** 			{0x45u, 0x28u},
 425:Generated_Source\PSoC4/cyfitter_cfg.c **** 			{0x47u, 0x01u},
 426:Generated_Source\PSoC4/cyfitter_cfg.c **** 			{0x4Du, 0x49u},
 427:Generated_Source\PSoC4/cyfitter_cfg.c **** 			{0x4Eu, 0x08u},
 428:Generated_Source\PSoC4/cyfitter_cfg.c **** 			{0x57u, 0x25u},
 429:Generated_Source\PSoC4/cyfitter_cfg.c **** 			{0x5Cu, 0x01u},
 430:Generated_Source\PSoC4/cyfitter_cfg.c **** 			{0x5Du, 0x08u},
 431:Generated_Source\PSoC4/cyfitter_cfg.c **** 			{0x5Eu, 0x80u},
 432:Generated_Source\PSoC4/cyfitter_cfg.c **** 			{0x5Fu, 0x10u},
 433:Generated_Source\PSoC4/cyfitter_cfg.c **** 			{0x65u, 0x40u},
 434:Generated_Source\PSoC4/cyfitter_cfg.c **** 			{0x81u, 0x40u},
 435:Generated_Source\PSoC4/cyfitter_cfg.c **** 			{0x89u, 0x01u},
 436:Generated_Source\PSoC4/cyfitter_cfg.c **** 			{0x8Bu, 0x10u},
 437:Generated_Source\PSoC4/cyfitter_cfg.c **** 			{0x90u, 0x03u},
 438:Generated_Source\PSoC4/cyfitter_cfg.c **** 			{0x91u, 0x04u},
 439:Generated_Source\PSoC4/cyfitter_cfg.c **** 			{0x92u, 0x11u},
 440:Generated_Source\PSoC4/cyfitter_cfg.c **** 			{0x99u, 0x80u},
 441:Generated_Source\PSoC4/cyfitter_cfg.c **** 			{0x9Bu, 0x01u},
 442:Generated_Source\PSoC4/cyfitter_cfg.c **** 			{0x9Du, 0x11u},
 443:Generated_Source\PSoC4/cyfitter_cfg.c **** 			{0x9Fu, 0x20u},
 444:Generated_Source\PSoC4/cyfitter_cfg.c **** 			{0xA1u, 0x40u},
 445:Generated_Source\PSoC4/cyfitter_cfg.c **** 			{0xA2u, 0x01u},
 446:Generated_Source\PSoC4/cyfitter_cfg.c **** 			{0xA6u, 0x18u},
 447:Generated_Source\PSoC4/cyfitter_cfg.c **** 			{0xA7u, 0x25u},
 448:Generated_Source\PSoC4/cyfitter_cfg.c **** 			{0xADu, 0x40u},
 449:Generated_Source\PSoC4/cyfitter_cfg.c **** 			{0xB2u, 0x80u},
 450:Generated_Source\PSoC4/cyfitter_cfg.c **** 			{0xB3u, 0x20u},
 451:Generated_Source\PSoC4/cyfitter_cfg.c **** 			{0xB4u, 0x40u},
 452:Generated_Source\PSoC4/cyfitter_cfg.c **** 			{0xC0u, 0xF0u},
 453:Generated_Source\PSoC4/cyfitter_cfg.c **** 			{0xC2u, 0xA0u},
 454:Generated_Source\PSoC4/cyfitter_cfg.c **** 			{0xC4u, 0x70u},
 455:Generated_Source\PSoC4/cyfitter_cfg.c **** 			{0xCAu, 0x70u},
 456:Generated_Source\PSoC4/cyfitter_cfg.c **** 			{0xCCu, 0xE0u},
 457:Generated_Source\PSoC4/cyfitter_cfg.c **** 			{0xCEu, 0xF0u},
 458:Generated_Source\PSoC4/cyfitter_cfg.c **** 			{0xD0u, 0xE0u},
 459:Generated_Source\PSoC4/cyfitter_cfg.c **** 			{0xD2u, 0x30u},
 460:Generated_Source\PSoC4/cyfitter_cfg.c **** 			{0xD6u, 0xF0u},
 461:Generated_Source\PSoC4/cyfitter_cfg.c **** 			{0xD8u, 0x10u},
 462:Generated_Source\PSoC4/cyfitter_cfg.c **** 			{0xEAu, 0x40u},
 463:Generated_Source\PSoC4/cyfitter_cfg.c **** 			{0x05u, 0x02u},
 464:Generated_Source\PSoC4/cyfitter_cfg.c **** 			{0x50u, 0x01u},
 465:Generated_Source\PSoC4/cyfitter_cfg.c **** 			{0x57u, 0x01u},
 466:Generated_Source\PSoC4/cyfitter_cfg.c **** 			{0xC0u, 0x20u},
 467:Generated_Source\PSoC4/cyfitter_cfg.c **** 			{0xD4u, 0x80u},
 468:Generated_Source\PSoC4/cyfitter_cfg.c **** 			{0xD6u, 0x20u},
 469:Generated_Source\PSoC4/cyfitter_cfg.c **** 			{0x81u, 0x02u},
 470:Generated_Source\PSoC4/cyfitter_cfg.c **** 			{0x99u, 0x02u},
 471:Generated_Source\PSoC4/cyfitter_cfg.c **** 			{0xAFu, 0x01u},
 472:Generated_Source\PSoC4/cyfitter_cfg.c **** 			{0xB4u, 0x01u},
ARM GAS  C:\Users\Xavier\AppData\Local\Temp\ccadZIMz.s 			page 17


 473:Generated_Source\PSoC4/cyfitter_cfg.c **** 			{0xE4u, 0x20u},
 474:Generated_Source\PSoC4/cyfitter_cfg.c **** 			{0xEEu, 0x10u},
 475:Generated_Source\PSoC4/cyfitter_cfg.c **** 			{0x01u, 0x01u},
 476:Generated_Source\PSoC4/cyfitter_cfg.c **** 			{0x10u, 0x01u},
 477:Generated_Source\PSoC4/cyfitter_cfg.c **** 		};
 478:Generated_Source\PSoC4/cyfitter_cfg.c **** 
 479:Generated_Source\PSoC4/cyfitter_cfg.c **** 
 480:Generated_Source\PSoC4/cyfitter_cfg.c **** 
 481:Generated_Source\PSoC4/cyfitter_cfg.c **** 		CYPACKED typedef struct {
 482:Generated_Source\PSoC4/cyfitter_cfg.c **** 			void CYFAR *address;
 483:Generated_Source\PSoC4/cyfitter_cfg.c **** 			uint16 size;
 484:Generated_Source\PSoC4/cyfitter_cfg.c **** 		} CYPACKED_ATTR cfg_memset_t;
 485:Generated_Source\PSoC4/cyfitter_cfg.c **** 
 486:Generated_Source\PSoC4/cyfitter_cfg.c **** 
 487:Generated_Source\PSoC4/cyfitter_cfg.c **** 		CYPACKED typedef struct {
 488:Generated_Source\PSoC4/cyfitter_cfg.c **** 			void CYFAR *dest;
 489:Generated_Source\PSoC4/cyfitter_cfg.c **** 			const void CYCODE *src;
 490:Generated_Source\PSoC4/cyfitter_cfg.c **** 			uint16 size;
 491:Generated_Source\PSoC4/cyfitter_cfg.c **** 		} CYPACKED_ATTR cfg_memcpy_t;
 492:Generated_Source\PSoC4/cyfitter_cfg.c **** 
 493:Generated_Source\PSoC4/cyfitter_cfg.c **** 		static const cfg_memset_t CYCODE cfg_memset_list[] = {
 494:Generated_Source\PSoC4/cyfitter_cfg.c **** 			/* address, size */
 495:Generated_Source\PSoC4/cyfitter_cfg.c **** 			{(void CYFAR *)(CYDEV_UDB_P0_U0_BASE), 512u},
 496:Generated_Source\PSoC4/cyfitter_cfg.c **** 			{(void CYFAR *)(CYDEV_UDB_P1_U1_BASE), 384u},
 497:Generated_Source\PSoC4/cyfitter_cfg.c **** 			{(void CYFAR *)(CYDEV_UDB_DSI0_BASE), 1024u},
 498:Generated_Source\PSoC4/cyfitter_cfg.c **** 		};
 499:Generated_Source\PSoC4/cyfitter_cfg.c **** 
 500:Generated_Source\PSoC4/cyfitter_cfg.c **** 		/* UDB_0_0_1_CONFIG Address: CYDEV_UDB_P1_U0_BASE Size (bytes): 128 */
 501:Generated_Source\PSoC4/cyfitter_cfg.c **** 		static const uint8 CYCODE BS_UDB_0_0_1_CONFIG_VAL[] = {
 502:Generated_Source\PSoC4/cyfitter_cfg.c **** 			0x22u, 0x08u, 0x50u, 0x04u, 0x63u, 0x09u, 0x0Cu, 0x00u, 0x01u, 0x60u, 0x74u, 0x00u, 0x72u, 0x08u
 503:Generated_Source\PSoC4/cyfitter_cfg.c **** 			0x00u, 0x09u, 0x00u, 0x00u, 0x50u, 0x0Eu, 0x22u, 0x91u, 0x00u, 0x31u, 0x00u, 0xC2u, 0x72u, 0x00u
 504:Generated_Source\PSoC4/cyfitter_cfg.c **** 			0x22u, 0x00u, 0x00u, 0x00u, 0x72u, 0xD4u, 0x00u, 0x29u, 0x23u, 0x01u, 0x58u, 0x08u, 0x00u, 0x09u
 505:Generated_Source\PSoC4/cyfitter_cfg.c **** 			0x60u, 0x00u, 0x60u, 0x0Fu, 0x1Fu, 0x70u, 0x01u, 0x80u, 0x20u, 0x20u, 0x00u, 0x0Cu, 0x00u, 0x00u
 506:Generated_Source\PSoC4/cyfitter_cfg.c **** 			0x26u, 0x03u, 0x40u, 0x00u, 0x05u, 0xCEu, 0xD0u, 0xBFu, 0x3Bu, 0xFFu, 0xFFu, 0xFFu, 0x22u, 0x00u
 507:Generated_Source\PSoC4/cyfitter_cfg.c **** 			0x04u, 0x00u, 0x00u, 0x00u, 0x09u, 0x00u, 0x00u, 0x00u, 0x04u, 0x04u, 0x04u, 0x04u, 0x00u, 0x00u
 508:Generated_Source\PSoC4/cyfitter_cfg.c **** 			0x00u, 0x00u, 0xC0u, 0x00u, 0x40u, 0x01u, 0x10u, 0x11u, 0xC0u, 0x01u, 0x00u, 0x11u, 0x40u, 0x01u
 509:Generated_Source\PSoC4/cyfitter_cfg.c **** 			0x00u, 0x00u, 0x00u, 0x00u, 0x00u, 0x00u, 0x00u, 0x00u, 0x00u, 0x00u, 0x00u, 0x00u, 0x00u, 0x00u
 510:Generated_Source\PSoC4/cyfitter_cfg.c **** 
 511:Generated_Source\PSoC4/cyfitter_cfg.c **** 		static const cfg_memcpy_t CYCODE cfg_memcpy_list [] = {
 512:Generated_Source\PSoC4/cyfitter_cfg.c **** 			/* dest, src, size */
 513:Generated_Source\PSoC4/cyfitter_cfg.c **** 			{(void CYFAR *)(CYDEV_UDB_P1_U0_BASE), BS_UDB_0_0_1_CONFIG_VAL, 128u},
 514:Generated_Source\PSoC4/cyfitter_cfg.c **** 		};
 515:Generated_Source\PSoC4/cyfitter_cfg.c **** 
 516:Generated_Source\PSoC4/cyfitter_cfg.c **** 		uint8 CYDATA i;
 517:Generated_Source\PSoC4/cyfitter_cfg.c **** 
 518:Generated_Source\PSoC4/cyfitter_cfg.c **** 		/* Zero out critical memory blocks before beginning configuration */
 519:Generated_Source\PSoC4/cyfitter_cfg.c **** 		for (i = 0u; i < (sizeof(cfg_memset_list)/sizeof(cfg_memset_list[0])); i++)
 438              		.loc 1 519 0
 439 00ea 1723     		movs	r3, #23
 440 00ec FB18     		adds	r3, r7, r3
 441 00ee 0022     		movs	r2, #0
 442 00f0 1A70     		strb	r2, [r3]
 443 00f2 25E0     		b	.L16
 444              	.L17:
 445              	.LBB4:
 520:Generated_Source\PSoC4/cyfitter_cfg.c **** 		{
 521:Generated_Source\PSoC4/cyfitter_cfg.c **** 			const cfg_memset_t CYCODE * CYDATA ms = &cfg_memset_list[i];
ARM GAS  C:\Users\Xavier\AppData\Local\Temp\ccadZIMz.s 			page 18


 446              		.loc 1 521 0 discriminator 3
 447 00f4 1723     		movs	r3, #23
 448 00f6 FB18     		adds	r3, r7, r3
 449 00f8 1A78     		ldrb	r2, [r3]
 450 00fa 1300     		movs	r3, r2
 451 00fc 5B00     		lsls	r3, r3, #1
 452 00fe 9B18     		adds	r3, r3, r2
 453 0100 5B00     		lsls	r3, r3, #1
 454 0102 5E4A     		ldr	r2, .L20+4
 455 0104 9B18     		adds	r3, r3, r2
 456 0106 3B61     		str	r3, [r7, #16]
 522:Generated_Source\PSoC4/cyfitter_cfg.c **** 			CYMEMZERO(ms->address, (size_t)(uint32)(ms->size));
 457              		.loc 1 522 0 discriminator 3
 458 0108 3B69     		ldr	r3, [r7, #16]
 459 010a 1A78     		ldrb	r2, [r3]
 460 010c 5978     		ldrb	r1, [r3, #1]
 461 010e 0902     		lsls	r1, r1, #8
 462 0110 0A43     		orrs	r2, r1
 463 0112 9978     		ldrb	r1, [r3, #2]
 464 0114 0904     		lsls	r1, r1, #16
 465 0116 0A43     		orrs	r2, r1
 466 0118 DB78     		ldrb	r3, [r3, #3]
 467 011a 1B06     		lsls	r3, r3, #24
 468 011c 1343     		orrs	r3, r2
 469 011e 1800     		movs	r0, r3
 470 0120 3B69     		ldr	r3, [r7, #16]
 471 0122 1A79     		ldrb	r2, [r3, #4]
 472 0124 5B79     		ldrb	r3, [r3, #5]
 473 0126 1B02     		lsls	r3, r3, #8
 474 0128 1343     		orrs	r3, r2
 475 012a 9BB2     		uxth	r3, r3
 476 012c 1900     		movs	r1, r3
 477 012e FFF7FEFF 		bl	CYMEMZERO
 478              	.LBE4:
 519:Generated_Source\PSoC4/cyfitter_cfg.c **** 		{
 479              		.loc 1 519 0 discriminator 3
 480 0132 1723     		movs	r3, #23
 481 0134 FB18     		adds	r3, r7, r3
 482 0136 1A78     		ldrb	r2, [r3]
 483 0138 1723     		movs	r3, #23
 484 013a FB18     		adds	r3, r7, r3
 485 013c 0132     		adds	r2, r2, #1
 486 013e 1A70     		strb	r2, [r3]
 487              	.L16:
 519:Generated_Source\PSoC4/cyfitter_cfg.c **** 		{
 488              		.loc 1 519 0 is_stmt 0 discriminator 1
 489 0140 1723     		movs	r3, #23
 490 0142 FB18     		adds	r3, r7, r3
 491 0144 1B78     		ldrb	r3, [r3]
 492 0146 022B     		cmp	r3, #2
 493 0148 D4D9     		bls	.L17
 523:Generated_Source\PSoC4/cyfitter_cfg.c **** 		}
 524:Generated_Source\PSoC4/cyfitter_cfg.c **** 
 525:Generated_Source\PSoC4/cyfitter_cfg.c **** 		/* Copy device configuration data into registers */
 526:Generated_Source\PSoC4/cyfitter_cfg.c **** 		for (i = 0u; i < (sizeof(cfg_memcpy_list)/sizeof(cfg_memcpy_list[0])); i++)
 494              		.loc 1 526 0 is_stmt 1
 495 014a 1723     		movs	r3, #23
ARM GAS  C:\Users\Xavier\AppData\Local\Temp\ccadZIMz.s 			page 19


 496 014c FB18     		adds	r3, r7, r3
 497 014e 0022     		movs	r2, #0
 498 0150 1A70     		strb	r2, [r3]
 499 0152 36E0     		b	.L18
 500              	.L19:
 501              	.LBB5:
 527:Generated_Source\PSoC4/cyfitter_cfg.c **** 		{
 528:Generated_Source\PSoC4/cyfitter_cfg.c **** 			const cfg_memcpy_t CYCODE * CYDATA mc = &cfg_memcpy_list[i];
 502              		.loc 1 528 0 discriminator 3
 503 0154 1723     		movs	r3, #23
 504 0156 FB18     		adds	r3, r7, r3
 505 0158 1A78     		ldrb	r2, [r3]
 506 015a 1300     		movs	r3, r2
 507 015c 9B00     		lsls	r3, r3, #2
 508 015e 9B18     		adds	r3, r3, r2
 509 0160 5B00     		lsls	r3, r3, #1
 510 0162 474A     		ldr	r2, .L20+8
 511 0164 9B18     		adds	r3, r3, r2
 512 0166 FB60     		str	r3, [r7, #12]
 529:Generated_Source\PSoC4/cyfitter_cfg.c **** 			void * CYDATA destPtr = mc->dest;
 513              		.loc 1 529 0 discriminator 3
 514 0168 FB68     		ldr	r3, [r7, #12]
 515 016a 1A78     		ldrb	r2, [r3]
 516 016c 5978     		ldrb	r1, [r3, #1]
 517 016e 0902     		lsls	r1, r1, #8
 518 0170 0A43     		orrs	r2, r1
 519 0172 9978     		ldrb	r1, [r3, #2]
 520 0174 0904     		lsls	r1, r1, #16
 521 0176 0A43     		orrs	r2, r1
 522 0178 DB78     		ldrb	r3, [r3, #3]
 523 017a 1B06     		lsls	r3, r3, #24
 524 017c 1343     		orrs	r3, r2
 525 017e BB60     		str	r3, [r7, #8]
 530:Generated_Source\PSoC4/cyfitter_cfg.c **** 			const void CYCODE * CYDATA srcPtr = mc->src;
 526              		.loc 1 530 0 discriminator 3
 527 0180 FB68     		ldr	r3, [r7, #12]
 528 0182 1A79     		ldrb	r2, [r3, #4]
 529 0184 5979     		ldrb	r1, [r3, #5]
 530 0186 0902     		lsls	r1, r1, #8
 531 0188 0A43     		orrs	r2, r1
 532 018a 9979     		ldrb	r1, [r3, #6]
 533 018c 0904     		lsls	r1, r1, #16
 534 018e 0A43     		orrs	r2, r1
 535 0190 DB79     		ldrb	r3, [r3, #7]
 536 0192 1B06     		lsls	r3, r3, #24
 537 0194 1343     		orrs	r3, r2
 538 0196 7B60     		str	r3, [r7, #4]
 531:Generated_Source\PSoC4/cyfitter_cfg.c **** 			uint16 CYDATA numBytes = mc->size;
 539              		.loc 1 531 0 discriminator 3
 540 0198 BA1C     		adds	r2, r7, #2
 541 019a FB68     		ldr	r3, [r7, #12]
 542 019c 197A     		ldrb	r1, [r3, #8]
 543 019e 5B7A     		ldrb	r3, [r3, #9]
 544 01a0 1B02     		lsls	r3, r3, #8
 545 01a2 0B43     		orrs	r3, r1
 546 01a4 1380     		strh	r3, [r2]
 532:Generated_Source\PSoC4/cyfitter_cfg.c **** 			CYCONFIGCPYCODE(destPtr, srcPtr, numBytes);
ARM GAS  C:\Users\Xavier\AppData\Local\Temp\ccadZIMz.s 			page 20


 547              		.loc 1 532 0 discriminator 3
 548 01a6 BB1C     		adds	r3, r7, #2
 549 01a8 1A88     		ldrh	r2, [r3]
 550 01aa 7968     		ldr	r1, [r7, #4]
 551 01ac BB68     		ldr	r3, [r7, #8]
 552 01ae 1800     		movs	r0, r3
 553 01b0 FFF7FEFF 		bl	CYCONFIGCPYCODE
 554              	.LBE5:
 526:Generated_Source\PSoC4/cyfitter_cfg.c **** 		{
 555              		.loc 1 526 0 discriminator 3
 556 01b4 1723     		movs	r3, #23
 557 01b6 FB18     		adds	r3, r7, r3
 558 01b8 1A78     		ldrb	r2, [r3]
 559 01ba 1723     		movs	r3, #23
 560 01bc FB18     		adds	r3, r7, r3
 561 01be 0132     		adds	r2, r2, #1
 562 01c0 1A70     		strb	r2, [r3]
 563              	.L18:
 526:Generated_Source\PSoC4/cyfitter_cfg.c **** 		{
 564              		.loc 1 526 0 is_stmt 0 discriminator 1
 565 01c2 1723     		movs	r3, #23
 566 01c4 FB18     		adds	r3, r7, r3
 567 01c6 1B78     		ldrb	r3, [r3]
 568 01c8 002B     		cmp	r3, #0
 569 01ca C3D0     		beq	.L19
 533:Generated_Source\PSoC4/cyfitter_cfg.c **** 		}
 534:Generated_Source\PSoC4/cyfitter_cfg.c **** 
 535:Generated_Source\PSoC4/cyfitter_cfg.c **** 		cfg_write_bytes32(cy_cfg_addr_table, cy_cfg_data_table);
 570              		.loc 1 535 0 is_stmt 1
 571 01cc 2D4A     		ldr	r2, .L20+12
 572 01ce 2E4B     		ldr	r3, .L20+16
 573 01d0 1100     		movs	r1, r2
 574 01d2 1800     		movs	r0, r3
 575 01d4 FFF7FEFF 		bl	cfg_write_bytes32
 536:Generated_Source\PSoC4/cyfitter_cfg.c **** 
 537:Generated_Source\PSoC4/cyfitter_cfg.c **** 		/* HSIOM Starting address: CYDEV_HSIOM_BASE */
 538:Generated_Source\PSoC4/cyfitter_cfg.c **** 		CY_SET_REG32((void *)(CYDEV_HSIOM_BASE), 0xEE003003u);
 576              		.loc 1 538 0
 577 01d8 2C4B     		ldr	r3, .L20+20
 578 01da 2D4A     		ldr	r2, .L20+24
 579 01dc 1A60     		str	r2, [r3]
 539:Generated_Source\PSoC4/cyfitter_cfg.c **** 
 540:Generated_Source\PSoC4/cyfitter_cfg.c **** 		/* UDB_PA_0 Starting address: CYDEV_UDB_PA0_BASE */
 541:Generated_Source\PSoC4/cyfitter_cfg.c **** 		CY_SET_REG32((void *)(CYDEV_UDB_PA0_BASE), 0x00990000u);
 580              		.loc 1 541 0
 581 01de 2D4B     		ldr	r3, .L20+28
 582 01e0 9922     		movs	r2, #153
 583 01e2 1204     		lsls	r2, r2, #16
 584 01e4 1A60     		str	r2, [r3]
 542:Generated_Source\PSoC4/cyfitter_cfg.c **** 		CY_SET_REG32((void *)(CYREG_UDB_PA0_CFG8), 0x00830000u);
 585              		.loc 1 542 0
 586 01e6 2C4B     		ldr	r3, .L20+32
 587 01e8 8322     		movs	r2, #131
 588 01ea 1204     		lsls	r2, r2, #16
 589 01ec 1A60     		str	r2, [r3]
 543:Generated_Source\PSoC4/cyfitter_cfg.c **** 
 544:Generated_Source\PSoC4/cyfitter_cfg.c **** 		/* UDB_PA_1 Starting address: CYDEV_UDB_PA1_BASE */
ARM GAS  C:\Users\Xavier\AppData\Local\Temp\ccadZIMz.s 			page 21


 545:Generated_Source\PSoC4/cyfitter_cfg.c **** 		CY_SET_REG32((void *)(CYDEV_UDB_PA1_BASE), 0x00990000u);
 590              		.loc 1 545 0
 591 01ee 2B4B     		ldr	r3, .L20+36
 592 01f0 9922     		movs	r2, #153
 593 01f2 1204     		lsls	r2, r2, #16
 594 01f4 1A60     		str	r2, [r3]
 546:Generated_Source\PSoC4/cyfitter_cfg.c **** 
 547:Generated_Source\PSoC4/cyfitter_cfg.c **** 		/* UDB_PA_2 Starting address: CYDEV_UDB_PA2_BASE */
 548:Generated_Source\PSoC4/cyfitter_cfg.c **** 		CY_SET_REG32((void *)(CYDEV_UDB_PA2_BASE), 0x00990000u);
 595              		.loc 1 548 0
 596 01f6 2A4B     		ldr	r3, .L20+40
 597 01f8 9922     		movs	r2, #153
 598 01fa 1204     		lsls	r2, r2, #16
 599 01fc 1A60     		str	r2, [r3]
 549:Generated_Source\PSoC4/cyfitter_cfg.c **** 
 550:Generated_Source\PSoC4/cyfitter_cfg.c **** 		/* UDB_PA_3 Starting address: CYDEV_UDB_PA3_BASE */
 551:Generated_Source\PSoC4/cyfitter_cfg.c **** 		CY_SET_REG32((void *)(CYDEV_UDB_PA3_BASE), 0x00990000u);
 600              		.loc 1 551 0
 601 01fe 294B     		ldr	r3, .L20+44
 602 0200 9922     		movs	r2, #153
 603 0202 1204     		lsls	r2, r2, #16
 604 0204 1A60     		str	r2, [r3]
 552:Generated_Source\PSoC4/cyfitter_cfg.c **** 
 553:Generated_Source\PSoC4/cyfitter_cfg.c **** 		/* Enable UDB array and digital routing */
 554:Generated_Source\PSoC4/cyfitter_cfg.c **** 		CY_SET_XTND_REG8((void *)CYREG_UDB_UDBIF_WAIT_CFG, (uint8)((CY_GET_XTND_REG8((void *)CYREG_UDB_UD
 605              		.loc 1 554 0
 606 0206 284A     		ldr	r2, .L20+48
 607 0208 274B     		ldr	r3, .L20+48
 608 020a 1B78     		ldrb	r3, [r3]
 609 020c DBB2     		uxtb	r3, r3
 610 020e 3C21     		movs	r1, #60
 611 0210 8B43     		bics	r3, r1
 612 0212 DBB2     		uxtb	r3, r3
 613 0214 1421     		movs	r1, #20
 614 0216 0B43     		orrs	r3, r1
 615 0218 DBB2     		uxtb	r3, r3
 616 021a 1370     		strb	r3, [r2]
 555:Generated_Source\PSoC4/cyfitter_cfg.c **** 		CY_SET_XTND_REG8((void *)CYREG_UDB_UDBIF_BANK_CTL, (uint8)(CY_GET_XTND_REG8((void *)CYREG_UDB_UDB
 617              		.loc 1 555 0
 618 021c 234A     		ldr	r2, .L20+52
 619 021e 234B     		ldr	r3, .L20+52
 620 0220 1B78     		ldrb	r3, [r3]
 621 0222 DBB2     		uxtb	r3, r3
 622 0224 1621     		movs	r1, #22
 623 0226 0B43     		orrs	r3, r1
 624 0228 DBB2     		uxtb	r3, r3
 625 022a 1370     		strb	r3, [r2]
 626              	.LBE3:
 556:Generated_Source\PSoC4/cyfitter_cfg.c **** 	}
 557:Generated_Source\PSoC4/cyfitter_cfg.c **** 
 558:Generated_Source\PSoC4/cyfitter_cfg.c **** 	/* Perform second pass device configuration. These items must be configured in specific order afte
 559:Generated_Source\PSoC4/cyfitter_cfg.c **** 	/* IOPINS0_0 Starting address: CYDEV_GPIO_PRT0_BASE */
 560:Generated_Source\PSoC4/cyfitter_cfg.c **** 	CY_SET_REG32((void *)(CYDEV_GPIO_PRT0_BASE), 0x00000009u);
 627              		.loc 1 560 0
 628 022c 204B     		ldr	r3, .L20+56
 629 022e 0922     		movs	r2, #9
 630 0230 1A60     		str	r2, [r3]
ARM GAS  C:\Users\Xavier\AppData\Local\Temp\ccadZIMz.s 			page 22


 561:Generated_Source\PSoC4/cyfitter_cfg.c **** 	CY_SET_REG32((void *)(CYREG_GPIO_PRT0_PC), 0x00D80C0Eu);
 631              		.loc 1 561 0
 632 0232 204B     		ldr	r3, .L20+60
 633 0234 204A     		ldr	r2, .L20+64
 634 0236 1A60     		str	r2, [r3]
 562:Generated_Source\PSoC4/cyfitter_cfg.c **** 
 563:Generated_Source\PSoC4/cyfitter_cfg.c **** 	/* IOPINS0_1 Starting address: CYDEV_GPIO_PRT1_BASE */
 564:Generated_Source\PSoC4/cyfitter_cfg.c **** 	CY_SET_REG32((void *)(CYDEV_GPIO_PRT1_BASE), 0x0000000Eu);
 635              		.loc 1 564 0
 636 0238 204B     		ldr	r3, .L20+68
 637 023a 0E22     		movs	r2, #14
 638 023c 1A60     		str	r2, [r3]
 565:Generated_Source\PSoC4/cyfitter_cfg.c **** 	CY_SET_REG32((void *)(CYREG_GPIO_PRT1_PC), 0x00180B68u);
 639              		.loc 1 565 0
 640 023e 204B     		ldr	r3, .L20+72
 641 0240 204A     		ldr	r2, .L20+76
 642 0242 1A60     		str	r2, [r3]
 566:Generated_Source\PSoC4/cyfitter_cfg.c **** 
 567:Generated_Source\PSoC4/cyfitter_cfg.c **** 	/* IOPINS0_2 Starting address: CYDEV_GPIO_PRT2_BASE */
 568:Generated_Source\PSoC4/cyfitter_cfg.c **** 	CY_SET_REG32((void *)(CYDEV_GPIO_PRT2_BASE), 0x000000C0u);
 643              		.loc 1 568 0
 644 0244 204B     		ldr	r3, .L20+80
 645 0246 C022     		movs	r2, #192
 646 0248 1A60     		str	r2, [r3]
 569:Generated_Source\PSoC4/cyfitter_cfg.c **** 	CY_SET_REG32((void *)(CYREG_GPIO_PRT2_PC), 0x00585B6Du);
 647              		.loc 1 569 0
 648 024a 204B     		ldr	r3, .L20+84
 649 024c 204A     		ldr	r2, .L20+88
 650 024e 1A60     		str	r2, [r3]
 570:Generated_Source\PSoC4/cyfitter_cfg.c **** 	CY_SET_REG32((void *)(CYREG_GPIO_PRT2_INTR_CFG), 0x00004000u);
 651              		.loc 1 570 0
 652 0250 204B     		ldr	r3, .L20+92
 653 0252 8022     		movs	r2, #128
 654 0254 D201     		lsls	r2, r2, #7
 655 0256 1A60     		str	r2, [r3]
 571:Generated_Source\PSoC4/cyfitter_cfg.c **** 
 572:Generated_Source\PSoC4/cyfitter_cfg.c **** 	/* IOPINS0_3 Starting address: CYDEV_GPIO_PRT3_BASE */
 573:Generated_Source\PSoC4/cyfitter_cfg.c **** 	CY_SET_REG32((void *)(CYDEV_GPIO_PRT3_BASE), 0x000000C0u);
 656              		.loc 1 573 0
 657 0258 1F4B     		ldr	r3, .L20+96
 658 025a C022     		movs	r2, #192
 659 025c 1A60     		str	r2, [r3]
 574:Generated_Source\PSoC4/cyfitter_cfg.c **** 	CY_SET_REG32((void *)(CYREG_GPIO_PRT3_PC), 0x00D80000u);
 660              		.loc 1 574 0
 661 025e 1F4B     		ldr	r3, .L20+100
 662 0260 D822     		movs	r2, #216
 663 0262 1204     		lsls	r2, r2, #16
 664 0264 1A60     		str	r2, [r3]
 575:Generated_Source\PSoC4/cyfitter_cfg.c **** 
 576:Generated_Source\PSoC4/cyfitter_cfg.c **** 
 577:Generated_Source\PSoC4/cyfitter_cfg.c **** 	/* Setup clocks based on selections from Clock DWR */
 578:Generated_Source\PSoC4/cyfitter_cfg.c **** 	ClockSetup();
 665              		.loc 1 578 0
 666 0266 FFF7CBFE 		bl	ClockSetup
 579:Generated_Source\PSoC4/cyfitter_cfg.c **** 
 580:Generated_Source\PSoC4/cyfitter_cfg.c **** 	/* Perform basic analog initialization to defaults */
 581:Generated_Source\PSoC4/cyfitter_cfg.c **** 	AnalogSetDefault();
ARM GAS  C:\Users\Xavier\AppData\Local\Temp\ccadZIMz.s 			page 23


 667              		.loc 1 581 0
 668 026a FFF7FEFF 		bl	AnalogSetDefault
 582:Generated_Source\PSoC4/cyfitter_cfg.c **** 
 583:Generated_Source\PSoC4/cyfitter_cfg.c **** }
 669              		.loc 1 583 0
 670 026e C046     		nop
 671 0270 BD46     		mov	sp, r7
 672 0272 06B0     		add	sp, sp, #24
 673              		@ sp needed
 674 0274 80BD     		pop	{r7, pc}
 675              	.L21:
 676 0276 C046     		.align	2
 677              	.L20:
 678 0278 6CF02E40 		.word	1076818028
 679 027c 00000000 		.word	cfg_memset_list.4912
 680 0280 14000000 		.word	cfg_memcpy_list.4914
 681 0284 3C000000 		.word	cy_cfg_data_table.4902
 682 0288 20000000 		.word	cy_cfg_addr_table.4901
 683 028c 00000240 		.word	1073872896
 684 0290 033000EE 		.word	-301977597
 685 0294 00500F40 		.word	1074745344
 686 0298 08500F40 		.word	1074745352
 687 029c 10500F40 		.word	1074745360
 688 02a0 20500F40 		.word	1074745376
 689 02a4 30500F40 		.word	1074745392
 690 02a8 01700F40 		.word	1074753537
 691 02ac 00700F40 		.word	1074753536
 692 02b0 00000440 		.word	1074003968
 693 02b4 08000440 		.word	1074003976
 694 02b8 0E0CD800 		.word	14158862
 695 02bc 00010440 		.word	1074004224
 696 02c0 08010440 		.word	1074004232
 697 02c4 680B1800 		.word	1575784
 698 02c8 00020440 		.word	1074004480
 699 02cc 08020440 		.word	1074004488
 700 02d0 6D5B5800 		.word	5790573
 701 02d4 0C020440 		.word	1074004492
 702 02d8 00030440 		.word	1074004736
 703 02dc 08030440 		.word	1074004744
 704              		.cfi_endproc
 705              	.LFE8:
 706              		.size	cyfitter_cfg, .-cyfitter_cfg
 707              		.section	.rodata
 708              		.align	2
 709              		.type	cfg_memset_list.4912, %object
 710              		.size	cfg_memset_list.4912, 18
 711              	cfg_memset_list.4912:
 712 0000 00300F40 		.word	1074737152
 713 0004 0002     		.short	512
 714 0006 80320F40 		.4byte	1074737792
 715 000a 8001     		.short	384
 716 000c 00400F40 		.word	1074741248
 717 0010 0004     		.short	1024
 718 0012 0000     		.align	2
 719              		.type	cfg_memcpy_list.4914, %object
 720              		.size	cfg_memcpy_list.4914, 10
 721              	cfg_memcpy_list.4914:
ARM GAS  C:\Users\Xavier\AppData\Local\Temp\ccadZIMz.s 			page 24


 722 0014 00320F40 		.word	1074737664
 723 0018 70010000 		.word	BS_UDB_0_0_1_CONFIG_VAL.4913
 724 001c 8000     		.short	128
 725 001e 0000     		.align	2
 726              		.type	cy_cfg_addr_table.4901, %object
 727              		.size	cy_cfg_addr_table.4901, 28
 728              	cy_cfg_addr_table.4901:
 729 0020 01000F40 		.word	1074724865
 730 0024 2F300F40 		.word	1074737199
 731 0028 25310F40 		.word	1074737445
 732 002c 37330F40 		.word	1074737975
 733 0030 06400F40 		.word	1074741254
 734 0034 06410F40 		.word	1074741510
 735 0038 02600F40 		.word	1074749442
 736              		.align	2
 737              		.type	cy_cfg_data_table.4902, %object
 738              		.size	cy_cfg_data_table.4902, 308
 739              	cy_cfg_data_table.4902:
 740 003c 81       		.byte	-127
 741 003d 0F       		.byte	15
 742 003e 54       		.byte	84
 743 003f 40       		.byte	64
 744 0040 5B       		.byte	91
 745 0041 04       		.byte	4
 746 0042 5F       		.byte	95
 747 0043 01       		.byte	1
 748 0044 80       		.byte	-128
 749 0045 68       		.byte	104
 750 0046 81       		.byte	-127
 751 0047 70       		.byte	112
 752 0048 84       		.byte	-124
 753 0049 16       		.byte	22
 754 004a 85       		.byte	-123
 755 004b 70       		.byte	112
 756 004c 86       		.byte	-122
 757 004d 41       		.byte	65
 758 004e 88       		.byte	-120
 759 004f 12       		.byte	18
 760 0050 89       		.byte	-119
 761 0051 02       		.byte	2
 762 0052 8A       		.byte	-118
 763 0053 24       		.byte	36
 764 0054 8B       		.byte	-117
 765 0055 1D       		.byte	29
 766 0056 8E       		.byte	-114
 767 0057 03       		.byte	3
 768 0058 8F       		.byte	-113
 769 0059 70       		.byte	112
 770 005a 90       		.byte	-112
 771 005b 10       		.byte	16
 772 005c 91       		.byte	-111
 773 005d 83       		.byte	-125
 774 005e 92       		.byte	-110
 775 005f 68       		.byte	104
 776 0060 93       		.byte	-109
 777 0061 0C       		.byte	12
 778 0062 94       		.byte	-108
ARM GAS  C:\Users\Xavier\AppData\Local\Temp\ccadZIMz.s 			page 25


 779 0063 0D       		.byte	13
 780 0064 95       		.byte	-107
 781 0065 81       		.byte	-127
 782 0066 96       		.byte	-106
 783 0067 12       		.byte	18
 784 0068 97       		.byte	-105
 785 0069 1A       		.byte	26
 786 006a 98       		.byte	-104
 787 006b 68       		.byte	104
 788 006c 99       		.byte	-103
 789 006d 03       		.byte	3
 790 006e 9B       		.byte	-101
 791 006f 94       		.byte	-108
 792 0070 9E       		.byte	-98
 793 0071 04       		.byte	4
 794 0072 A0       		.byte	-96
 795 0073 68       		.byte	104
 796 0074 A7       		.byte	-89
 797 0075 40       		.byte	64
 798 0076 A8       		.byte	-88
 799 0077 68       		.byte	104
 800 0078 A9       		.byte	-87
 801 0079 70       		.byte	112
 802 007a AC       		.byte	-84
 803 007b 68       		.byte	104
 804 007c AD       		.byte	-83
 805 007d 70       		.byte	112
 806 007e B0       		.byte	-80
 807 007f 78       		.byte	120
 808 0080 B1       		.byte	-79
 809 0081 80       		.byte	-128
 810 0082 B3       		.byte	-77
 811 0083 40       		.byte	64
 812 0084 B5       		.byte	-75
 813 0085 1F       		.byte	31
 814 0086 B6       		.byte	-74
 815 0087 07       		.byte	7
 816 0088 B7       		.byte	-73
 817 0089 20       		.byte	32
 818 008a BA       		.byte	-70
 819 008b 02       		.byte	2
 820 008c BB       		.byte	-69
 821 008d 20       		.byte	32
 822 008e BF       		.byte	-65
 823 008f 44       		.byte	68
 824 0090 D6       		.byte	-42
 825 0091 02       		.byte	2
 826 0092 D7       		.byte	-41
 827 0093 28       		.byte	40
 828 0094 D8       		.byte	-40
 829 0095 04       		.byte	4
 830 0096 D9       		.byte	-39
 831 0097 04       		.byte	4
 832 0098 DB       		.byte	-37
 833 0099 04       		.byte	4
 834 009a DF       		.byte	-33
 835 009b 01       		.byte	1
ARM GAS  C:\Users\Xavier\AppData\Local\Temp\ccadZIMz.s 			page 26


 836 009c 04       		.byte	4
 837 009d 02       		.byte	2
 838 009e 05       		.byte	5
 839 009f 50       		.byte	80
 840 00a0 07       		.byte	7
 841 00a1 20       		.byte	32
 842 00a2 0E       		.byte	14
 843 00a3 64       		.byte	100
 844 00a4 0F       		.byte	15
 845 00a5 02       		.byte	2
 846 00a6 15       		.byte	21
 847 00a7 11       		.byte	17
 848 00a8 16       		.byte	22
 849 00a9 02       		.byte	2
 850 00aa 1D       		.byte	29
 851 00ab 40       		.byte	64
 852 00ac 1E       		.byte	30
 853 00ad 40       		.byte	64
 854 00ae 24       		.byte	36
 855 00af 51       		.byte	81
 856 00b0 25       		.byte	37
 857 00b1 30       		.byte	48
 858 00b2 27       		.byte	39
 859 00b3 01       		.byte	1
 860 00b4 2D       		.byte	45
 861 00b5 80       		.byte	-128
 862 00b6 2F       		.byte	47
 863 00b7 28       		.byte	40
 864 00b8 35       		.byte	53
 865 00b9 11       		.byte	17
 866 00ba 36       		.byte	54
 867 00bb 08       		.byte	8
 868 00bc 3D       		.byte	61
 869 00bd A0       		.byte	-96
 870 00be 3E       		.byte	62
 871 00bf 05       		.byte	5
 872 00c0 45       		.byte	69
 873 00c1 20       		.byte	32
 874 00c2 46       		.byte	70
 875 00c3 08       		.byte	8
 876 00c4 60       		.byte	96
 877 00c5 10       		.byte	16
 878 00c6 62       		.byte	98
 879 00c7 80       		.byte	-128
 880 00c8 63       		.byte	99
 881 00c9 08       		.byte	8
 882 00ca 66       		.byte	102
 883 00cb 08       		.byte	8
 884 00cc 6C       		.byte	108
 885 00cd 01       		.byte	1
 886 00ce 6D       		.byte	109
 887 00cf 95       		.byte	-107
 888 00d0 6E       		.byte	110
 889 00d1 17       		.byte	23
 890 00d2 6F       		.byte	111
 891 00d3 08       		.byte	8
 892 00d4 75       		.byte	117
ARM GAS  C:\Users\Xavier\AppData\Local\Temp\ccadZIMz.s 			page 27


 893 00d5 80       		.byte	-128
 894 00d6 76       		.byte	118
 895 00d7 02       		.byte	2
 896 00d8 C0       		.byte	-64
 897 00d9 F0       		.byte	-16
 898 00da C2       		.byte	-62
 899 00db F0       		.byte	-16
 900 00dc C4       		.byte	-60
 901 00dd D0       		.byte	-48
 902 00de CA       		.byte	-54
 903 00df 70       		.byte	112
 904 00e0 CC       		.byte	-52
 905 00e1 E0       		.byte	-32
 906 00e2 CE       		.byte	-50
 907 00e3 F0       		.byte	-16
 908 00e4 D8       		.byte	-40
 909 00e5 4E       		.byte	78
 910 00e6 04       		.byte	4
 911 00e7 02       		.byte	2
 912 00e8 05       		.byte	5
 913 00e9 94       		.byte	-108
 914 00ea 0E       		.byte	14
 915 00eb 11       		.byte	17
 916 00ec 15       		.byte	21
 917 00ed 05       		.byte	5
 918 00ee 17       		.byte	23
 919 00ef 20       		.byte	32
 920 00f0 1D       		.byte	29
 921 00f1 7D       		.byte	125
 922 00f2 1E       		.byte	30
 923 00f3 20       		.byte	32
 924 00f4 1F       		.byte	31
 925 00f5 10       		.byte	16
 926 00f6 25       		.byte	37
 927 00f7 10       		.byte	16
 928 00f8 26       		.byte	38
 929 00f9 48       		.byte	72
 930 00fa 27       		.byte	39
 931 00fb 20       		.byte	32
 932 00fc 2D       		.byte	45
 933 00fd 80       		.byte	-128
 934 00fe 2E       		.byte	46
 935 00ff 10       		.byte	16
 936 0100 2F       		.byte	47
 937 0101 10       		.byte	16
 938 0102 36       		.byte	54
 939 0103 19       		.byte	25
 940 0104 3D       		.byte	61
 941 0105 A5       		.byte	-91
 942 0106 45       		.byte	69
 943 0107 28       		.byte	40
 944 0108 47       		.byte	71
 945 0109 01       		.byte	1
 946 010a 4D       		.byte	77
 947 010b 49       		.byte	73
 948 010c 4E       		.byte	78
 949 010d 08       		.byte	8
ARM GAS  C:\Users\Xavier\AppData\Local\Temp\ccadZIMz.s 			page 28


 950 010e 57       		.byte	87
 951 010f 25       		.byte	37
 952 0110 5C       		.byte	92
 953 0111 01       		.byte	1
 954 0112 5D       		.byte	93
 955 0113 08       		.byte	8
 956 0114 5E       		.byte	94
 957 0115 80       		.byte	-128
 958 0116 5F       		.byte	95
 959 0117 10       		.byte	16
 960 0118 65       		.byte	101
 961 0119 40       		.byte	64
 962 011a 81       		.byte	-127
 963 011b 40       		.byte	64
 964 011c 89       		.byte	-119
 965 011d 01       		.byte	1
 966 011e 8B       		.byte	-117
 967 011f 10       		.byte	16
 968 0120 90       		.byte	-112
 969 0121 03       		.byte	3
 970 0122 91       		.byte	-111
 971 0123 04       		.byte	4
 972 0124 92       		.byte	-110
 973 0125 11       		.byte	17
 974 0126 99       		.byte	-103
 975 0127 80       		.byte	-128
 976 0128 9B       		.byte	-101
 977 0129 01       		.byte	1
 978 012a 9D       		.byte	-99
 979 012b 11       		.byte	17
 980 012c 9F       		.byte	-97
 981 012d 20       		.byte	32
 982 012e A1       		.byte	-95
 983 012f 40       		.byte	64
 984 0130 A2       		.byte	-94
 985 0131 01       		.byte	1
 986 0132 A6       		.byte	-90
 987 0133 18       		.byte	24
 988 0134 A7       		.byte	-89
 989 0135 25       		.byte	37
 990 0136 AD       		.byte	-83
 991 0137 40       		.byte	64
 992 0138 B2       		.byte	-78
 993 0139 80       		.byte	-128
 994 013a B3       		.byte	-77
 995 013b 20       		.byte	32
 996 013c B4       		.byte	-76
 997 013d 40       		.byte	64
 998 013e C0       		.byte	-64
 999 013f F0       		.byte	-16
 1000 0140 C2       		.byte	-62
 1001 0141 A0       		.byte	-96
 1002 0142 C4       		.byte	-60
 1003 0143 70       		.byte	112
 1004 0144 CA       		.byte	-54
 1005 0145 70       		.byte	112
 1006 0146 CC       		.byte	-52
ARM GAS  C:\Users\Xavier\AppData\Local\Temp\ccadZIMz.s 			page 29


 1007 0147 E0       		.byte	-32
 1008 0148 CE       		.byte	-50
 1009 0149 F0       		.byte	-16
 1010 014a D0       		.byte	-48
 1011 014b E0       		.byte	-32
 1012 014c D2       		.byte	-46
 1013 014d 30       		.byte	48
 1014 014e D6       		.byte	-42
 1015 014f F0       		.byte	-16
 1016 0150 D8       		.byte	-40
 1017 0151 10       		.byte	16
 1018 0152 EA       		.byte	-22
 1019 0153 40       		.byte	64
 1020 0154 05       		.byte	5
 1021 0155 02       		.byte	2
 1022 0156 50       		.byte	80
 1023 0157 01       		.byte	1
 1024 0158 57       		.byte	87
 1025 0159 01       		.byte	1
 1026 015a C0       		.byte	-64
 1027 015b 20       		.byte	32
 1028 015c D4       		.byte	-44
 1029 015d 80       		.byte	-128
 1030 015e D6       		.byte	-42
 1031 015f 20       		.byte	32
 1032 0160 81       		.byte	-127
 1033 0161 02       		.byte	2
 1034 0162 99       		.byte	-103
 1035 0163 02       		.byte	2
 1036 0164 AF       		.byte	-81
 1037 0165 01       		.byte	1
 1038 0166 B4       		.byte	-76
 1039 0167 01       		.byte	1
 1040 0168 E4       		.byte	-28
 1041 0169 20       		.byte	32
 1042 016a EE       		.byte	-18
 1043 016b 10       		.byte	16
 1044 016c 01       		.byte	1
 1045 016d 01       		.byte	1
 1046 016e 10       		.byte	16
 1047 016f 01       		.byte	1
 1048              		.align	2
 1049              		.type	BS_UDB_0_0_1_CONFIG_VAL.4913, %object
 1050              		.size	BS_UDB_0_0_1_CONFIG_VAL.4913, 128
 1051              	BS_UDB_0_0_1_CONFIG_VAL.4913:
 1052 0170 22       		.byte	34
 1053 0171 08       		.byte	8
 1054 0172 50       		.byte	80
 1055 0173 04       		.byte	4
 1056 0174 63       		.byte	99
 1057 0175 09       		.byte	9
 1058 0176 0C       		.byte	12
 1059 0177 00       		.byte	0
 1060 0178 01       		.byte	1
 1061 0179 60       		.byte	96
 1062 017a 74       		.byte	116
 1063 017b 00       		.byte	0
ARM GAS  C:\Users\Xavier\AppData\Local\Temp\ccadZIMz.s 			page 30


 1064 017c 72       		.byte	114
 1065 017d 08       		.byte	8
 1066 017e 00       		.byte	0
 1067 017f 01       		.byte	1
 1068 0180 00       		.byte	0
 1069 0181 09       		.byte	9
 1070 0182 00       		.byte	0
 1071 0183 00       		.byte	0
 1072 0184 50       		.byte	80
 1073 0185 0E       		.byte	14
 1074 0186 22       		.byte	34
 1075 0187 91       		.byte	-111
 1076 0188 00       		.byte	0
 1077 0189 31       		.byte	49
 1078 018a 00       		.byte	0
 1079 018b C2       		.byte	-62
 1080 018c 72       		.byte	114
 1081 018d 00       		.byte	0
 1082 018e 00       		.byte	0
 1083 018f 00       		.byte	0
 1084 0190 22       		.byte	34
 1085 0191 00       		.byte	0
 1086 0192 00       		.byte	0
 1087 0193 00       		.byte	0
 1088 0194 72       		.byte	114
 1089 0195 D4       		.byte	-44
 1090 0196 00       		.byte	0
 1091 0197 29       		.byte	41
 1092 0198 23       		.byte	35
 1093 0199 01       		.byte	1
 1094 019a 58       		.byte	88
 1095 019b 08       		.byte	8
 1096 019c 00       		.byte	0
 1097 019d 09       		.byte	9
 1098 019e 00       		.byte	0
 1099 019f 00       		.byte	0
 1100 01a0 60       		.byte	96
 1101 01a1 00       		.byte	0
 1102 01a2 60       		.byte	96
 1103 01a3 0F       		.byte	15
 1104 01a4 1F       		.byte	31
 1105 01a5 70       		.byte	112
 1106 01a6 01       		.byte	1
 1107 01a7 80       		.byte	-128
 1108 01a8 20       		.byte	32
 1109 01a9 20       		.byte	32
 1110 01aa 00       		.byte	0
 1111 01ab 0C       		.byte	12
 1112 01ac 00       		.byte	0
 1113 01ad 00       		.byte	0
 1114 01ae 40       		.byte	64
 1115 01af 40       		.byte	64
 1116 01b0 26       		.byte	38
 1117 01b1 03       		.byte	3
 1118 01b2 40       		.byte	64
 1119 01b3 00       		.byte	0
 1120 01b4 05       		.byte	5
ARM GAS  C:\Users\Xavier\AppData\Local\Temp\ccadZIMz.s 			page 31


 1121 01b5 CE       		.byte	-50
 1122 01b6 D0       		.byte	-48
 1123 01b7 BF       		.byte	-65
 1124 01b8 3B       		.byte	59
 1125 01b9 FF       		.byte	-1
 1126 01ba FF       		.byte	-1
 1127 01bb FF       		.byte	-1
 1128 01bc 22       		.byte	34
 1129 01bd 00       		.byte	0
 1130 01be F0       		.byte	-16
 1131 01bf 0C       		.byte	12
 1132 01c0 04       		.byte	4
 1133 01c1 00       		.byte	0
 1134 01c2 00       		.byte	0
 1135 01c3 00       		.byte	0
 1136 01c4 09       		.byte	9
 1137 01c5 00       		.byte	0
 1138 01c6 00       		.byte	0
 1139 01c7 00       		.byte	0
 1140 01c8 04       		.byte	4
 1141 01c9 04       		.byte	4
 1142 01ca 04       		.byte	4
 1143 01cb 04       		.byte	4
 1144 01cc 00       		.byte	0
 1145 01cd 00       		.byte	0
 1146 01ce 00       		.byte	0
 1147 01cf 01       		.byte	1
 1148 01d0 00       		.byte	0
 1149 01d1 00       		.byte	0
 1150 01d2 C0       		.byte	-64
 1151 01d3 00       		.byte	0
 1152 01d4 40       		.byte	64
 1153 01d5 01       		.byte	1
 1154 01d6 10       		.byte	16
 1155 01d7 11       		.byte	17
 1156 01d8 C0       		.byte	-64
 1157 01d9 01       		.byte	1
 1158 01da 00       		.byte	0
 1159 01db 11       		.byte	17
 1160 01dc 40       		.byte	64
 1161 01dd 01       		.byte	1
 1162 01de 40       		.byte	64
 1163 01df 01       		.byte	1
 1164 01e0 00       		.byte	0
 1165 01e1 00       		.byte	0
 1166 01e2 00       		.byte	0
 1167 01e3 00       		.byte	0
 1168 01e4 00       		.byte	0
 1169 01e5 00       		.byte	0
 1170 01e6 00       		.byte	0
 1171 01e7 00       		.byte	0
 1172 01e8 00       		.byte	0
 1173 01e9 00       		.byte	0
 1174 01ea 00       		.byte	0
 1175 01eb 00       		.byte	0
 1176 01ec 00       		.byte	0
 1177 01ed 00       		.byte	0
ARM GAS  C:\Users\Xavier\AppData\Local\Temp\ccadZIMz.s 			page 32


 1178 01ee 00       		.byte	0
 1179 01ef 00       		.byte	0
 1180              		.text
 1181              	.Letext0:
 1182              		.file 2 "c:\\program files (x86)\\cypress\\psoc creator\\4.4\\psoc creator\\import\\gnu\\arm\\5.4.
 1183              		.file 3 "Generated_Source\\PSoC4\\cytypes.h"