ARM GAS  C:\Users\Xavier\AppData\Local\Temp\ccJW6WCe.s 			page 1


   1              		.syntax unified
   2              		.cpu cortex-m0
   3              		.fpu softvfp
   4              		.eabi_attribute 20, 1
   5              		.eabi_attribute 21, 1
   6              		.eabi_attribute 23, 3
   7              		.eabi_attribute 24, 1
   8              		.eabi_attribute 25, 1
   9              		.eabi_attribute 26, 1
  10              		.eabi_attribute 30, 6
  11              		.eabi_attribute 34, 0
  12              		.eabi_attribute 18, 4
  13              		.thumb
  14              		.syntax unified
  15              		.file	"hids.c"
  16              		.text
  17              	.Ltext0:
  18              		.cfi_sections	.debug_frame
  19              		.comm	keyboardSimulation,2,2
  20              		.global	protocol
  21              		.data
  22              		.type	protocol, %object
  23              		.size	protocol, 1
  24              	protocol:
  25 0000 01       		.byte	1
  26              		.global	suspend
  27              		.type	suspend, %object
  28              		.size	suspend, 1
  29              	suspend:
  30 0001 01       		.byte	1
  31              		.comm	prevButtons,1,1
  32              		.comm	currButtons,1,1
  33              		.section	.text.HidsCallBack,"ax",%progbits
  34              		.align	2
  35              		.global	HidsCallBack
  36              		.code	16
  37              		.thumb_func
  38              		.type	HidsCallBack, %function
  39              	HidsCallBack:
  40              	.LFB36:
  41              		.file 1 "hids.c"
   1:hids.c        **** /*******************************************************************************
   2:hids.c        **** * File Name: hids.c
   3:hids.c        **** *
   4:hids.c        **** * Version: 1.0
   5:hids.c        **** *
   6:hids.c        **** * Description:
   7:hids.c        **** *  This file contains HIDS callback handler function.
   8:hids.c        **** *
   9:hids.c        **** * Hardware Dependency:
  10:hids.c        **** *  CY8CKIT-042 BLE
  11:hids.c        **** * 
  12:hids.c        **** ********************************************************************************
  13:hids.c        **** * Copyright 2016, Cypress Semiconductor Corporation.  All rights reserved.
  14:hids.c        **** * You may use this file only in accordance with the license, terms, conditions,
  15:hids.c        **** * disclaimers, and limitations in the end user license agreement accompanying
  16:hids.c        **** * the software package with which this file was provided.
ARM GAS  C:\Users\Xavier\AppData\Local\Temp\ccJW6WCe.s 			page 2


  17:hids.c        **** *******************************************************************************/
  18:hids.c        **** 
  19:hids.c        **** #include "common.h"
  20:hids.c        **** #include "hids.h"
  21:hids.c        **** 
  22:hids.c        **** uint16 keyboardSimulation;
  23:hids.c        **** uint8 protocol = CYBLE_HIDS_PROTOCOL_MODE_REPORT;   /* Boot or Report protocol mode */
  24:hids.c        **** uint8 suspend = CYBLE_HIDS_CP_EXIT_SUSPEND;         /* Suspend to enter into deep sleep mode */
  25:hids.c        **** uint8 prevButtons;
  26:hids.c        **** uint8 currButtons;
  27:hids.c        **** 
  28:hids.c        **** /*******************************************************************************
  29:hids.c        **** * Function Name: HidsCallBack()
  30:hids.c        **** ********************************************************************************
  31:hids.c        **** *
  32:hids.c        **** * Summary:
  33:hids.c        **** *   This is an event callback function to receive service specific events from 
  34:hids.c        **** *   HID Service.
  35:hids.c        **** *
  36:hids.c        **** * Parameters:
  37:hids.c        **** *  event - the event code
  38:hids.c        **** *  *eventParam - the event parameters
  39:hids.c        **** *
  40:hids.c        **** * Return:
  41:hids.c        **** *  None.
  42:hids.c        **** *
  43:hids.c        **** ********************************************************************************/
  44:hids.c        **** void HidsCallBack(uint32 event, void *eventParam)
  45:hids.c        **** {
  42              		.loc 1 45 0
  43              		.cfi_startproc
  44              		@ args = 0, pretend = 0, frame = 16
  45              		@ frame_needed = 1, uses_anonymous_args = 0
  46 0000 80B5     		push	{r7, lr}
  47              		.cfi_def_cfa_offset 8
  48              		.cfi_offset 7, -8
  49              		.cfi_offset 14, -4
  50 0002 84B0     		sub	sp, sp, #16
  51              		.cfi_def_cfa_offset 24
  52 0004 00AF     		add	r7, sp, #0
  53              		.cfi_def_cfa_register 7
  54 0006 7860     		str	r0, [r7, #4]
  55 0008 3960     		str	r1, [r7]
  46:hids.c        **** 	CYBLE_HIDS_CHAR_VALUE_T *locEventParam = (CYBLE_HIDS_CHAR_VALUE_T *)eventParam;
  56              		.loc 1 46 0
  57 000a 3B68     		ldr	r3, [r7]
  58 000c FB60     		str	r3, [r7, #12]
  47:hids.c        **** 
  48:hids.c        **** 	//DBG_PRINTF("HIDS event: %lx, ", event);
  49:hids.c        **** 
  50:hids.c        **** 	switch(event)
  59              		.loc 1 50 0
  60 000e 7B68     		ldr	r3, [r7, #4]
  61 0010 953B     		subs	r3, r3, #149
  62 0012 FF3B     		subs	r3, r3, #255
  63 0014 0B2B     		cmp	r3, #11
  64 0016 00D9     		bls	.LCB20
ARM GAS  C:\Users\Xavier\AppData\Local\Temp\ccJW6WCe.s 			page 3


  65 0018 6BE0     		b	.L25	@long jump
  66              	.LCB20:
  67 001a 9A00     		lsls	r2, r3, #2
  68 001c 3A4B     		ldr	r3, .L29
  69 001e D318     		adds	r3, r2, r3
  70 0020 1B68     		ldr	r3, [r3]
  71 0022 9F46     		mov	pc, r3
  72              		.section	.rodata
  73              		.align	2
  74              	.L4:
  75 0000 24000000 		.word	.L3
  76 0004 36000000 		.word	.L5
  77 0008 46000000 		.word	.L6
  78 000c 4E000000 		.word	.L7
  79 0010 56000000 		.word	.L8
  80 0014 5E000000 		.word	.L9
  81 0018 66000000 		.word	.L10
  82 001c F6000000 		.word	.L26
  83 0020 F6000000 		.word	.L26
  84 0024 F6000000 		.word	.L26
  85 0028 F6000000 		.word	.L26
  86 002c F6000000 		.word	.L26
  87              		.section	.text.HidsCallBack
  88              	.L3:
  51:hids.c        **** 	{
  52:hids.c        **** 		case CYBLE_EVT_HIDSS_NOTIFICATION_ENABLED:
  53:hids.c        **** 			DBG_PRINTF("CYBLE_EVT_HIDSS_NOTIFICATION_ENABLED: serv=%x, char=%x\r\n", 
  54:hids.c        **** 				locEventParam->serviceIndex,
  55:hids.c        **** 				locEventParam->charIndex);
  56:hids.c        **** 			if(CYBLE_HUMAN_INTERFACE_DEVICE_SERVICE_INDEX == locEventParam->serviceIndex)
  89              		.loc 1 56 0
  90 0024 FB68     		ldr	r3, [r7, #12]
  91 0026 9B78     		ldrb	r3, [r3, #2]
  92 0028 002B     		cmp	r3, #0
  93 002a 00D0     		beq	.LCB35
  94 002c 65E0     		b	.L27	@long jump
  95              	.LCB35:
  57:hids.c        **** 			{
  58:hids.c        **** 				keyboardSimulation = ENABLED;
  96              		.loc 1 58 0
  97 002e 374B     		ldr	r3, .L29+4
  98 0030 0122     		movs	r2, #1
  99 0032 1A80     		strh	r2, [r3]
  59:hids.c        **** 			}
  60:hids.c        **** 			break;
 100              		.loc 1 60 0
 101 0034 61E0     		b	.L27
 102              	.L5:
  61:hids.c        **** 		case CYBLE_EVT_HIDSS_NOTIFICATION_DISABLED:
  62:hids.c        **** 			DBG_PRINTF("CYBLE_EVT_HIDSS_NOTIFICATION_DISABLED: serv=%x, char=%x\r\n", 
  63:hids.c        **** 				locEventParam->serviceIndex,
  64:hids.c        **** 				locEventParam->charIndex);
  65:hids.c        **** 			if(CYBLE_HUMAN_INTERFACE_DEVICE_SERVICE_INDEX == locEventParam->serviceIndex)
 103              		.loc 1 65 0
 104 0036 FB68     		ldr	r3, [r7, #12]
 105 0038 9B78     		ldrb	r3, [r3, #2]
 106 003a 002B     		cmp	r3, #0
ARM GAS  C:\Users\Xavier\AppData\Local\Temp\ccJW6WCe.s 			page 4


 107 003c 5FD1     		bne	.L28
  66:hids.c        **** 			{
  67:hids.c        **** 				keyboardSimulation = DISABLED;
 108              		.loc 1 67 0
 109 003e 334B     		ldr	r3, .L29+4
 110 0040 0022     		movs	r2, #0
 111 0042 1A80     		strh	r2, [r3]
  68:hids.c        **** 			}
  69:hids.c        **** 			break;
 112              		.loc 1 69 0
 113 0044 5BE0     		b	.L28
 114              	.L6:
  70:hids.c        **** 		case CYBLE_EVT_HIDSS_BOOT_MODE_ENTER:
  71:hids.c        **** 			DBG_PRINTF("CYBLE_EVT_HIDSS_BOOT_MODE_ENTER \r\n");
  72:hids.c        **** 			protocol = CYBLE_HIDS_PROTOCOL_MODE_BOOT;
 115              		.loc 1 72 0
 116 0046 324B     		ldr	r3, .L29+8
 117 0048 0022     		movs	r2, #0
 118 004a 1A70     		strb	r2, [r3]
  73:hids.c        **** 			break;
 119              		.loc 1 73 0
 120 004c 58E0     		b	.L17
 121              	.L7:
  74:hids.c        **** 		case CYBLE_EVT_HIDSS_REPORT_MODE_ENTER:
  75:hids.c        **** 			DBG_PRINTF("CYBLE_EVT_HIDSS_REPORT_MODE_ENTER \r\n");
  76:hids.c        **** 			protocol = CYBLE_HIDS_PROTOCOL_MODE_REPORT;
 122              		.loc 1 76 0
 123 004e 304B     		ldr	r3, .L29+8
 124 0050 0122     		movs	r2, #1
 125 0052 1A70     		strb	r2, [r3]
  77:hids.c        **** 			break;
 126              		.loc 1 77 0
 127 0054 54E0     		b	.L17
 128              	.L8:
  78:hids.c        **** 		case CYBLE_EVT_HIDSS_SUSPEND:
  79:hids.c        **** 			DBG_PRINTF("CYBLE_EVT_HIDSS_SUSPEND \r\n");
  80:hids.c        **** 			suspend = CYBLE_HIDS_CP_SUSPEND;
 129              		.loc 1 80 0
 130 0056 2F4B     		ldr	r3, .L29+12
 131 0058 0022     		movs	r2, #0
 132 005a 1A70     		strb	r2, [r3]
  81:hids.c        **** 		//#if (DEBUG_UART_ENABLED == ENABLED)
  82:hids.c        **** 			/* Reduce power consumption, power down logic that is not required to wake up the system */
  83:hids.c        **** 		//	UART_DEB_Stop();
  84:hids.c        **** 		//#endif /* (DEBUG_UART_ENABLED == ENABLED) */
  85:hids.c        **** 			break;
 133              		.loc 1 85 0
 134 005c 50E0     		b	.L17
 135              	.L9:
  86:hids.c        **** 		case CYBLE_EVT_HIDSS_EXIT_SUSPEND:
  87:hids.c        **** 		//#if (DEBUG_UART_ENABLED == ENABLED)
  88:hids.c        **** 			/* Power up all circuitry previously shut down */
  89:hids.c        **** 		//	UART_DEB_Start();
  90:hids.c        **** 		//#endif /* (DEBUG_UART_ENABLED == ENABLED) */
  91:hids.c        **** 			DBG_PRINTF("CYBLE_EVT_HIDSS_EXIT_SUSPEND \r\n");
  92:hids.c        **** 			suspend = CYBLE_HIDS_CP_EXIT_SUSPEND;
 136              		.loc 1 92 0
ARM GAS  C:\Users\Xavier\AppData\Local\Temp\ccJW6WCe.s 			page 5


 137 005e 2D4B     		ldr	r3, .L29+12
 138 0060 0122     		movs	r2, #1
 139 0062 1A70     		strb	r2, [r3]
  93:hids.c        **** 			break;
 140              		.loc 1 93 0
 141 0064 4CE0     		b	.L17
 142              	.L10:
  94:hids.c        **** 		case CYBLE_EVT_HIDSS_REPORT_CHAR_WRITE:
  95:hids.c        **** 			if(CYBLE_HUMAN_INTERFACE_DEVICE_SERVICE_INDEX == locEventParam->serviceIndex)
 143              		.loc 1 95 0
 144 0066 FB68     		ldr	r3, [r7, #12]
 145 0068 9B78     		ldrb	r3, [r3, #2]
 146 006a 002B     		cmp	r3, #0
 147 006c 3BD1     		bne	.L19
  96:hids.c        **** 			{
  97:hids.c        **** 				/* Write request to Keyboard Output Report characteristic. 
  98:hids.c        **** 				*  Handle Boot and Report protocol. 
  99:hids.c        **** 				*/
 100:hids.c        **** 				if( ((CYBLE_HIDS_PROTOCOL_MODE_REPORT == protocol) && 
 148              		.loc 1 100 0
 149 006e 284B     		ldr	r3, .L29+8
 150 0070 1B78     		ldrb	r3, [r3]
 151 0072 012B     		cmp	r3, #1
 152 0074 03D1     		bne	.L20
 101:hids.c        **** 					 (CYBLE_HUMAN_INTERFACE_DEVICE_REPORT_OUT == locEventParam->charIndex)) ||
 153              		.loc 1 101 0 discriminator 1
 154 0076 FB68     		ldr	r3, [r7, #12]
 155 0078 DB78     		ldrb	r3, [r3, #3]
 100:hids.c        **** 					 (CYBLE_HUMAN_INTERFACE_DEVICE_REPORT_OUT == locEventParam->charIndex)) ||
 156              		.loc 1 100 0 discriminator 1
 157 007a 082B     		cmp	r3, #8
 158 007c 07D0     		beq	.L21
 159              	.L20:
 102:hids.c        **** 					((CYBLE_HIDS_PROTOCOL_MODE_BOOT == protocol) && 
 160              		.loc 1 102 0
 161 007e 244B     		ldr	r3, .L29+8
 162 0080 1B78     		ldrb	r3, [r3]
 101:hids.c        **** 					 (CYBLE_HUMAN_INTERFACE_DEVICE_REPORT_OUT == locEventParam->charIndex)) ||
 163              		.loc 1 101 0
 164 0082 002B     		cmp	r3, #0
 165 0084 2FD1     		bne	.L19
 103:hids.c        **** 					 (CYBLE_HIDS_BOOT_KYBRD_OUT_REP == locEventParam->charIndex)) )
 166              		.loc 1 103 0
 167 0086 FB68     		ldr	r3, [r7, #12]
 168 0088 DB78     		ldrb	r3, [r3, #3]
 102:hids.c        **** 					((CYBLE_HIDS_PROTOCOL_MODE_BOOT == protocol) && 
 169              		.loc 1 102 0
 170 008a 052B     		cmp	r3, #5
 171 008c 2BD1     		bne	.L19
 172              	.L21:
 104:hids.c        **** 				{
 105:hids.c        **** 					if( (CAPS_LOCK_LED & locEventParam->value->val[0u]) != 0u)
 173              		.loc 1 105 0
 174 008e FB68     		ldr	r3, [r7, #12]
 175 0090 5B68     		ldr	r3, [r3, #4]
 176 0092 1B68     		ldr	r3, [r3]
 177 0094 1B78     		ldrb	r3, [r3]
ARM GAS  C:\Users\Xavier\AppData\Local\Temp\ccJW6WCe.s 			page 6


 178 0096 0222     		movs	r2, #2
 179 0098 1340     		ands	r3, r2
 180 009a DBB2     		uxtb	r3, r3
 181 009c 002B     		cmp	r3, #0
 182 009e 06D0     		beq	.L22
 106:hids.c        **** 					{
 107:hids.c        ****                         CapsLock_LED_Write(LED_ON);
 183              		.loc 1 107 0
 184 00a0 0020     		movs	r0, #0
 185 00a2 FFF7FEFF 		bl	CapsLock_LED_Write
 108:hids.c        **** 						capsL = 1;
 186              		.loc 1 108 0
 187 00a6 1C4B     		ldr	r3, .L29+16
 188 00a8 0122     		movs	r2, #1
 189 00aa 1A70     		strb	r2, [r3]
 190 00ac 05E0     		b	.L23
 191              	.L22:
 109:hids.c        **** 
 110:hids.c        **** 					}
 111:hids.c        **** 					else
 112:hids.c        **** 					{
 113:hids.c        **** 						CapsLock_LED_Write(LED_OFF);
 192              		.loc 1 113 0
 193 00ae 0120     		movs	r0, #1
 194 00b0 FFF7FEFF 		bl	CapsLock_LED_Write
 114:hids.c        ****                         
 115:hids.c        **** capsL = 0;
 195              		.loc 1 115 0
 196 00b4 184B     		ldr	r3, .L29+16
 197 00b6 0022     		movs	r2, #0
 198 00b8 1A70     		strb	r2, [r3]
 199              	.L23:
 116:hids.c        **** 					}
 117:hids.c        **** 					if( (NUM_LOCK_LED & locEventParam->value->val[0u]) != 0u)
 200              		.loc 1 117 0
 201 00ba FB68     		ldr	r3, [r7, #12]
 202 00bc 5B68     		ldr	r3, [r3, #4]
 203 00be 1B68     		ldr	r3, [r3]
 204 00c0 1B78     		ldrb	r3, [r3]
 205 00c2 0122     		movs	r2, #1
 206 00c4 1340     		ands	r3, r2
 207 00c6 DBB2     		uxtb	r3, r3
 208 00c8 002B     		cmp	r3, #0
 209 00ca 06D0     		beq	.L24
 118:hids.c        **** 					{
 119:hids.c        **** 						Advertising_LED_Write(LED_ON);
 210              		.loc 1 119 0
 211 00cc 0020     		movs	r0, #0
 212 00ce FFF7FEFF 		bl	Advertising_LED_Write
 120:hids.c        ****                         
 121:hids.c        **** NumL = 1;
 213              		.loc 1 121 0
 214 00d2 124B     		ldr	r3, .L29+20
 215 00d4 0122     		movs	r2, #1
 216 00d6 1A70     		strb	r2, [r3]
 217 00d8 05E0     		b	.L19
 218              	.L24:
ARM GAS  C:\Users\Xavier\AppData\Local\Temp\ccJW6WCe.s 			page 7


 122:hids.c        **** 					}
 123:hids.c        **** 					else
 124:hids.c        **** 					{
 125:hids.c        **** 						Advertising_LED_Write(LED_OFF);
 219              		.loc 1 125 0
 220 00da 0120     		movs	r0, #1
 221 00dc FFF7FEFF 		bl	Advertising_LED_Write
 126:hids.c        ****                         
 127:hids.c        ****  NumL = 0;
 222              		.loc 1 127 0
 223 00e0 0E4B     		ldr	r3, .L29+20
 224 00e2 0022     		movs	r2, #0
 225 00e4 1A70     		strb	r2, [r3]
 226              	.L19:
 128:hids.c        **** 					}
 129:hids.c        **** 				}
 130:hids.c        **** 			}
 131:hids.c        **** 			DBG_PRINTF("CYBLE_EVT_HIDSS_REPORT_CHAR_WRITE: serv=%x, char=%x, value=", 
 132:hids.c        **** 				locEventParam->serviceIndex,
 133:hids.c        **** 				locEventParam->charIndex);
 134:hids.c        **** 				ShowValue(locEventParam->value);
 227              		.loc 1 134 0
 228 00e6 FB68     		ldr	r3, [r7, #12]
 229 00e8 5B68     		ldr	r3, [r3, #4]
 230 00ea 1800     		movs	r0, r3
 231 00ec FFF7FEFF 		bl	ShowValue
 135:hids.c        **** 			break;
 232              		.loc 1 135 0
 233 00f0 06E0     		b	.L17
 234              	.L25:
 136:hids.c        **** 		case CYBLE_EVT_HIDSC_NOTIFICATION:
 137:hids.c        **** 			break;
 138:hids.c        **** 		case CYBLE_EVT_HIDSC_READ_CHAR_RESPONSE:
 139:hids.c        **** 			break;
 140:hids.c        **** 		case CYBLE_EVT_HIDSC_WRITE_CHAR_RESPONSE:
 141:hids.c        **** 			break;
 142:hids.c        **** 		case CYBLE_EVT_HIDSC_READ_DESCR_RESPONSE:
 143:hids.c        **** 			break;
 144:hids.c        **** 		case CYBLE_EVT_HIDSC_WRITE_DESCR_RESPONSE:           
 145:hids.c        **** 			break;
 146:hids.c        **** 		default:
 147:hids.c        **** 			DBG_PRINTF("Not supported event\r\n");
 148:hids.c        **** 			break;
 235              		.loc 1 148 0
 236 00f2 C046     		nop
 237 00f4 04E0     		b	.L17
 238              	.L26:
 145:hids.c        **** 		default:
 239              		.loc 1 145 0
 240 00f6 C046     		nop
 241 00f8 02E0     		b	.L17
 242              	.L27:
  60:hids.c        **** 		case CYBLE_EVT_HIDSS_NOTIFICATION_DISABLED:
 243              		.loc 1 60 0
 244 00fa C046     		nop
 245 00fc 00E0     		b	.L17
 246              	.L28:
ARM GAS  C:\Users\Xavier\AppData\Local\Temp\ccJW6WCe.s 			page 8


  69:hids.c        **** 		case CYBLE_EVT_HIDSS_BOOT_MODE_ENTER:
 247              		.loc 1 69 0
 248 00fe C046     		nop
 249              	.L17:
 149:hids.c        **** 	}
 150:hids.c        **** }
 250              		.loc 1 150 0
 251 0100 C046     		nop
 252 0102 BD46     		mov	sp, r7
 253 0104 04B0     		add	sp, sp, #16
 254              		@ sp needed
 255 0106 80BD     		pop	{r7, pc}
 256              	.L30:
 257              		.align	2
 258              	.L29:
 259 0108 00000000 		.word	.L4
 260 010c 00000000 		.word	keyboardSimulation
 261 0110 00000000 		.word	protocol
 262 0114 00000000 		.word	suspend
 263 0118 00000000 		.word	capsL
 264 011c 00000000 		.word	NumL
 265              		.cfi_endproc
 266              	.LFE36:
 267              		.size	HidsCallBack, .-HidsCallBack
 268              		.section	.text.HidsInit,"ax",%progbits
 269              		.align	2
 270              		.global	HidsInit
 271              		.code	16
 272              		.thumb_func
 273              		.type	HidsInit, %function
 274              	HidsInit:
 275              	.LFB37:
 151:hids.c        **** 
 152:hids.c        **** 
 153:hids.c        **** /*******************************************************************************
 154:hids.c        **** * Function Name: HidsInit()
 155:hids.c        **** ********************************************************************************
 156:hids.c        **** *
 157:hids.c        **** * Summary:
 158:hids.c        **** *   Initializes the HID service.
 159:hids.c        **** *
 160:hids.c        **** *******************************************************************************/
 161:hids.c        **** void HidsInit(void)
 162:hids.c        **** {
 276              		.loc 1 162 0
 277              		.cfi_startproc
 278              		@ args = 0, pretend = 0, frame = 8
 279              		@ frame_needed = 1, uses_anonymous_args = 0
 280 0000 90B5     		push	{r4, r7, lr}
 281              		.cfi_def_cfa_offset 12
 282              		.cfi_offset 4, -12
 283              		.cfi_offset 7, -8
 284              		.cfi_offset 14, -4
 285 0002 85B0     		sub	sp, sp, #20
 286              		.cfi_def_cfa_offset 32
 287 0004 02AF     		add	r7, sp, #8
 288              		.cfi_def_cfa 7, 24
ARM GAS  C:\Users\Xavier\AppData\Local\Temp\ccJW6WCe.s 			page 9


 163:hids.c        **** 	CYBLE_API_RESULT_T apiResult;
 164:hids.c        **** 	uint16 cccdValue;
 165:hids.c        **** 	
 166:hids.c        **** 	/* Register service specific callback function */
 167:hids.c        **** 	CyBle_HidsRegisterAttrCallback(HidsCallBack);
 289              		.loc 1 167 0
 290 0006 1F4B     		ldr	r3, .L35
 291 0008 1800     		movs	r0, r3
 292 000a FFF7FEFF 		bl	CyBle_HidsRegisterAttrCallback
 168:hids.c        **** 	keyboardSimulation = DISABLED;
 293              		.loc 1 168 0
 294 000e 1E4B     		ldr	r3, .L35+4
 295 0010 0022     		movs	r2, #0
 296 0012 1A80     		strh	r2, [r3]
 169:hids.c        **** 	/* Read CCCD configurations from flash */
 170:hids.c        **** 	apiResult = CyBle_HidssGetCharacteristicDescriptor(CYBLE_HUMAN_INTERFACE_DEVICE_SERVICE_INDEX, 
 297              		.loc 1 170 0
 298 0014 BC1D     		adds	r4, r7, #6
 299 0016 3B1D     		adds	r3, r7, #4
 300 0018 0093     		str	r3, [sp]
 301 001a 0223     		movs	r3, #2
 302 001c 0022     		movs	r2, #0
 303 001e 0721     		movs	r1, #7
 304 0020 0020     		movs	r0, #0
 305 0022 FFF7FEFF 		bl	CyBle_HidssGetCharacteristicDescriptor
 306 0026 0300     		movs	r3, r0
 307 0028 2380     		strh	r3, [r4]
 171:hids.c        **** 		CYBLE_HUMAN_INTERFACE_DEVICE_REPORT_IN, CYBLE_HIDS_REPORT_CCCD, CYBLE_CCCD_LEN, (uint8 *)&cccdVal
 172:hids.c        **** 	if((apiResult == CYBLE_ERROR_OK) && (cccdValue != 0u))
 308              		.loc 1 172 0
 309 002a BB1D     		adds	r3, r7, #6
 310 002c 1B88     		ldrh	r3, [r3]
 311 002e 002B     		cmp	r3, #0
 312 0030 0AD1     		bne	.L32
 313              		.loc 1 172 0 is_stmt 0 discriminator 1
 314 0032 3B1D     		adds	r3, r7, #4
 315 0034 1B88     		ldrh	r3, [r3]
 316 0036 002B     		cmp	r3, #0
 317 0038 06D0     		beq	.L32
 173:hids.c        **** 	{
 174:hids.c        **** 		keyboardSimulation |= ENABLED;
 318              		.loc 1 174 0 is_stmt 1
 319 003a 134B     		ldr	r3, .L35+4
 320 003c 1B88     		ldrh	r3, [r3]
 321 003e 0122     		movs	r2, #1
 322 0040 1343     		orrs	r3, r2
 323 0042 9AB2     		uxth	r2, r3
 324 0044 104B     		ldr	r3, .L35+4
 325 0046 1A80     		strh	r2, [r3]
 326              	.L32:
 175:hids.c        **** 	}
 176:hids.c        **** 	apiResult = CyBle_HidssGetCharacteristicDescriptor(CYBLE_HUMAN_INTERFACE_DEVICE_SERVICE_INDEX, 
 327              		.loc 1 176 0
 328 0048 BC1D     		adds	r4, r7, #6
 329 004a 3B1D     		adds	r3, r7, #4
 330 004c 0093     		str	r3, [sp]
 331 004e 0223     		movs	r3, #2
ARM GAS  C:\Users\Xavier\AppData\Local\Temp\ccJW6WCe.s 			page 10


 332 0050 0022     		movs	r2, #0
 333 0052 0421     		movs	r1, #4
 334 0054 0020     		movs	r0, #0
 335 0056 FFF7FEFF 		bl	CyBle_HidssGetCharacteristicDescriptor
 336 005a 0300     		movs	r3, r0
 337 005c 2380     		strh	r3, [r4]
 177:hids.c        **** 		CYBLE_HIDS_BOOT_KYBRD_IN_REP, CYBLE_HIDS_REPORT_CCCD, CYBLE_CCCD_LEN, (uint8 *)&cccdValue);
 178:hids.c        **** 	if((apiResult == CYBLE_ERROR_OK) && (cccdValue != 0u))
 338              		.loc 1 178 0
 339 005e BB1D     		adds	r3, r7, #6
 340 0060 1B88     		ldrh	r3, [r3]
 341 0062 002B     		cmp	r3, #0
 342 0064 0AD1     		bne	.L34
 343              		.loc 1 178 0 is_stmt 0 discriminator 1
 344 0066 3B1D     		adds	r3, r7, #4
 345 0068 1B88     		ldrh	r3, [r3]
 346 006a 002B     		cmp	r3, #0
 347 006c 06D0     		beq	.L34
 179:hids.c        **** 	{
 180:hids.c        **** 		keyboardSimulation |= ENABLED;
 348              		.loc 1 180 0 is_stmt 1
 349 006e 064B     		ldr	r3, .L35+4
 350 0070 1B88     		ldrh	r3, [r3]
 351 0072 0122     		movs	r2, #1
 352 0074 1343     		orrs	r3, r2
 353 0076 9AB2     		uxth	r2, r3
 354 0078 034B     		ldr	r3, .L35+4
 355 007a 1A80     		strh	r2, [r3]
 356              	.L34:
 181:hids.c        **** 	}
 182:hids.c        **** }
 357              		.loc 1 182 0
 358 007c C046     		nop
 359 007e BD46     		mov	sp, r7
 360 0080 03B0     		add	sp, sp, #12
 361              		@ sp needed
 362 0082 90BD     		pop	{r4, r7, pc}
 363              	.L36:
 364              		.align	2
 365              	.L35:
 366 0084 00000000 		.word	HidsCallBack
 367 0088 00000000 		.word	keyboardSimulation
 368              		.cfi_endproc
 369              	.LFE37:
 370              		.size	HidsInit, .-HidsInit
 371              		.section	.text.SimulateKeyboard,"ax",%progbits
 372              		.align	2
 373              		.global	SimulateKeyboard
 374              		.code	16
 375              		.thumb_func
 376              		.type	SimulateKeyboard, %function
 377              	SimulateKeyboard:
 378              	.LFB38:
 183:hids.c        **** 
 184:hids.c        **** 	
 185:hids.c        **** /*******************************************************************************
 186:hids.c        **** * Function Name: SimulateKeyboard()
ARM GAS  C:\Users\Xavier\AppData\Local\Temp\ccJW6WCe.s 			page 11


 187:hids.c        **** ********************************************************************************
 188:hids.c        **** *
 189:hids.c        **** * Summary:
 190:hids.c        **** *   The custom function to simulate CapsLock key pressing
 191:hids.c        **** *
 192:hids.c        **** *******************************************************************************/
 193:hids.c        **** void SimulateKeyboard(void)
 194:hids.c        **** {
 379              		.loc 1 194 0
 380              		.cfi_startproc
 381              		@ args = 0, pretend = 0, frame = 8
 382              		@ frame_needed = 1, uses_anonymous_args = 0
 383 0000 90B5     		push	{r4, r7, lr}
 384              		.cfi_def_cfa_offset 12
 385              		.cfi_offset 4, -12
 386              		.cfi_offset 7, -8
 387              		.cfi_offset 14, -4
 388 0002 85B0     		sub	sp, sp, #20
 389              		.cfi_def_cfa_offset 32
 390 0004 02AF     		add	r7, sp, #8
 391              		.cfi_def_cfa 7, 24
 195:hids.c        **** 	static uint8 keyboard_data[KEYBOARD_DATA_SIZE]={0,0,0,0,0,0,0,0};
 196:hids.c        ****     
 197:hids.c        ****     
 198:hids.c        ****     
 199:hids.c        ****   
 200:hids.c        **** 
 201:hids.c        ****     
 202:hids.c        **** 	CYBLE_API_RESULT_T apiResult;
 203:hids.c        **** 	//static uint32 keyboardTimer = KEYBOARD_TIMEOUT;
 204:hids.c        **** 	
 205:hids.c        **** 	
 206:hids.c        **** 	//uint8 i;
 207:hids.c        **** 	
 208:hids.c        **** 	/* Scan SW2 key each connection interval */
 209:hids.c        ****         
 210:hids.c        ****     
 211:hids.c        ****     if (kbitr > 5){
 392              		.loc 1 211 0
 393 0006 7A4B     		ldr	r3, .L71
 394 0008 1B78     		ldrb	r3, [r3]
 395 000a 5BB2     		sxtb	r3, r3
 396 000c 052B     		cmp	r3, #5
 397 000e 02DD     		ble	.L38
 212:hids.c        ****         kbitr = 0;
 398              		.loc 1 212 0
 399 0010 774B     		ldr	r3, .L71
 400 0012 0022     		movs	r2, #0
 401 0014 1A70     		strb	r2, [r3]
 402              	.L38:
 213:hids.c        ****     }
 214:hids.c        ****     
 215:hids.c        ****     Rows_Write(1 << kbitr);
 403              		.loc 1 215 0
 404 0016 764B     		ldr	r3, .L71
 405 0018 1B78     		ldrb	r3, [r3]
 406 001a 5BB2     		sxtb	r3, r3
ARM GAS  C:\Users\Xavier\AppData\Local\Temp\ccJW6WCe.s 			page 12


 407 001c 1A00     		movs	r2, r3
 408 001e 0123     		movs	r3, #1
 409 0020 9340     		lsls	r3, r3, r2
 410 0022 DBB2     		uxtb	r3, r3
 411 0024 1800     		movs	r0, r3
 412 0026 FFF7FEFF 		bl	Rows_Write
 216:hids.c        ****     //for (j=0;j<3;j++) {
 217:hids.c        ****     btpress += Columns_Read() << (3*kbitr);
 413              		.loc 1 217 0
 414 002a FFF7FEFF 		bl	Columns_Read
 415 002e 0300     		movs	r3, r0
 416 0030 1900     		movs	r1, r3
 417 0032 6F4B     		ldr	r3, .L71
 418 0034 1B78     		ldrb	r3, [r3]
 419 0036 5BB2     		sxtb	r3, r3
 420 0038 1A00     		movs	r2, r3
 421 003a 1300     		movs	r3, r2
 422 003c 5B00     		lsls	r3, r3, #1
 423 003e 9B18     		adds	r3, r3, r2
 424 0040 9940     		lsls	r1, r1, r3
 425 0042 0B00     		movs	r3, r1
 426 0044 1A00     		movs	r2, r3
 427 0046 6B4B     		ldr	r3, .L71+4
 428 0048 1B68     		ldr	r3, [r3]
 429 004a D218     		adds	r2, r2, r3
 430 004c 694B     		ldr	r3, .L71+4
 431 004e 1A60     		str	r2, [r3]
 218:hids.c        ****     ++kbitr;
 432              		.loc 1 218 0
 433 0050 674B     		ldr	r3, .L71
 434 0052 1B78     		ldrb	r3, [r3]
 435 0054 5BB2     		sxtb	r3, r3
 436 0056 DBB2     		uxtb	r3, r3
 437 0058 0133     		adds	r3, r3, #1
 438 005a DBB2     		uxtb	r3, r3
 439 005c 5AB2     		sxtb	r2, r3
 440 005e 644B     		ldr	r3, .L71
 441 0060 1A70     		strb	r2, [r3]
 219:hids.c        ****     btpress &= 0x7FFF;
 442              		.loc 1 219 0
 443 0062 644B     		ldr	r3, .L71+4
 444 0064 1B68     		ldr	r3, [r3]
 445 0066 5B04     		lsls	r3, r3, #17
 446 0068 5A0C     		lsrs	r2, r3, #17
 447 006a 624B     		ldr	r3, .L71+4
 448 006c 1A60     		str	r2, [r3]
 220:hids.c        ****     SPIM_1_Start();
 449              		.loc 1 220 0
 450 006e FFF7FEFF 		bl	SPIM_1_Start
 221:hids.c        **** SPIM_1_WriteByte((uint8)btpress);
 451              		.loc 1 221 0
 452 0072 604B     		ldr	r3, .L71+4
 453 0074 1B68     		ldr	r3, [r3]
 454 0076 DBB2     		uxtb	r3, r3
 455 0078 1800     		movs	r0, r3
 456 007a FFF7FEFF 		bl	SPIM_1_WriteTxData
 222:hids.c        **** SPIM_1_Stop();
ARM GAS  C:\Users\Xavier\AppData\Local\Temp\ccJW6WCe.s 			page 13


 457              		.loc 1 222 0
 458 007e FFF7FEFF 		bl	SPIM_1_Stop
 223:hids.c        ****         
 224:hids.c        ****     //    if (press & 0b00000001)
 225:hids.c        ****     //    Disconnect_LED_Write(LED_ON); else Disconnect_LED_Write(LED_OFF);
 226:hids.c        ****     //     if (press & 0b00000010)   
 227:hids.c        ****     //Advertising_LED_Write(LED_ON); else Advertising_LED_Write(LED_OFF);
 228:hids.c        ****     //if (press & 0b00000100)
 229:hids.c        ****     //CapsLock_LED_Write(LED_ON); else CapsLock_LED_Write(LED_OFF);
 230:hids.c        ****     //}        
 231:hids.c        ****     Rows_Write(0);
 459              		.loc 1 231 0
 460 0082 0020     		movs	r0, #0
 461 0084 FFF7FEFF 		bl	Rows_Write
 232:hids.c        ****      
 233:hids.c        ****     
 234:hids.c        **** //	if(0u == SW2_Read())
 235:hids.c        **** //	{
 236:hids.c        **** //		if(capsLockPress < KEYBOARD_JITTER_SIZE)
 237:hids.c        **** //		{
 238:hids.c        **** //			capsLockPress++;
 239:hids.c        **** //		} 
 240:hids.c        **** //		else if(capsLockPress == KEYBOARD_JITTER_SIZE)
 241:hids.c        **** //		{
 242:hids.c        **** //			keyboard_data[2u] = CAPS_LOCK;              /* Set up keyboard data */
 243:hids.c        **** //			keyboardTimer = 1u;                         /* Clear Simulation timer to send data */
 244:hids.c        **** //			capsLockPress++;
 245:hids.c        **** //		}
 246:hids.c        **** //		else    /* Ignore long key pressing */
 247:hids.c        **** //		{
 248:hids.c        **** //            
 249:hids.c        **** //		}
 250:hids.c        **** //	}
 251:hids.c        **** //	else
 252:hids.c        **** //	{
 253:hids.c        **** //		capsLockPress = 0u;
 254:hids.c        **** //	}
 255:hids.c        **** 	
 256:hids.c        ****     
 257:hids.c        ****     
 258:hids.c        ****     
 259:hids.c        ****     
 260:hids.c        ****     
 261:hids.c        **** 
 262:hids.c        **** 	if((CyBle_GattGetBusyStatus() == CYBLE_STACK_STATE_FREE)/* && (--keyboardTimer == 0u)*/)
 462              		.loc 1 262 0
 463 0088 5B4B     		ldr	r3, .L71+8
 464 008a 1B78     		ldrb	r3, [r3]
 465 008c DBB2     		uxtb	r3, r3
 466 008e 002B     		cmp	r3, #0
 467 0090 00D0     		beq	.LCB370
 468 0092 A8E0     		b	.L70	@long jump
 469              	.LCB370:
 263:hids.c        **** 	{
 264:hids.c        **** 		//keyboardTimer = KEYBOARD_TIMEOUT;
 265:hids.c        **** 		//simKey++;
 266:hids.c        **** 		//if(simKey > SIM_KEY_MAX)
ARM GAS  C:\Users\Xavier\AppData\Local\Temp\ccJW6WCe.s 			page 14


 267:hids.c        **** 		//{
 268:hids.c        **** 		//    simKey = SIM_KEY_MIN; 
 269:hids.c        **** 		//}
 270:hids.c        **** 		//SIM_KEY_MIN expand to 4, which correspond to key "A"
 271:hids.c        **** 		//
 272:hids.c        **** 		//prevButtons = currButtons;
 273:hids.c        **** 		//currButtons = 0;
 274:hids.c        ****         //currButtons = ~currButtons;
 275:hids.c        ****         //53 Keypad Num Lock and Clear6 Sel 90 3 3 3 4/101/104
 276:hids.c        **** //54 Keypad /7 Sel 95 3 3 3 4/101/104
 277:hids.c        **** //55 Keypad * Sel 100 3 3 3 4/101/104
 278:hids.c        **** //56 Keypad - Sel 105 3 3 3 4/101/104
 279:hids.c        **** //57 Keypad + Sel 106 3 3 3 4/101/104
 280:hids.c        **** //58 Keypad ENTER3 Sel 108 3 3 3 4/101/104
 281:hids.c        **** //59 Keypad 1 and End Sel 93 3 3 3 4/101/104
 282:hids.c        **** //5A Keypad 2 and Down Arrow Sel 98 3 3 3 4/101/104
 283:hids.c        **** //5B Keypad 3 and PageDn Sel 103 3 3 3 4/101/104
 284:hids.c        **** ////5C Keypad 4 and Left Arrow Sel 92 3 3 3 4/101/104
 285:hids.c        **** //5D Keypad 5 Sel 97 3 3 3 4/101/104
 286:hids.c        **** //5E Keypad 6 and Right Arrow Sel 102 3 3 3 4/101/104
 287:hids.c        **** //5F Keypad 7 and Home Sel 91 3 3 3 4/101/104
 288:hids.c        **** //60 Keypad 8 and Up Arrow Sel 96 3 3 3 4/101/104
 289:hids.c        **** //61 Keypad 9 and PageUp Sel 101 3 3 3 4/101/104
 290:hids.c        **** //62 Keypad 0 and Insert Sel 99 3 3 3 4/101/104
 291:hids.c        **** //Usage ID Usage Name Usage Type AT-101 PC-AT Mac Unix Boot
 292:hids.c        **** //63 Keypad . and Delete Sel 104 3 3 3 4/101/104
 293:hids.c        ****         //
 294:hids.c        ****                     
 295:hids.c        ****         keyboard_data[2u] =(btpress & 0b0000000000000001)?0x59:((btpress & 0b0000000000000010)?0x5A
 470              		.loc 1 295 0
 471 0094 574B     		ldr	r3, .L71+4
 472 0096 1B68     		ldr	r3, [r3]
 473 0098 0122     		movs	r2, #1
 474 009a 1340     		ands	r3, r2
 475 009c 0FD1     		bne	.L40
 476              		.loc 1 295 0 is_stmt 0 discriminator 1
 477 009e 554B     		ldr	r3, .L71+4
 478 00a0 1B68     		ldr	r3, [r3]
 479 00a2 0222     		movs	r2, #2
 480 00a4 1340     		ands	r3, r2
 481 00a6 08D1     		bne	.L41
 482              		.loc 1 295 0 discriminator 3
 483 00a8 524B     		ldr	r3, .L71+4
 484 00aa 1B68     		ldr	r3, [r3]
 485 00ac 0422     		movs	r2, #4
 486 00ae 1340     		ands	r3, r2
 487 00b0 01D0     		beq	.L42
 488              		.loc 1 295 0 discriminator 5
 489 00b2 5B23     		movs	r3, #91
 490 00b4 04E0     		b	.L45
 491              	.L42:
 492              		.loc 1 295 0 discriminator 6
 493 00b6 0023     		movs	r3, #0
 494 00b8 02E0     		b	.L45
 495              	.L41:
 496              		.loc 1 295 0 discriminator 4
 497 00ba 5A23     		movs	r3, #90
ARM GAS  C:\Users\Xavier\AppData\Local\Temp\ccJW6WCe.s 			page 15


 498 00bc 00E0     		b	.L45
 499              	.L40:
 500              		.loc 1 295 0 discriminator 2
 501 00be 5923     		movs	r3, #89
 502              	.L45:
 503              		.loc 1 295 0 discriminator 12
 504 00c0 4E4A     		ldr	r2, .L71+12
 505 00c2 9370     		strb	r3, [r2, #2]
 296:hids.c        ****         keyboard_data[3u] = (btpress & 0b0000000000001000)?0x5C:((btpress & 0b0100000000010000)?0x5
 506              		.loc 1 296 0 is_stmt 1 discriminator 12
 507 00c4 4B4B     		ldr	r3, .L71+4
 508 00c6 1B68     		ldr	r3, [r3]
 509 00c8 0822     		movs	r2, #8
 510 00ca 1340     		ands	r3, r2
 511 00cc 0FD1     		bne	.L46
 512              		.loc 1 296 0 is_stmt 0 discriminator 1
 513 00ce 494B     		ldr	r3, .L71+4
 514 00d0 1B68     		ldr	r3, [r3]
 515 00d2 4B4A     		ldr	r2, .L71+16
 516 00d4 1340     		ands	r3, r2
 517 00d6 08D1     		bne	.L47
 518              		.loc 1 296 0 discriminator 3
 519 00d8 464B     		ldr	r3, .L71+4
 520 00da 1B68     		ldr	r3, [r3]
 521 00dc 494A     		ldr	r2, .L71+20
 522 00de 1340     		ands	r3, r2
 523 00e0 01D0     		beq	.L48
 524              		.loc 1 296 0 discriminator 5
 525 00e2 5E23     		movs	r3, #94
 526 00e4 04E0     		b	.L51
 527              	.L48:
 528              		.loc 1 296 0 discriminator 6
 529 00e6 0023     		movs	r3, #0
 530 00e8 02E0     		b	.L51
 531              	.L47:
 532              		.loc 1 296 0 discriminator 4
 533 00ea 5D23     		movs	r3, #93
 534 00ec 00E0     		b	.L51
 535              	.L46:
 536              		.loc 1 296 0 discriminator 2
 537 00ee 5C23     		movs	r3, #92
 538              	.L51:
 539              		.loc 1 296 0 discriminator 12
 540 00f0 424A     		ldr	r2, .L71+12
 541 00f2 D370     		strb	r3, [r2, #3]
 297:hids.c        **** 	       keyboard_data[4u] =(btpress & 0b0000000001000000)?0x5F:((btpress & 0b0000000010000000)?0x60
 542              		.loc 1 297 0 is_stmt 1 discriminator 12
 543 00f4 3F4B     		ldr	r3, .L71+4
 544 00f6 1B68     		ldr	r3, [r3]
 545 00f8 4022     		movs	r2, #64
 546 00fa 1340     		ands	r3, r2
 547 00fc 10D1     		bne	.L52
 548              		.loc 1 297 0 is_stmt 0 discriminator 1
 549 00fe 3D4B     		ldr	r3, .L71+4
 550 0100 1B68     		ldr	r3, [r3]
 551 0102 8022     		movs	r2, #128
 552 0104 1340     		ands	r3, r2
ARM GAS  C:\Users\Xavier\AppData\Local\Temp\ccJW6WCe.s 			page 16


 553 0106 09D1     		bne	.L53
 554              		.loc 1 297 0 discriminator 3
 555 0108 3A4B     		ldr	r3, .L71+4
 556 010a 1A68     		ldr	r2, [r3]
 557 010c 8023     		movs	r3, #128
 558 010e 5B00     		lsls	r3, r3, #1
 559 0110 1340     		ands	r3, r2
 560 0112 01D0     		beq	.L54
 561              		.loc 1 297 0 discriminator 5
 562 0114 6123     		movs	r3, #97
 563 0116 04E0     		b	.L57
 564              	.L54:
 565              		.loc 1 297 0 discriminator 6
 566 0118 0023     		movs	r3, #0
 567 011a 02E0     		b	.L57
 568              	.L53:
 569              		.loc 1 297 0 discriminator 4
 570 011c 6023     		movs	r3, #96
 571 011e 00E0     		b	.L57
 572              	.L52:
 573              		.loc 1 297 0 discriminator 2
 574 0120 5F23     		movs	r3, #95
 575              	.L57:
 576              		.loc 1 297 0 discriminator 12
 577 0122 364A     		ldr	r2, .L71+12
 578 0124 1371     		strb	r3, [r2, #4]
 298:hids.c        ****         keyboard_data[5u] = (btpress & 0b0000001000000000)?0x62:((btpress & 0b0000010000000000)?0x6
 579              		.loc 1 298 0 is_stmt 1 discriminator 12
 580 0126 334B     		ldr	r3, .L71+4
 581 0128 1A68     		ldr	r2, [r3]
 582 012a 8023     		movs	r3, #128
 583 012c 9B00     		lsls	r3, r3, #2
 584 012e 1340     		ands	r3, r2
 585 0130 11D1     		bne	.L58
 586              		.loc 1 298 0 is_stmt 0 discriminator 1
 587 0132 304B     		ldr	r3, .L71+4
 588 0134 1A68     		ldr	r2, [r3]
 589 0136 8023     		movs	r3, #128
 590 0138 DB00     		lsls	r3, r3, #3
 591 013a 1340     		ands	r3, r2
 592 013c 09D1     		bne	.L59
 593              		.loc 1 298 0 discriminator 3
 594 013e 2D4B     		ldr	r3, .L71+4
 595 0140 1A68     		ldr	r2, [r3]
 596 0142 8023     		movs	r3, #128
 597 0144 1B01     		lsls	r3, r3, #4
 598 0146 1340     		ands	r3, r2
 599 0148 01D0     		beq	.L60
 600              		.loc 1 298 0 discriminator 5
 601 014a 5823     		movs	r3, #88
 602 014c 04E0     		b	.L63
 603              	.L60:
 604              		.loc 1 298 0 discriminator 6
 605 014e 0023     		movs	r3, #0
 606 0150 02E0     		b	.L63
 607              	.L59:
 608              		.loc 1 298 0 discriminator 4
ARM GAS  C:\Users\Xavier\AppData\Local\Temp\ccJW6WCe.s 			page 17


 609 0152 6323     		movs	r3, #99
 610 0154 00E0     		b	.L63
 611              	.L58:
 612              		.loc 1 298 0 discriminator 2
 613 0156 6223     		movs	r3, #98
 614              	.L63:
 615              		.loc 1 298 0 discriminator 12
 616 0158 284A     		ldr	r2, .L71+12
 617 015a 5371     		strb	r3, [r2, #5]
 299:hids.c        ****        keyboard_data[6u] =(btpress & 0b0001000000000000)?0x53:((btpress & 0b0010000000000000)?0x54:
 618              		.loc 1 299 0 is_stmt 1 discriminator 12
 619 015c 254B     		ldr	r3, .L71+4
 620 015e 1A68     		ldr	r2, [r3]
 621 0160 8023     		movs	r3, #128
 622 0162 5B01     		lsls	r3, r3, #5
 623 0164 1340     		ands	r3, r2
 624 0166 11D1     		bne	.L64
 625              		.loc 1 299 0 is_stmt 0 discriminator 1
 626 0168 224B     		ldr	r3, .L71+4
 627 016a 1A68     		ldr	r2, [r3]
 628 016c 8023     		movs	r3, #128
 629 016e 9B01     		lsls	r3, r3, #6
 630 0170 1340     		ands	r3, r2
 631 0172 09D1     		bne	.L65
 632              		.loc 1 299 0 discriminator 3
 633 0174 1F4B     		ldr	r3, .L71+4
 634 0176 1A68     		ldr	r2, [r3]
 635 0178 8023     		movs	r3, #128
 636 017a DB01     		lsls	r3, r3, #7
 637 017c 1340     		ands	r3, r2
 638 017e 01D0     		beq	.L66
 639              		.loc 1 299 0 discriminator 5
 640 0180 5523     		movs	r3, #85
 641 0182 04E0     		b	.L69
 642              	.L66:
 643              		.loc 1 299 0 discriminator 6
 644 0184 0023     		movs	r3, #0
 645 0186 02E0     		b	.L69
 646              	.L65:
 647              		.loc 1 299 0 discriminator 4
 648 0188 5423     		movs	r3, #84
 649 018a 00E0     		b	.L69
 650              	.L64:
 651              		.loc 1 299 0 discriminator 2
 652 018c 5323     		movs	r3, #83
 653              	.L69:
 654              		.loc 1 299 0 discriminator 12
 655 018e 1B4A     		ldr	r2, .L71+12
 656 0190 9371     		strb	r3, [r2, #6]
 300:hids.c        **** 
 301:hids.c        **** 		apiResult = CyBle_HidssGetCharacteristicValue(CYBLE_HUMAN_INTERFACE_DEVICE_SERVICE_INDEX, 
 657              		.loc 1 301 0 is_stmt 1 discriminator 12
 658 0192 BC1D     		adds	r4, r7, #6
 659 0194 1C4B     		ldr	r3, .L71+24
 660 0196 0122     		movs	r2, #1
 661 0198 0021     		movs	r1, #0
 662 019a 0020     		movs	r0, #0
ARM GAS  C:\Users\Xavier\AppData\Local\Temp\ccJW6WCe.s 			page 18


 663 019c FFF7FEFF 		bl	CyBle_HidssGetCharacteristicValue
 664 01a0 0300     		movs	r3, r0
 665 01a2 2380     		strh	r3, [r4]
 302:hids.c        **** 			CYBLE_HIDS_PROTOCOL_MODE, sizeof(protocol), &protocol);
 303:hids.c        **** 		if(apiResult == CYBLE_ERROR_OK)
 666              		.loc 1 303 0 discriminator 12
 667 01a4 BB1D     		adds	r3, r7, #6
 668 01a6 1B88     		ldrh	r3, [r3]
 669 01a8 002B     		cmp	r3, #0
 670 01aa 1CD1     		bne	.L70
 304:hids.c        **** 		{
 305:hids.c        ****             /*
 306:hids.c        **** 			DBG_PRINTF("HIgD notification: ");
 307:hids.c        **** 			for(i = 0; i < KEYBOARD_DATA_SIZE; i++)
 308:hids.c        **** 			{
 309:hids.c        **** 				DBG_PRINTF("%2.2x,", keyboard_data[i]);
 310:hids.c        **** 			}
 311:hids.c        **** 			DBG_PRINTF("\r\n");
 312:hids.c        **** 			
 313:hids.c        **** 			if(protocol == CYBLE_HIDS_PROTOCOL_MODE_BOOT)
 314:hids.c        **** 			{
 315:hids.c        **** 				apiResult = CyBle_HidssSendNotification(cyBle_connHandle, CYBLE_HUMAN_INTERFACE_DEVICE_SERVICE_
 316:hids.c        **** 					CYBLE_HIDS_BOOT_KYBRD_IN_REP, KEYBOARD_DATA_SIZE, keyboard_data);
 317:hids.c        **** 			}
 318:hids.c        **** 			else
 319:hids.c        ****             */
 320:hids.c        **** 			{
 321:hids.c        **** 				apiResult = CyBle_HidssSendNotification(cyBle_connHandle, CYBLE_HUMAN_INTERFACE_DEVICE_SERVICE_
 671              		.loc 1 321 0
 672 01ac BC1D     		adds	r4, r7, #6
 673 01ae 174B     		ldr	r3, .L71+28
 674 01b0 124A     		ldr	r2, .L71+12
 675 01b2 0092     		str	r2, [sp]
 676 01b4 1A78     		ldrb	r2, [r3]
 677 01b6 5B78     		ldrb	r3, [r3, #1]
 678 01b8 1B02     		lsls	r3, r3, #8
 679 01ba 1343     		orrs	r3, r2
 680 01bc 0020     		movs	r0, #0
 681 01be 1B04     		lsls	r3, r3, #16
 682 01c0 1B0C     		lsrs	r3, r3, #16
 683 01c2 020C     		lsrs	r2, r0, #16
 684 01c4 1204     		lsls	r2, r2, #16
 685 01c6 1343     		orrs	r3, r2
 686 01c8 1800     		movs	r0, r3
 687 01ca 0823     		movs	r3, #8
 688 01cc 0722     		movs	r2, #7
 689 01ce 0021     		movs	r1, #0
 690 01d0 FFF7FEFF 		bl	CyBle_HidssSendNotification
 691 01d4 0300     		movs	r3, r0
 692 01d6 2380     		strh	r3, [r4]
 322:hids.c        **** 					CYBLE_HUMAN_INTERFACE_DEVICE_REPORT_IN, KEYBOARD_DATA_SIZE, keyboard_data);
 323:hids.c        **** 			}
 324:hids.c        **** 			//sends "keyup" after sending "keydown", most likely
 325:hids.c        **** 			if(apiResult == CYBLE_ERROR_OK)
 326:hids.c        **** 			{
 327:hids.c        **** 				//keyboard_data[2u] = 0u;                       /* Set up keyboard data*/
 328:hids.c        **** 				//keyboard_data[3u] = 0u;                       /* Set up keyboard data*/
ARM GAS  C:\Users\Xavier\AppData\Local\Temp\ccJW6WCe.s 			page 19


 329:hids.c        ****                 /*
 330:hids.c        **** 				if(protocol == CYBLE_HIDS_PROTOCOL_MODE_BOOT)
 331:hids.c        **** 				{
 332:hids.c        **** 					apiResult = CyBle_HidssSendNotification(cyBle_connHandle, CYBLE_HUMAN_INTERFACE_DEVICE_SERVICE
 333:hids.c        **** 						CYBLE_HIDS_BOOT_KYBRD_IN_REP, KEYBOARD_DATA_SIZE, keyboard_data);
 334:hids.c        **** 				}
 335:hids.c        **** 				else
 336:hids.c        ****                 */
 337:hids.c        **** 				//{
 338:hids.c        **** 				//	apiResult = CyBle_HidssSendNotification(cyBle_connHandle, CYBLE_HUMAN_INTERFACE_DEVICE_SERVI
 339:hids.c        **** 				//		CYBLE_HUMAN_INTERFACE_DEVICE_REPORT_IN, KEYBOARD_DATA_SIZE, keyboard_data);
 340:hids.c        **** 				//}
 341:hids.c        **** 			}
 342:hids.c        **** 			if(apiResult != CYBLE_ERROR_OK)
 693              		.loc 1 342 0
 694 01d8 BB1D     		adds	r3, r7, #6
 695 01da 1B88     		ldrh	r3, [r3]
 696 01dc 002B     		cmp	r3, #0
 697 01de 02D0     		beq	.L70
 343:hids.c        **** 			{
 344:hids.c        **** 				//DBG_PRINTF("HID notification API Error: %x \r\n", apiResult);
 345:hids.c        **** 				keyboardSimulation = DISABLED;
 698              		.loc 1 345 0
 699 01e0 0B4B     		ldr	r3, .L71+32
 700 01e2 0022     		movs	r2, #0
 701 01e4 1A80     		strh	r2, [r3]
 702              	.L70:
 346:hids.c        **** 			}
 347:hids.c        **** 		}
 348:hids.c        **** 	}
 349:hids.c        **** }
 703              		.loc 1 349 0
 704 01e6 C046     		nop
 705 01e8 BD46     		mov	sp, r7
 706 01ea 03B0     		add	sp, sp, #12
 707              		@ sp needed
 708 01ec 90BD     		pop	{r4, r7, pc}
 709              	.L72:
 710 01ee C046     		.align	2
 711              	.L71:
 712 01f0 00000000 		.word	kbitr
 713 01f4 00000000 		.word	btpress
 714 01f8 00000000 		.word	cyBle_busyStatus
 715 01fc 00000000 		.word	keyboard_data.8392
 716 0200 10400000 		.word	16400
 717 0204 20400000 		.word	16416
 718 0208 00000000 		.word	protocol
 719 020c 00000000 		.word	cyBle_connHandle
 720 0210 00000000 		.word	keyboardSimulation
 721              		.cfi_endproc
 722              	.LFE38:
 723              		.size	SimulateKeyboard, .-SimulateKeyboard
 724              		.bss
 725              		.align	2
 726              	keyboard_data.8392:
 727 0000 00000000 		.space	8
 727      00000000 
ARM GAS  C:\Users\Xavier\AppData\Local\Temp\ccJW6WCe.s 			page 20


 728              		.text
 729              	.Letext0:
 730              		.file 2 "c:\\program files (x86)\\cypress\\psoc creator\\4.4\\psoc creator\\import\\gnu\\arm\\5.4.
 731              		.file 3 "c:\\program files (x86)\\cypress\\psoc creator\\4.4\\psoc creator\\import\\gnu\\arm\\5.4.
 732              		.file 4 "Generated_Source\\PSoC4/cytypes.h"
 733              		.file 5 "Generated_Source\\PSoC4/BLE_Stack.h"
 734              		.file 6 "Generated_Source\\PSoC4/BLE_StackGatt.h"
 735              		.file 7 "Generated_Source\\PSoC4/BLE_hids.h"
 736              		.file 8 "Generated_Source\\PSoC4/BLE_dis.h"
 737              		.file 9 "Generated_Source\\PSoC4/BLE_eventHandler.h"
 738              		.file 10 "hids.h"