ARM GAS  C:\Users\Xavier\AppData\Local\Temp\ccuODSMO.s 			page 1


   1              		.syntax unified
   2              		.cpu cortex-m0
   3              		.fpu softvfp
   4              		.eabi_attribute 20, 1
   5              		.eabi_attribute 21, 1
   6              		.eabi_attribute 23, 3
   7              		.eabi_attribute 24, 1
   8              		.eabi_attribute 25, 1
   9              		.eabi_attribute 26, 1
  10              		.eabi_attribute 30, 6
  11              		.eabi_attribute 34, 0
  12              		.eabi_attribute 18, 4
  13              		.thumb
  14              		.syntax unified
  15              		.file	"main.c"
  16              		.text
  17              	.Ltext0:
  18              		.cfi_sections	.debug_frame
  19              		.comm	capsL,1,1
  20              		.comm	NumL,1,1
  21              		.comm	scrL,1,1
  22              		.comm	Ent,1,1
  23              		.comm	Pair,1,1
  24              		.comm	Batt,1,1
  25              		.comm	dispb,1,1
  26              		.global	mainTimer
  27              		.bss
  28              		.align	2
  29              		.type	mainTimer, %object
  30              		.size	mainTimer, 4
  31              	mainTimer:
  32 0000 00000000 		.space	4
  33              		.section	.text.AppCallBack,"ax",%progbits
  34              		.align	2
  35              		.global	AppCallBack
  36              		.code	16
  37              		.thumb_func
  38              		.type	AppCallBack, %function
  39              	AppCallBack:
  40              	.LFB36:
  41              		.file 1 "main.c"
   1:main.c        **** /*******************************************************************************
   2:main.c        **** * File Name: main.c
   3:main.c        **** *
   4:main.c        **** * Version: 1.0
   5:main.c        **** *
   6:main.c        **** * Description:
   7:main.c        **** *  BLE HID keyboard example project that supports both input and output reports
   8:main.c        **** *  in boot and protocol mode. The example also demonstrates handling suspend 
   9:main.c        **** *  event from the central device and enters low power mode when suspended.
  10:main.c        **** *
  11:main.c        **** * References:
  12:main.c        **** *  BLUETOOTH SPECIFICATION Version 4.1
  13:main.c        **** *  HID Usage Tables spec ver 1.12
  14:main.c        **** *
  15:main.c        **** * Hardware Dependency:
  16:main.c        **** *  CY8CKIT-042 BLE
ARM GAS  C:\Users\Xavier\AppData\Local\Temp\ccuODSMO.s 			page 2


  17:main.c        **** *
  18:main.c        **** ********************************************************************************
  19:main.c        **** * Copyright 2016, Cypress Semiconductor Corporation.  All rights reserved.
  20:main.c        **** * You may use this file only in accordance with the license, terms, conditions,
  21:main.c        **** * disclaimers, and limitations in the end user license agreement accompanying
  22:main.c        **** * the software package with which this file was provided.
  23:main.c        **** *******************************************************************************/
  24:main.c        **** 
  25:main.c        **** #include "common.h"
  26:main.c        **** #include "hids.h"
  27:main.c        **** #include "bas.h"
  28:main.c        **** #include "scps.h"
  29:main.c        **** 
  30:main.c        **** volatile uint32 mainTimer = 0;
  31:main.c        **** 
  32:main.c        **** 
  33:main.c        **** 
  34:main.c        **** 
  35:main.c        **** 
  36:main.c        **** 
  37:main.c        **** 
  38:main.c        **** 
  39:main.c        **** 
  40:main.c        **** 
  41:main.c        **** 
  42:main.c        **** 
  43:main.c        **** /*******************************************************************************
  44:main.c        **** * Function Name: AppCallBack()
  45:main.c        **** ********************************************************************************
  46:main.c        **** *
  47:main.c        **** * Summary:
  48:main.c        **** *   This is an event callback function to receive events from the BLE Component.
  49:main.c        **** *
  50:main.c        **** *******************************************************************************/
  51:main.c        **** void AppCallBack(uint32 event, void* eventParam)
  52:main.c        **** {
  42              		.loc 1 52 0
  43              		.cfi_startproc
  44              		@ args = 0, pretend = 0, frame = 32
  45              		@ frame_needed = 1, uses_anonymous_args = 0
  46 0000 90B5     		push	{r4, r7, lr}
  47              		.cfi_def_cfa_offset 12
  48              		.cfi_offset 4, -12
  49              		.cfi_offset 7, -8
  50              		.cfi_offset 14, -4
  51 0002 89B0     		sub	sp, sp, #36
  52              		.cfi_def_cfa_offset 48
  53 0004 00AF     		add	r7, sp, #0
  54              		.cfi_def_cfa_register 7
  55 0006 7860     		str	r0, [r7, #4]
  56 0008 3960     		str	r1, [r7]
  53:main.c        ****     CYBLE_API_RESULT_T apiResult;
  54:main.c        ****     CYBLE_GAP_BD_ADDR_T localAddr;
  55:main.c        ****     CYBLE_GAP_AUTH_INFO_T *authInfo;
  56:main.c        ****     uint8 i;
  57:main.c        ****     
  58:main.c        ****     switch (event)
ARM GAS  C:\Users\Xavier\AppData\Local\Temp\ccuODSMO.s 			page 3


  57              		.loc 1 58 0
  58 000a 7B68     		ldr	r3, [r7, #4]
  59 000c 262B     		cmp	r3, #38
  60 000e 00D1     		bne	.LCB17
  61 0010 6CE0     		b	.L3	@long jump
  62              	.LCB17:
  63 0012 22D8     		bhi	.L4
  64 0014 052B     		cmp	r3, #5
  65 0016 00D1     		bne	.LCB21
  66 0018 A1E0     		b	.L36	@long jump
  67              	.LCB21:
  68 001a 0DD8     		bhi	.L6
  69 001c 022B     		cmp	r3, #2
  70 001e 00D1     		bne	.LCB25
  71 0020 9FE0     		b	.L37	@long jump
  72              	.LCB25:
  73 0022 02D8     		bhi	.L8
  74 0024 012B     		cmp	r3, #1
  75 0026 3CD0     		beq	.L9
  59:main.c        **** 	{
  60:main.c        ****         /**********************************************************
  61:main.c        ****         *                       General Events
  62:main.c        ****         ***********************************************************/
  63:main.c        **** 		case CYBLE_EVT_STACK_ON: /* This event is received when the component is Started */
  64:main.c        ****             /* Enter into discoverable mode so that remote can search it. */
  65:main.c        ****             apiResult = CyBle_GappStartAdvertisement(CYBLE_ADVERTISING_FAST);
  66:main.c        ****             if(apiResult != CYBLE_ERROR_OK)
  67:main.c        ****             {
  68:main.c        ****                 DBG_PRINTF("StartAdvertisement API Error: %d \r\n", apiResult);
  69:main.c        ****             }
  70:main.c        ****             DBG_PRINTF("Bluetooth On, StartAdvertisement with addr: ");
  71:main.c        ****             localAddr.type = 0u;
  72:main.c        ****             CyBle_GetDeviceAddress(&localAddr);
  73:main.c        ****             for(i = CYBLE_GAP_BD_ADDR_SIZE; i > 0u; i--)
  74:main.c        ****             {
  75:main.c        ****                 DBG_PRINTF("%2.2x", localAddr.bdAddr[i-1]);
  76:main.c        ****             }
  77:main.c        ****             DBG_PRINTF("\r\n");
  78:main.c        ****             break;
  79:main.c        **** 		case CYBLE_EVT_TIMEOUT: 
  80:main.c        ****             break;
  81:main.c        **** 		case CYBLE_EVT_HARDWARE_ERROR:    /* This event indicates that some internal HW error has occurre
  82:main.c        ****             DBG_PRINTF("CYBLE_EVT_HARDWARE_ERROR \r\n");
  83:main.c        **** 			break;
  84:main.c        ****             
  85:main.c        ****     	/* This event will be triggered by host stack if BLE stack is busy or not busy.
  86:main.c        ****     	 *  Parameter corresponding to this event will be the state of BLE stack.
  87:main.c        ****     	 *  BLE stack busy = CYBLE_STACK_STATE_BUSY,
  88:main.c        ****     	 *  BLE stack not busy = CYBLE_STACK_STATE_FREE 
  89:main.c        ****          */
  90:main.c        ****     	case CYBLE_EVT_STACK_BUSY_STATUS:
  91:main.c        ****             DBG_PRINTF("CYBLE_EVT_STACK_BUSY_STATUS: %x\r\n", *(uint8 *)eventParam);
  92:main.c        ****             break;
  93:main.c        ****         case CYBLE_EVT_HCI_STATUS:
  94:main.c        ****             DBG_PRINTF("CYBLE_EVT_HCI_STATUS: %x \r\n", *(uint8 *)eventParam);
  95:main.c        **** 			break;
  96:main.c        ****             
ARM GAS  C:\Users\Xavier\AppData\Local\Temp\ccuODSMO.s 			page 4


  97:main.c        ****         /**********************************************************
  98:main.c        ****         *                       GAP Events
  99:main.c        ****         ***********************************************************/
 100:main.c        ****         case CYBLE_EVT_GAP_AUTH_REQ:
 101:main.c        ****             DBG_PRINTF("CYBLE_EVT_AUTH_REQ: security=%x, bonding=%x, ekeySize=%x, err=%x \r\n", 
 102:main.c        ****                 (*(CYBLE_GAP_AUTH_INFO_T *)eventParam).security, 
 103:main.c        ****                 (*(CYBLE_GAP_AUTH_INFO_T *)eventParam).bonding, 
 104:main.c        ****                 (*(CYBLE_GAP_AUTH_INFO_T *)eventParam).ekeySize, 
 105:main.c        ****                 (*(CYBLE_GAP_AUTH_INFO_T *)eventParam).authErr);
 106:main.c        ****             break;
 107:main.c        ****         case CYBLE_EVT_GAP_PASSKEY_ENTRY_REQUEST:
 108:main.c        ****             DBG_PRINTF("CYBLE_EVT_PASSKEY_ENTRY_REQUEST press 'p' to enter passkey \r\n");
 109:main.c        ****             break;
 110:main.c        ****         case CYBLE_EVT_GAP_PASSKEY_DISPLAY_REQUEST:
 111:main.c        ****             DBG_PRINTF("CYBLE_EVT_PASSKEY_DISPLAY_REQUEST %6.6ld \r\n", *(uint32 *)eventParam);
 112:main.c        ****             break;
 113:main.c        ****         case CYBLE_EVT_GAP_KEYINFO_EXCHNGE_CMPLT:
 114:main.c        ****             DBG_PRINTF("CYBLE_EVT_GAP_KEYINFO_EXCHNGE_CMPLT \r\n");
 115:main.c        ****             break;
 116:main.c        ****         case CYBLE_EVT_GAP_AUTH_COMPLETE:
 117:main.c        ****             authInfo = (CYBLE_GAP_AUTH_INFO_T *)eventParam;
 118:main.c        ****             (void)authInfo;
 119:main.c        ****             DBG_PRINTF("AUTH_COMPLETE: security:%x, bonding:%x, ekeySize:%x, authErr %x \r\n", 
 120:main.c        ****                                     authInfo->security, authInfo->bonding, authInfo->ekeySize, auth
 121:main.c        ****             break;
 122:main.c        ****         case CYBLE_EVT_GAP_AUTH_FAILED:
 123:main.c        ****             DBG_PRINTF("CYBLE_EVT_AUTH_FAILED: %x \r\n", *(uint8 *)eventParam);
 124:main.c        ****             break;
 125:main.c        ****         case CYBLE_EVT_GAPP_ADVERTISEMENT_START_STOP:
 126:main.c        ****             DBG_PRINTF("CYBLE_EVT_ADVERTISING, state: %x \r\n", CyBle_GetState());
 127:main.c        ****             if(CYBLE_STATE_DISCONNECTED == CyBle_GetState())
 128:main.c        ****             {   
 129:main.c        ****                 /* Fast and slow advertising period complete, go to low power  
 130:main.c        ****                  * mode (Hibernate mode) and wait for an external
 131:main.c        ****                  * user event to wake up the device again */
 132:main.c        ****                 //DBG_PRINTF("Hibernate \r\n");
 133:main.c        ****                 Advertising_LED_Write(LED_OFF);
 134:main.c        ****                 Disconnect_LED_Write(LED_ON);
 135:main.c        ****                 CapsLock_LED_Write(LED_OFF);
 136:main.c        ****                 SW2_ClearInterrupt();
 137:main.c        ****                 Wakeup_Interrupt_ClearPending();
 138:main.c        ****                 Wakeup_Interrupt_Start();
 139:main.c        ****             //#if (DEBUG_UART_ENABLED == ENABLED)
 140:main.c        ****                 /* Wait until debug info is sent */
 141:main.c        ****             //    while((UART_DEB_SpiUartGetTxBufferSize() + UART_DEB_GET_TX_FIFO_SR_VALID) != 0);
 142:main.c        ****             //#endif /* (DEBUG_UART_ENABLED == ENABLED) */
 143:main.c        ****                 CySysPmHibernate();
 144:main.c        ****             }
 145:main.c        ****             break;
 146:main.c        ****         case CYBLE_EVT_GAP_DEVICE_CONNECTED:
 147:main.c        ****             DBG_PRINTF("CYBLE_EVT_GAP_DEVICE_CONNECTED \r\n");
 148:main.c        ****             Advertising_LED_Write(LED_OFF);
 149:main.c        ****             break;
 150:main.c        ****         case CYBLE_EVT_GAP_DEVICE_DISCONNECTED:
 151:main.c        ****             DBG_PRINTF("CYBLE_EVT_GAP_DEVICE_DISCONNECTED\r\n");
 152:main.c        ****             apiResult = CyBle_GappStartAdvertisement(CYBLE_ADVERTISING_FAST);
 153:main.c        ****             if(apiResult != CYBLE_ERROR_OK)
ARM GAS  C:\Users\Xavier\AppData\Local\Temp\ccuODSMO.s 			page 5


 154:main.c        ****             {
 155:main.c        ****                 DBG_PRINTF("StartAdvertisement API Error: %d \r\n", apiResult);
 156:main.c        ****             }
 157:main.c        ****             break;
 158:main.c        ****         case CYBLE_EVT_GATTS_XCNHG_MTU_REQ:
 159:main.c        ****             { 
 160:main.c        ****                 uint16 mtu;
 161:main.c        ****                 CyBle_GattGetMtuSize(&mtu);
 162:main.c        ****                 DBG_PRINTF("CYBLE_EVT_GATTS_XCNHG_MTU_REQ, final mtu= %d \r\n", mtu);
 163:main.c        ****             }
 164:main.c        ****             break;
 165:main.c        ****         case CYBLE_EVT_GATTS_WRITE_REQ:
 166:main.c        ****             DBG_PRINTF("CYBLE_EVT_GATT_WRITE_REQ: %x = ",((CYBLE_GATTS_WRITE_REQ_PARAM_T *)eventPar
 167:main.c        ****             ShowValue(&((CYBLE_GATTS_WRITE_REQ_PARAM_T *)eventParam)->handleValPair.value);
 168:main.c        ****             (void)CyBle_GattsWriteRsp(((CYBLE_GATTS_WRITE_REQ_PARAM_T *)eventParam)->connHandle);
 169:main.c        ****             break;
 170:main.c        ****         case CYBLE_EVT_GAP_ENCRYPT_CHANGE:
 171:main.c        ****             DBG_PRINTF("CYBLE_EVT_GAP_ENCRYPT_CHANGE: %x \r\n", *(uint8 *)eventParam);
 172:main.c        ****             break;
 173:main.c        ****         case CYBLE_EVT_GAPC_CONNECTION_UPDATE_COMPLETE:
 174:main.c        ****             DBG_PRINTF("CYBLE_EVT_CONNECTION_UPDATE_COMPLETE: %x \r\n", *(uint8 *)eventParam);
 175:main.c        ****             break;
 176:main.c        ****             
 177:main.c        ****         /**********************************************************
 178:main.c        ****         *                       GATT Events
 179:main.c        ****         ***********************************************************/
 180:main.c        ****         case CYBLE_EVT_GATT_CONNECT_IND:
 181:main.c        ****             DBG_PRINTF("CYBLE_EVT_GATT_CONNECT_IND: %x, %x \r\n", cyBle_connHandle.attId, cyBle_con
 182:main.c        ****             /* Register service specific callback functions */
 183:main.c        ****             HidsInit();
 184:main.c        ****             BasInit();
 185:main.c        ****             ScpsInit();
 186:main.c        ****             break;
 187:main.c        ****         case CYBLE_EVT_GATT_DISCONNECT_IND:
 188:main.c        ****             DBG_PRINTF("CYBLE_EVT_GATT_DISCONNECT_IND \r\n");
 189:main.c        ****             break;
 190:main.c        ****         case CYBLE_EVT_GATTS_READ_CHAR_VAL_ACCESS_REQ:
 191:main.c        ****             /* Triggered on server side when client sends read request and when
 192:main.c        ****             * characteristic has CYBLE_GATT_DB_ATTR_CHAR_VAL_RD_EVENT property set.
 193:main.c        ****             * This event could be ignored by application unless it need to response..
 194:main.c        ****             * by error response which needs to be set in gattErrorCode field of
 195:main.c        ****             * event parameter. */
 196:main.c        ****             DBG_PRINTF("CYBLE_EVT_GATTS_READ_CHAR_VAL_ACCESS_REQ: handle: %x \r\n", 
 197:main.c        ****                 ((CYBLE_GATTS_CHAR_VAL_READ_REQ_T *)eventParam)->attrHandle);
 198:main.c        ****             break;
 199:main.c        ****             
 200:main.c        ****         /**********************************************************
 201:main.c        ****         *                       Other Events
 202:main.c        ****         ***********************************************************/
 203:main.c        **** 		case CYBLE_EVT_PENDING_FLASH_WRITE:
 204:main.c        ****             /* Inform application that flash write is pending. Stack internal data 
 205:main.c        ****             * structures are modified and require to be stored in Flash using 
 206:main.c        ****             * CyBle_StoreBondingData() */
 207:main.c        ****             DBG_PRINTF("CYBLE_EVT_PENDING_FLASH_WRITE\r\n");
 208:main.c        ****             break;
 209:main.c        **** 
 210:main.c        ****         default:
ARM GAS  C:\Users\Xavier\AppData\Local\Temp\ccuODSMO.s 			page 6


 211:main.c        ****             DBG_PRINTF("OTHER event: %lx \r\n", event);
 212:main.c        **** 			break;
  76              		.loc 1 212 0
  77 0028 B6E0     		b	.L34
  78              	.L8:
  58:main.c        **** 	{
  79              		.loc 1 58 0
  80 002a 032B     		cmp	r3, #3
  81 002c 00D1     		bne	.LCB35
  82 002e 9AE0     		b	.L38	@long jump
  83              	.LCB35:
  84 0030 042B     		cmp	r3, #4
  85 0032 00D1     		bne	.LCB37
  86 0034 99E0     		b	.L39	@long jump
  87              	.LCB37:
  88              		.loc 1 212 0
  89 0036 AFE0     		b	.L34
  90              	.L6:
  58:main.c        **** 	{
  91              		.loc 1 58 0
  92 0038 232B     		cmp	r3, #35
  93 003a 00D1     		bne	.LCB43
  94 003c 97E0     		b	.L40	@long jump
  95              	.LCB43:
  96 003e 06D8     		bhi	.L13
  97 0040 212B     		cmp	r3, #33
  98 0042 00D1     		bne	.LCB47
  99 0044 95E0     		b	.L41	@long jump
 100              	.LCB47:
 101 0046 222B     		cmp	r3, #34
 102 0048 00D1     		bne	.LCB49
 103 004a 94E0     		b	.L42	@long jump
 104              	.LCB49:
 105              		.loc 1 212 0
 106 004c A4E0     		b	.L34
 107              	.L13:
  58:main.c        **** 	{
 108              		.loc 1 58 0
 109 004e 242B     		cmp	r3, #36
 110 0050 49D0     		beq	.L16
 111 0052 252B     		cmp	r3, #37
 112 0054 00D1     		bne	.LCB57
 113 0056 90E0     		b	.L43	@long jump
 114              	.LCB57:
 115              		.loc 1 212 0
 116 0058 9EE0     		b	.L34
 117              	.L4:
  58:main.c        **** 	{
 118              		.loc 1 58 0
 119 005a 412B     		cmp	r3, #65
 120 005c 00D1     		bne	.LCB63
 121 005e 77E0     		b	.L18	@long jump
 122              	.LCB63:
 123 0060 0FD8     		bhi	.L19
 124 0062 292B     		cmp	r3, #41
 125 0064 00D1     		bne	.LCB67
 126 0066 8AE0     		b	.L44	@long jump
ARM GAS  C:\Users\Xavier\AppData\Local\Temp\ccuODSMO.s 			page 7


 127              	.LCB67:
 128 0068 04D8     		bhi	.L21
 129 006a 272B     		cmp	r3, #39
 130 006c 54D0     		beq	.L22
 131 006e 282B     		cmp	r3, #40
 132 0070 56D0     		beq	.L23
 133              		.loc 1 212 0
 134 0072 91E0     		b	.L34
 135              	.L21:
  58:main.c        **** 	{
 136              		.loc 1 58 0
 137 0074 2A2B     		cmp	r3, #42
 138 0076 00D1     		bne	.LCB79
 139 0078 83E0     		b	.L45	@long jump
 140              	.LCB79:
 141 007a 2C2B     		cmp	r3, #44
 142 007c 00D1     		bne	.LCB81
 143 007e 82E0     		b	.L46	@long jump
 144              	.LCB81:
 145              		.loc 1 212 0
 146 0080 8AE0     		b	.L34
 147              	.L19:
  58:main.c        **** 	{
 148              		.loc 1 58 0
 149 0082 4C2B     		cmp	r3, #76
 150 0084 5AD0     		beq	.L26
 151 0086 05D8     		bhi	.L27
 152 0088 422B     		cmp	r3, #66
 153 008a 00D1     		bne	.LCB91
 154 008c 7DE0     		b	.L47	@long jump
 155              	.LCB91:
 156 008e 432B     		cmp	r3, #67
 157 0090 4ED0     		beq	.L29
 158              		.loc 1 212 0
 159 0092 81E0     		b	.L34
 160              	.L27:
  58:main.c        **** 	{
 161              		.loc 1 58 0
 162 0094 572B     		cmp	r3, #87
 163 0096 00D1     		bne	.LCB99
 164 0098 79E0     		b	.L48	@long jump
 165              	.LCB99:
 166 009a FA2B     		cmp	r3, #250
 167 009c 00D1     		bne	.LCB101
 168 009e 78E0     		b	.L49	@long jump
 169              	.LCB101:
 170              		.loc 1 212 0
 171 00a0 7AE0     		b	.L34
 172              	.L9:
  65:main.c        ****             if(apiResult != CYBLE_ERROR_OK)
 173              		.loc 1 65 0
 174 00a2 1C23     		movs	r3, #28
 175 00a4 FC18     		adds	r4, r7, r3
 176 00a6 0020     		movs	r0, #0
 177 00a8 FFF7FEFF 		bl	CyBle_GappStartAdvertisement
 178 00ac 0300     		movs	r3, r0
 179 00ae 2380     		strh	r3, [r4]
ARM GAS  C:\Users\Xavier\AppData\Local\Temp\ccuODSMO.s 			page 8


  71:main.c        ****             CyBle_GetDeviceAddress(&localAddr);
 180              		.loc 1 71 0
 181 00b0 1023     		movs	r3, #16
 182 00b2 FB18     		adds	r3, r7, r3
 183 00b4 0022     		movs	r2, #0
 184 00b6 9A71     		strb	r2, [r3, #6]
  72:main.c        ****             for(i = CYBLE_GAP_BD_ADDR_SIZE; i > 0u; i--)
 185              		.loc 1 72 0
 186 00b8 1023     		movs	r3, #16
 187 00ba FB18     		adds	r3, r7, r3
 188 00bc 1800     		movs	r0, r3
 189 00be FFF7FEFF 		bl	CyBle_GetDeviceAddress
  73:main.c        ****             {
 190              		.loc 1 73 0
 191 00c2 1F23     		movs	r3, #31
 192 00c4 FB18     		adds	r3, r7, r3
 193 00c6 0622     		movs	r2, #6
 194 00c8 1A70     		strb	r2, [r3]
 195 00ca 06E0     		b	.L32
 196              	.L33:
  73:main.c        ****             {
 197              		.loc 1 73 0 is_stmt 0 discriminator 3
 198 00cc 1F23     		movs	r3, #31
 199 00ce FB18     		adds	r3, r7, r3
 200 00d0 1A78     		ldrb	r2, [r3]
 201 00d2 1F23     		movs	r3, #31
 202 00d4 FB18     		adds	r3, r7, r3
 203 00d6 013A     		subs	r2, r2, #1
 204 00d8 1A70     		strb	r2, [r3]
 205              	.L32:
  73:main.c        ****             {
 206              		.loc 1 73 0 discriminator 1
 207 00da 1F23     		movs	r3, #31
 208 00dc FB18     		adds	r3, r7, r3
 209 00de 1B78     		ldrb	r3, [r3]
 210 00e0 002B     		cmp	r3, #0
 211 00e2 F3D1     		bne	.L33
  78:main.c        **** 		case CYBLE_EVT_TIMEOUT: 
 212              		.loc 1 78 0 is_stmt 1
 213 00e4 58E0     		b	.L34
 214              	.L16:
 117:main.c        ****             (void)authInfo;
 215              		.loc 1 117 0
 216 00e6 3B68     		ldr	r3, [r7]
 217 00e8 BB61     		str	r3, [r7, #24]
 121:main.c        ****         case CYBLE_EVT_GAP_AUTH_FAILED:
 218              		.loc 1 121 0
 219 00ea 55E0     		b	.L34
 220              	.L3:
 127:main.c        ****             {   
 221              		.loc 1 127 0
 222 00ec 2C4B     		ldr	r3, .L51
 223 00ee 1B78     		ldrb	r3, [r3]
 224 00f0 042B     		cmp	r3, #4
 225 00f2 50D1     		bne	.L50
 133:main.c        ****                 Disconnect_LED_Write(LED_ON);
 226              		.loc 1 133 0
ARM GAS  C:\Users\Xavier\AppData\Local\Temp\ccuODSMO.s 			page 9


 227 00f4 0120     		movs	r0, #1
 228 00f6 FFF7FEFF 		bl	Advertising_LED_Write
 134:main.c        ****                 CapsLock_LED_Write(LED_OFF);
 229              		.loc 1 134 0
 230 00fa 0020     		movs	r0, #0
 231 00fc FFF7FEFF 		bl	Disconnect_LED_Write
 135:main.c        ****                 SW2_ClearInterrupt();
 232              		.loc 1 135 0
 233 0100 0120     		movs	r0, #1
 234 0102 FFF7FEFF 		bl	CapsLock_LED_Write
 136:main.c        ****                 Wakeup_Interrupt_ClearPending();
 235              		.loc 1 136 0
 236 0106 FFF7FEFF 		bl	SW2_ClearInterrupt
 137:main.c        ****                 Wakeup_Interrupt_Start();
 237              		.loc 1 137 0
 238 010a FFF7FEFF 		bl	Wakeup_Interrupt_ClearPending
 138:main.c        ****             //#if (DEBUG_UART_ENABLED == ENABLED)
 239              		.loc 1 138 0
 240 010e FFF7FEFF 		bl	Wakeup_Interrupt_Start
 143:main.c        ****             }
 241              		.loc 1 143 0
 242 0112 FFF7FEFF 		bl	CySysPmHibernate
 145:main.c        ****         case CYBLE_EVT_GAP_DEVICE_CONNECTED:
 243              		.loc 1 145 0
 244 0116 3EE0     		b	.L50
 245              	.L22:
 148:main.c        ****             break;
 246              		.loc 1 148 0
 247 0118 0120     		movs	r0, #1
 248 011a FFF7FEFF 		bl	Advertising_LED_Write
 149:main.c        ****         case CYBLE_EVT_GAP_DEVICE_DISCONNECTED:
 249              		.loc 1 149 0
 250 011e 3BE0     		b	.L34
 251              	.L23:
 152:main.c        ****             if(apiResult != CYBLE_ERROR_OK)
 252              		.loc 1 152 0
 253 0120 1C23     		movs	r3, #28
 254 0122 FC18     		adds	r4, r7, r3
 255 0124 0020     		movs	r0, #0
 256 0126 FFF7FEFF 		bl	CyBle_GappStartAdvertisement
 257 012a 0300     		movs	r3, r0
 258 012c 2380     		strh	r3, [r4]
 157:main.c        ****         case CYBLE_EVT_GATTS_XCNHG_MTU_REQ:
 259              		.loc 1 157 0
 260 012e 33E0     		b	.L34
 261              	.L29:
 262              	.LBB2:
 161:main.c        ****                 DBG_PRINTF("CYBLE_EVT_GATTS_XCNHG_MTU_REQ, final mtu= %d \r\n", mtu);
 263              		.loc 1 161 0 discriminator 13
 264 0130 0E23     		movs	r3, #14
 265 0132 FB18     		adds	r3, r7, r3
 266 0134 1800     		movs	r0, r3
 267 0136 FFF7FEFF 		bl	CyBle_GattGetMtuSize
 268              	.LBE2:
 164:main.c        ****         case CYBLE_EVT_GATTS_WRITE_REQ:
 269              		.loc 1 164 0 discriminator 13
 270 013a 2DE0     		b	.L34
ARM GAS  C:\Users\Xavier\AppData\Local\Temp\ccuODSMO.s 			page 10


 271              	.L26:
 167:main.c        ****             (void)CyBle_GattsWriteRsp(((CYBLE_GATTS_WRITE_REQ_PARAM_T *)eventParam)->connHandle);
 272              		.loc 1 167 0
 273 013c 3B68     		ldr	r3, [r7]
 274 013e 0433     		adds	r3, r3, #4
 275 0140 1800     		movs	r0, r3
 276 0142 FFF7FEFF 		bl	ShowValue
 168:main.c        ****             break;
 277              		.loc 1 168 0
 278 0146 3B68     		ldr	r3, [r7]
 279 0148 1868     		ldr	r0, [r3]
 280 014a FFF7FEFF 		bl	CyBle_GattsWriteRsp
 169:main.c        ****         case CYBLE_EVT_GAP_ENCRYPT_CHANGE:
 281              		.loc 1 169 0
 282 014e 23E0     		b	.L34
 283              	.L18:
 183:main.c        ****             BasInit();
 284              		.loc 1 183 0
 285 0150 FFF7FEFF 		bl	HidsInit
 184:main.c        ****             ScpsInit();
 286              		.loc 1 184 0
 287 0154 FFF7FEFF 		bl	BasInit
 185:main.c        ****             break;
 288              		.loc 1 185 0
 289 0158 FFF7FEFF 		bl	ScpsInit
 186:main.c        ****         case CYBLE_EVT_GATT_DISCONNECT_IND:
 290              		.loc 1 186 0
 291 015c 1CE0     		b	.L34
 292              	.L36:
  92:main.c        ****         case CYBLE_EVT_HCI_STATUS:
 293              		.loc 1 92 0
 294 015e C046     		nop
 295 0160 1AE0     		b	.L34
 296              	.L37:
  80:main.c        **** 		case CYBLE_EVT_HARDWARE_ERROR:    /* This event indicates that some internal HW error has occurre
 297              		.loc 1 80 0
 298 0162 C046     		nop
 299 0164 18E0     		b	.L34
 300              	.L38:
  83:main.c        ****             
 301              		.loc 1 83 0
 302 0166 C046     		nop
 303 0168 16E0     		b	.L34
 304              	.L39:
  95:main.c        ****             
 305              		.loc 1 95 0
 306 016a C046     		nop
 307 016c 14E0     		b	.L34
 308              	.L40:
 112:main.c        ****         case CYBLE_EVT_GAP_KEYINFO_EXCHNGE_CMPLT:
 309              		.loc 1 112 0
 310 016e C046     		nop
 311 0170 12E0     		b	.L34
 312              	.L41:
 106:main.c        ****         case CYBLE_EVT_GAP_PASSKEY_ENTRY_REQUEST:
 313              		.loc 1 106 0
 314 0172 C046     		nop
ARM GAS  C:\Users\Xavier\AppData\Local\Temp\ccuODSMO.s 			page 11


 315 0174 10E0     		b	.L34
 316              	.L42:
 109:main.c        ****         case CYBLE_EVT_GAP_PASSKEY_DISPLAY_REQUEST:
 317              		.loc 1 109 0
 318 0176 C046     		nop
 319 0178 0EE0     		b	.L34
 320              	.L43:
 124:main.c        ****         case CYBLE_EVT_GAPP_ADVERTISEMENT_START_STOP:
 321              		.loc 1 124 0
 322 017a C046     		nop
 323 017c 0CE0     		b	.L34
 324              	.L44:
 172:main.c        ****         case CYBLE_EVT_GAPC_CONNECTION_UPDATE_COMPLETE:
 325              		.loc 1 172 0
 326 017e C046     		nop
 327 0180 0AE0     		b	.L34
 328              	.L45:
 175:main.c        ****             
 329              		.loc 1 175 0
 330 0182 C046     		nop
 331 0184 08E0     		b	.L34
 332              	.L46:
 115:main.c        ****         case CYBLE_EVT_GAP_AUTH_COMPLETE:
 333              		.loc 1 115 0
 334 0186 C046     		nop
 335 0188 06E0     		b	.L34
 336              	.L47:
 189:main.c        ****         case CYBLE_EVT_GATTS_READ_CHAR_VAL_ACCESS_REQ:
 337              		.loc 1 189 0
 338 018a C046     		nop
 339 018c 04E0     		b	.L34
 340              	.L48:
 198:main.c        ****             
 341              		.loc 1 198 0
 342 018e C046     		nop
 343 0190 02E0     		b	.L34
 344              	.L49:
 208:main.c        **** 
 345              		.loc 1 208 0
 346 0192 C046     		nop
 347 0194 00E0     		b	.L34
 348              	.L50:
 145:main.c        ****         case CYBLE_EVT_GAP_DEVICE_CONNECTED:
 349              		.loc 1 145 0
 350 0196 C046     		nop
 351              	.L34:
 213:main.c        **** 	}
 214:main.c        **** 
 215:main.c        **** }
 352              		.loc 1 215 0 discriminator 1
 353 0198 C046     		nop
 354 019a BD46     		mov	sp, r7
 355 019c 09B0     		add	sp, sp, #36
 356              		@ sp needed
 357 019e 90BD     		pop	{r4, r7, pc}
 358              	.L52:
 359              		.align	2
ARM GAS  C:\Users\Xavier\AppData\Local\Temp\ccuODSMO.s 			page 12


 360              	.L51:
 361 01a0 00000000 		.word	cyBle_state
 362              		.cfi_endproc
 363              	.LFE36:
 364              		.size	AppCallBack, .-AppCallBack
 365              		.section	.text.Timer_Interrupt,"ax",%progbits
 366              		.align	2
 367              		.global	Timer_Interrupt
 368              		.code	16
 369              		.thumb_func
 370              		.type	Timer_Interrupt, %function
 371              	Timer_Interrupt:
 372              	.LFB37:
 216:main.c        **** 
 217:main.c        **** 
 218:main.c        **** /*******************************************************************************
 219:main.c        **** * Function Name: Timer_Interrupt
 220:main.c        **** ********************************************************************************
 221:main.c        **** *
 222:main.c        **** * Summary:
 223:main.c        **** *  Handles the Interrupt Service Routine for the WDT timer.
 224:main.c        **** *
 225:main.c        **** *******************************************************************************/
 226:main.c        **** CY_ISR(Timer_Interrupt)
 227:main.c        **** {
 373              		.loc 1 227 0
 374              		.cfi_startproc
 375              		@ args = 0, pretend = 0, frame = 0
 376              		@ frame_needed = 1, uses_anonymous_args = 0
 377 0000 80B5     		push	{r7, lr}
 378              		.cfi_def_cfa_offset 8
 379              		.cfi_offset 7, -8
 380              		.cfi_offset 14, -4
 381 0002 00AF     		add	r7, sp, #0
 382              		.cfi_def_cfa_register 7
 228:main.c        ****     if(CySysWdtGetInterruptSource() & WDT_INTERRUPT_SOURCE)
 383              		.loc 1 228 0
 384 0004 FFF7FEFF 		bl	CySysWdtGetInterruptSource
 385 0008 0200     		movs	r2, r0
 386 000a 8023     		movs	r3, #128
 387 000c DB00     		lsls	r3, r3, #3
 388 000e 1340     		ands	r3, r2
 389 0010 25D0     		beq	.L56
 390              	.LBB3:
 229:main.c        ****     {
 230:main.c        ****         static uint8 led = LED_OFF;
 231:main.c        ****         static uint32 ledTimer = LED_TIMEOUT;
 232:main.c        ****     
 233:main.c        ****         /* Blink green LED to indicate that device advertises */
 234:main.c        ****         if(CyBle_GetState() == CYBLE_STATE_ADVERTISING)
 391              		.loc 1 234 0
 392 0012 144B     		ldr	r3, .L57
 393 0014 1B78     		ldrb	r3, [r3]
 394 0016 032B     		cmp	r3, #3
 395 0018 17D1     		bne	.L55
 235:main.c        ****         {
 236:main.c        ****             if(--ledTimer == 0u) 
ARM GAS  C:\Users\Xavier\AppData\Local\Temp\ccuODSMO.s 			page 13


 396              		.loc 1 236 0
 397 001a 134B     		ldr	r3, .L57+4
 398 001c 1B68     		ldr	r3, [r3]
 399 001e 5A1E     		subs	r2, r3, #1
 400 0020 114B     		ldr	r3, .L57+4
 401 0022 1A60     		str	r2, [r3]
 402 0024 104B     		ldr	r3, .L57+4
 403 0026 1B68     		ldr	r3, [r3]
 404 0028 002B     		cmp	r3, #0
 405 002a 0ED1     		bne	.L55
 237:main.c        ****             {
 238:main.c        ****                 ledTimer = LED_TIMEOUT;
 406              		.loc 1 238 0
 407 002c 0E4B     		ldr	r3, .L57+4
 408 002e 0A22     		movs	r2, #10
 409 0030 1A60     		str	r2, [r3]
 239:main.c        ****                 led ^= LED_OFF;
 410              		.loc 1 239 0
 411 0032 0E4B     		ldr	r3, .L57+8
 412 0034 1B78     		ldrb	r3, [r3]
 413 0036 0122     		movs	r2, #1
 414 0038 5340     		eors	r3, r2
 415 003a DAB2     		uxtb	r2, r3
 416 003c 0B4B     		ldr	r3, .L57+8
 417 003e 1A70     		strb	r2, [r3]
 240:main.c        ****                 Advertising_LED_Write(led);
 418              		.loc 1 240 0
 419 0040 0A4B     		ldr	r3, .L57+8
 420 0042 1B78     		ldrb	r3, [r3]
 421 0044 1800     		movs	r0, r3
 422 0046 FFF7FEFF 		bl	Advertising_LED_Write
 423              	.L55:
 241:main.c        ****             }
 242:main.c        ****         }
 243:main.c        ****         
 244:main.c        ****         /* Indicate that timer is raised to the main loop */
 245:main.c        ****         mainTimer++;
 424              		.loc 1 245 0
 425 004a 094B     		ldr	r3, .L57+12
 426 004c 1B68     		ldr	r3, [r3]
 427 004e 5A1C     		adds	r2, r3, #1
 428 0050 074B     		ldr	r3, .L57+12
 429 0052 1A60     		str	r2, [r3]
 246:main.c        ****         
 247:main.c        ****         /* Clears interrupt request  */
 248:main.c        ****         CySysWdtClearInterrupt(WDT_INTERRUPT_SOURCE);
 430              		.loc 1 248 0
 431 0054 8023     		movs	r3, #128
 432 0056 DB00     		lsls	r3, r3, #3
 433 0058 1800     		movs	r0, r3
 434 005a FFF7FEFF 		bl	CySysWdtClearInterrupt
 435              	.L56:
 436              	.LBE3:
 249:main.c        ****     }
 250:main.c        **** }
 437              		.loc 1 250 0
 438 005e C046     		nop
ARM GAS  C:\Users\Xavier\AppData\Local\Temp\ccuODSMO.s 			page 14


 439 0060 BD46     		mov	sp, r7
 440              		@ sp needed
 441 0062 80BD     		pop	{r7, pc}
 442              	.L58:
 443              		.align	2
 444              	.L57:
 445 0064 00000000 		.word	cyBle_state
 446 0068 00000000 		.word	ledTimer.8390
 447 006c 04000000 		.word	led.8389
 448 0070 00000000 		.word	mainTimer
 449              		.cfi_endproc
 450              	.LFE37:
 451              		.size	Timer_Interrupt, .-Timer_Interrupt
 452              		.section	.text.WDT_Start,"ax",%progbits
 453              		.align	2
 454              		.global	WDT_Start
 455              		.code	16
 456              		.thumb_func
 457              		.type	WDT_Start, %function
 458              	WDT_Start:
 459              	.LFB38:
 251:main.c        **** 
 252:main.c        **** /*******************************************************************************
 253:main.c        **** * Function Name: WDT_Start
 254:main.c        **** ********************************************************************************
 255:main.c        **** *
 256:main.c        **** * Summary:
 257:main.c        **** *  Configures WDT to trigger an interrupt.
 258:main.c        **** *
 259:main.c        **** *******************************************************************************/
 260:main.c        **** 
 261:main.c        **** void WDT_Start(void)
 262:main.c        **** {
 460              		.loc 1 262 0
 461              		.cfi_startproc
 462              		@ args = 0, pretend = 0, frame = 0
 463              		@ frame_needed = 1, uses_anonymous_args = 0
 464 0000 80B5     		push	{r7, lr}
 465              		.cfi_def_cfa_offset 8
 466              		.cfi_offset 7, -8
 467              		.cfi_offset 14, -4
 468 0002 00AF     		add	r7, sp, #0
 469              		.cfi_def_cfa_register 7
 263:main.c        ****     /* Unlock the WDT registers for modification */
 264:main.c        **** //    CySysWdtUnlock(); 
 265:main.c        ****     /* Setup ISR */
 266:main.c        **** //    WDT_Interrupt_StartEx(&Timer_Interrupt);
 267:main.c        ****     /* Write the mode to generate interrupt on match */
 268:main.c        **** //    CySysWdtWriteMode(WDT_COUNTER, CY_SYS_WDT_MODE_INT);
 269:main.c        ****     /* Configure the WDT counter clear on a match setting */
 270:main.c        **** //    CySysWdtWriteClearOnMatch(WDT_COUNTER, WDT_COUNTER_ENABLE);
 271:main.c        ****     /* Configure the WDT counter match comparison value */
 272:main.c        **** //    CySysWdtWriteMatch(WDT_COUNTER, WDT_TIMEOUT);
 273:main.c        ****     /* Reset WDT counter */
 274:main.c        **** //    CySysWdtResetCounters(WDT_COUNTER);
 275:main.c        ****     /* Enable the specified WDT counter */
 276:main.c        **** //    CySysWdtEnable(WDT_COUNTER_MASK);
ARM GAS  C:\Users\Xavier\AppData\Local\Temp\ccuODSMO.s 			page 15


 277:main.c        ****     /* Lock out configuration changes to the Watchdog timer registers */
 278:main.c        **** //    CySysWdtLock();    
 279:main.c        **** }
 470              		.loc 1 279 0
 471 0004 C046     		nop
 472 0006 BD46     		mov	sp, r7
 473              		@ sp needed
 474 0008 80BD     		pop	{r7, pc}
 475              		.cfi_endproc
 476              	.LFE38:
 477              		.size	WDT_Start, .-WDT_Start
 478              		.section	.text.WDT_Stop,"ax",%progbits
 479              		.align	2
 480              		.global	WDT_Stop
 481              		.code	16
 482              		.thumb_func
 483              		.type	WDT_Stop, %function
 484              	WDT_Stop:
 485              	.LFB39:
 280:main.c        **** 
 281:main.c        **** 
 282:main.c        **** /*******************************************************************************
 283:main.c        **** * Function Name: WDT_Stop
 284:main.c        **** ********************************************************************************
 285:main.c        **** *
 286:main.c        **** * Summary:
 287:main.c        **** *  This API stops the WDT timer.
 288:main.c        **** *
 289:main.c        **** *******************************************************************************/
 290:main.c        **** void WDT_Stop(void)
 291:main.c        **** {
 486              		.loc 1 291 0
 487              		.cfi_startproc
 488              		@ args = 0, pretend = 0, frame = 0
 489              		@ frame_needed = 1, uses_anonymous_args = 0
 490 0000 80B5     		push	{r7, lr}
 491              		.cfi_def_cfa_offset 8
 492              		.cfi_offset 7, -8
 493              		.cfi_offset 14, -4
 494 0002 00AF     		add	r7, sp, #0
 495              		.cfi_def_cfa_register 7
 292:main.c        ****     /* Unlock the WDT registers for modification */
 293:main.c        **** //    CySysWdtUnlock(); 
 294:main.c        ****     /* Disable the specified WDT counter */
 295:main.c        **** //    CySysWdtDisable(WDT_COUNTER_MASK);
 296:main.c        ****     /* Locks out configuration changes to the Watchdog timer registers */
 297:main.c        **** //    CySysWdtLock();    
 298:main.c        **** }
 496              		.loc 1 298 0
 497 0004 C046     		nop
 498 0006 BD46     		mov	sp, r7
 499              		@ sp needed
 500 0008 80BD     		pop	{r7, pc}
 501              		.cfi_endproc
 502              	.LFE39:
 503              		.size	WDT_Stop, .-WDT_Stop
 504              		.section	.text.LowPowerImplementation,"ax",%progbits
ARM GAS  C:\Users\Xavier\AppData\Local\Temp\ccuODSMO.s 			page 16


 505              		.align	2
 506              		.code	16
 507              		.thumb_func
 508              		.type	LowPowerImplementation, %function
 509              	LowPowerImplementation:
 510              	.LFB40:
 299:main.c        **** 
 300:main.c        **** /*******************************************************************************
 301:main.c        **** * Function Name: LowPowerImplementation()
 302:main.c        **** ********************************************************************************
 303:main.c        **** * Summary:
 304:main.c        **** * Implements low power in the project.
 305:main.c        **** *
 306:main.c        **** * Parameters:
 307:main.c        **** * None
 308:main.c        **** *
 309:main.c        **** * Return:
 310:main.c        **** * None
 311:main.c        **** *
 312:main.c        **** * Theory:
 313:main.c        **** * The function tries to enter deep sleep as much as possible - whenever the 
 314:main.c        **** * BLE is idle and the UART transmission/reception is not happening. At all other
 315:main.c        **** * times, the function tries to enter CPU sleep.
 316:main.c        **** *
 317:main.c        **** *******************************************************************************/
 318:main.c        **** static void LowPowerImplementation(void)
 319:main.c        **** {
 511              		.loc 1 319 0
 512              		.cfi_startproc
 513              		@ args = 0, pretend = 0, frame = 8
 514              		@ frame_needed = 1, uses_anonymous_args = 0
 515 0000 90B5     		push	{r4, r7, lr}
 516              		.cfi_def_cfa_offset 12
 517              		.cfi_offset 4, -12
 518              		.cfi_offset 7, -8
 519              		.cfi_offset 14, -4
 520 0002 83B0     		sub	sp, sp, #12
 521              		.cfi_def_cfa_offset 24
 522 0004 00AF     		add	r7, sp, #0
 523              		.cfi_def_cfa_register 7
 320:main.c        ****     CYBLE_LP_MODE_T bleMode;
 321:main.c        ****     uint8 interruptStatus;
 322:main.c        ****     
 323:main.c        ****     /* For advertising and connected states, implement deep sleep 
 324:main.c        ****      * functionality to achieve low power in the system. For more details
 325:main.c        ****      * on the low power implementation, refer to the Low Power Application 
 326:main.c        ****      * Note.
 327:main.c        ****      */
 328:main.c        ****     if((CyBle_GetState() == CYBLE_STATE_ADVERTISING) || 
 524              		.loc 1 328 0
 525 0006 1A4B     		ldr	r3, .L69
 526 0008 1B78     		ldrb	r3, [r3]
 527 000a 032B     		cmp	r3, #3
 528 000c 03D0     		beq	.L62
 329:main.c        ****        (CyBle_GetState() == CYBLE_STATE_CONNECTED))
 529              		.loc 1 329 0 discriminator 1
 530 000e 184B     		ldr	r3, .L69
ARM GAS  C:\Users\Xavier\AppData\Local\Temp\ccuODSMO.s 			page 17


 531 0010 1B78     		ldrb	r3, [r3]
 328:main.c        ****        (CyBle_GetState() == CYBLE_STATE_CONNECTED))
 532              		.loc 1 328 0 discriminator 1
 533 0012 022B     		cmp	r3, #2
 534 0014 27D1     		bne	.L68
 535              	.L62:
 330:main.c        ****     {
 331:main.c        ****         /* Request BLE subsystem to enter into Deep-Sleep mode between connection and advertising i
 332:main.c        ****         bleMode = CyBle_EnterLPM(CYBLE_BLESS_DEEPSLEEP);
 536              		.loc 1 332 0
 537 0016 FC1D     		adds	r4, r7, #7
 538 0018 0320     		movs	r0, #3
 539 001a FFF7FEFF 		bl	CyBle_EnterLPM
 540 001e 0300     		movs	r3, r0
 541 0020 2370     		strb	r3, [r4]
 333:main.c        ****         /* Disable global interrupts */
 334:main.c        ****         interruptStatus = CyEnterCriticalSection();
 542              		.loc 1 334 0
 543 0022 BC1D     		adds	r4, r7, #6
 544 0024 FFF7FEFF 		bl	CyEnterCriticalSection
 545 0028 0300     		movs	r3, r0
 546 002a 2370     		strb	r3, [r4]
 335:main.c        ****         /* When BLE subsystem has been put into Deep-Sleep mode */
 336:main.c        ****         if(bleMode == CYBLE_BLESS_DEEPSLEEP)
 547              		.loc 1 336 0
 548 002c FB1D     		adds	r3, r7, #7
 549 002e 1B78     		ldrb	r3, [r3]
 550 0030 032B     		cmp	r3, #3
 551 0032 0CD1     		bne	.L64
 337:main.c        ****         {
 338:main.c        ****             /* And it is still there or ECO is on */
 339:main.c        ****             if((CyBle_GetBleSsState() == CYBLE_BLESS_STATE_ECO_ON) || 
 552              		.loc 1 339 0
 553 0034 FFF7FEFF 		bl	CyBle_GetBleSsState
 554 0038 0300     		movs	r3, r0
 555 003a 042B     		cmp	r3, #4
 556 003c 04D0     		beq	.L65
 340:main.c        ****                (CyBle_GetBleSsState() == CYBLE_BLESS_STATE_DEEPSLEEP))
 557              		.loc 1 340 0 discriminator 1
 558 003e FFF7FEFF 		bl	CyBle_GetBleSsState
 559 0042 0300     		movs	r3, r0
 339:main.c        ****                (CyBle_GetBleSsState() == CYBLE_BLESS_STATE_DEEPSLEEP))
 560              		.loc 1 339 0 discriminator 1
 561 0044 062B     		cmp	r3, #6
 562 0046 09D1     		bne	.L67
 563              	.L65:
 341:main.c        ****             {
 342:main.c        ****             //#if (DEBUG_UART_ENABLED == ENABLED)
 343:main.c        ****             //    /* Put the CPU into the Deep-Sleep mode when all debug information has been sent 
 344:main.c        ****             //    if((UART_DEB_SpiUartGetTxBufferSize() + UART_DEB_GET_TX_FIFO_SR_VALID) == 0u)
 345:main.c        ****             //    {
 346:main.c        ****             //        CySysPmDeepSleep();
 347:main.c        ****             //    }
 348:main.c        ****             //    else /* Put the CPU into Sleep mode and let SCB to continue sending debug data */
 349:main.c        ****             //    {
 350:main.c        ****             //        CySysPmSleep();
 351:main.c        ****             //    }
ARM GAS  C:\Users\Xavier\AppData\Local\Temp\ccuODSMO.s 			page 18


 352:main.c        ****             //#else
 353:main.c        ****                 CySysPmDeepSleep();
 564              		.loc 1 353 0
 565 0048 FFF7FEFF 		bl	CySysPmDeepSleep
 566 004c 06E0     		b	.L67
 567              	.L64:
 354:main.c        ****             //#endif /* (DEBUG_UART_ENABLED == ENABLED) */
 355:main.c        ****             }
 356:main.c        ****         }
 357:main.c        ****         else /* When BLE subsystem has been put into Sleep mode or is active */
 358:main.c        ****         {
 359:main.c        ****             /* And hardware doesn't finish Tx/Rx opeation - put the CPU into Sleep mode */
 360:main.c        ****             if(CyBle_GetBleSsState() != CYBLE_BLESS_STATE_EVENT_CLOSE)
 568              		.loc 1 360 0
 569 004e FFF7FEFF 		bl	CyBle_GetBleSsState
 570 0052 0300     		movs	r3, r0
 571 0054 022B     		cmp	r3, #2
 572 0056 01D0     		beq	.L67
 361:main.c        ****             {
 362:main.c        ****                 CySysPmSleep();
 573              		.loc 1 362 0
 574 0058 FFF7FEFF 		bl	CySysPmSleep
 575              	.L67:
 363:main.c        ****             }
 364:main.c        ****         }
 365:main.c        ****         /* Enable global interrupt */
 366:main.c        ****         CyExitCriticalSection(interruptStatus);
 576              		.loc 1 366 0
 577 005c BB1D     		adds	r3, r7, #6
 578 005e 1B78     		ldrb	r3, [r3]
 579 0060 1800     		movs	r0, r3
 580 0062 FFF7FEFF 		bl	CyExitCriticalSection
 581              	.L68:
 367:main.c        ****     }
 368:main.c        **** }
 582              		.loc 1 368 0
 583 0066 C046     		nop
 584 0068 BD46     		mov	sp, r7
 585 006a 03B0     		add	sp, sp, #12
 586              		@ sp needed
 587 006c 90BD     		pop	{r4, r7, pc}
 588              	.L70:
 589 006e C046     		.align	2
 590              	.L69:
 591 0070 00000000 		.word	cyBle_state
 592              		.cfi_endproc
 593              	.LFE40:
 594              		.size	LowPowerImplementation, .-LowPowerImplementation
 595              		.section	.text.main,"ax",%progbits
 596              		.align	2
 597              		.global	main
 598              		.code	16
 599              		.thumb_func
 600              		.type	main, %function
 601              	main:
 602              	.LFB41:
 369:main.c        **** 
ARM GAS  C:\Users\Xavier\AppData\Local\Temp\ccuODSMO.s 			page 19


 370:main.c        **** 
 371:main.c        **** /*******************************************************************************
 372:main.c        **** * Function Name: main()
 373:main.c        **** ********************************************************************************
 374:main.c        **** * Summary:
 375:main.c        **** *  Main function for the project.
 376:main.c        **** *
 377:main.c        **** * Parameters:
 378:main.c        **** *  None
 379:main.c        **** *
 380:main.c        **** * Return:
 381:main.c        **** *  None
 382:main.c        **** *
 383:main.c        **** * Theory:
 384:main.c        **** *  The function starts BLE and UART components.
 385:main.c        **** *  This function process all BLE events and also implements the low power 
 386:main.c        **** *  functionality.
 387:main.c        **** *
 388:main.c        **** *******************************************************************************/
 389:main.c        **** 
 390:main.c        **** 
 391:main.c        **** 
 392:main.c        **** //maybe just have a single uint8 holding all the flags;
 393:main.c        **** 
 394:main.c        **** 
 395:main.c        **** 
 396:main.c        **** 
 397:main.c        **** int main()
 398:main.c        **** {
 603              		.loc 1 398 0
 604              		.cfi_startproc
 605              		@ args = 0, pretend = 0, frame = 8
 606              		@ frame_needed = 1, uses_anonymous_args = 0
 607 0000 80B5     		push	{r7, lr}
 608              		.cfi_def_cfa_offset 8
 609              		.cfi_offset 7, -8
 610              		.cfi_offset 14, -4
 611 0002 82B0     		sub	sp, sp, #8
 612              		.cfi_def_cfa_offset 16
 613 0004 00AF     		add	r7, sp, #0
 614              		.cfi_def_cfa_register 7
 399:main.c        ****     //CyGlobalIntEnable;  
 400:main.c        **** 
 401:main.c        **** //#if (DEBUG_UART_ENABLED == ENABLED)
 402:main.c        **** //    UART_DEB_Start();
 403:main.c        **** //#endif /* (DEBUG_UART_ENABLED == ENABLED) */
 404:main.c        **** //    DBG_PRINTF("BLE HID Keyboard Example Project \r\n");
 405:main.c        **** 
 406:main.c        ****     
 407:main.c        **** Disconnect_LED_Write(LED_ON);
 615              		.loc 1 407 0
 616 0006 0020     		movs	r0, #0
 617 0008 FFF7FEFF 		bl	Disconnect_LED_Write
 408:main.c        ****     Advertising_LED_Write(LED_ON);
 618              		.loc 1 408 0
 619 000c 0020     		movs	r0, #0
 620 000e FFF7FEFF 		bl	Advertising_LED_Write
ARM GAS  C:\Users\Xavier\AppData\Local\Temp\ccuODSMO.s 			page 20


 409:main.c        ****     CapsLock_LED_Write(LED_ON);
 621              		.loc 1 409 0
 622 0012 0020     		movs	r0, #0
 623 0014 FFF7FEFF 		bl	CapsLock_LED_Write
 410:main.c        ****     DP_CLR_Write(0);
 624              		.loc 1 410 0
 625 0018 0020     		movs	r0, #0
 626 001a FFF7FEFF 		bl	DP_CLR_Write
 411:main.c        ****     CyDelay(1000);
 627              		.loc 1 411 0
 628 001e FA23     		movs	r3, #250
 629 0020 9B00     		lsls	r3, r3, #2
 630 0022 1800     		movs	r0, r3
 631 0024 FFF7FEFF 		bl	CyDelay
 412:main.c        ****     SPIM_1_Init();
 632              		.loc 1 412 0
 633 0028 FFF7FEFF 		bl	SPIM_1_Init
 413:main.c        ****     SPIM_1_Enable();
 634              		.loc 1 413 0
 635 002c FFF7FEFF 		bl	SPIM_1_Enable
 414:main.c        ****     DP_CLR_Write(1); 
 636              		.loc 1 414 0
 637 0030 0120     		movs	r0, #1
 638 0032 FFF7FEFF 		bl	DP_CLR_Write
 415:main.c        ****     Disconnect_LED_Write(LED_OFF);
 639              		.loc 1 415 0
 640 0036 0120     		movs	r0, #1
 641 0038 FFF7FEFF 		bl	Disconnect_LED_Write
 416:main.c        ****     Advertising_LED_Write(LED_OFF);
 642              		.loc 1 416 0
 643 003c 0120     		movs	r0, #1
 644 003e FFF7FEFF 		bl	Advertising_LED_Write
 417:main.c        ****     CapsLock_LED_Write(LED_OFF);
 645              		.loc 1 417 0
 646 0042 0120     		movs	r0, #1
 647 0044 FFF7FEFF 		bl	CapsLock_LED_Write
 418:main.c        ****     
 419:main.c        **** SPIM_1_Start();
 648              		.loc 1 419 0
 649 0048 FFF7FEFF 		bl	SPIM_1_Start
 420:main.c        **** SPIM_1_WriteByte(dispb);
 650              		.loc 1 420 0
 651 004c 1E4B     		ldr	r3, .L75
 652 004e 1B78     		ldrb	r3, [r3]
 653 0050 5BB2     		sxtb	r3, r3
 654 0052 DBB2     		uxtb	r3, r3
 655 0054 1800     		movs	r0, r3
 656 0056 FFF7FEFF 		bl	SPIM_1_WriteTxData
 421:main.c        **** SPIM_1_Stop();
 657              		.loc 1 421 0
 658 005a FFF7FEFF 		bl	SPIM_1_Stop
 422:main.c        **** uint32_t press = 0;
 659              		.loc 1 422 0
 660 005e 0023     		movs	r3, #0
 661 0060 7B60     		str	r3, [r7, #4]
 662              	.L74:
 423:main.c        ****     uint8 i;
ARM GAS  C:\Users\Xavier\AppData\Local\Temp\ccuODSMO.s 			page 21


 424:main.c        **** while(1) {
 425:main.c        **** 
 426:main.c        ****  press = 0;
 663              		.loc 1 426 0
 664 0062 0023     		movs	r3, #0
 665 0064 7B60     		str	r3, [r7, #4]
 427:main.c        **** 
 428:main.c        ****     
 429:main.c        ****     for (i=0; i<5; i++) {
 666              		.loc 1 429 0
 667 0066 FB1C     		adds	r3, r7, #3
 668 0068 0022     		movs	r2, #0
 669 006a 1A70     		strb	r2, [r3]
 670 006c 1DE0     		b	.L72
 671              	.L73:
 430:main.c        ****         Rows_Write(1 << i);
 672              		.loc 1 430 0 discriminator 3
 673 006e FB1C     		adds	r3, r7, #3
 674 0070 1B78     		ldrb	r3, [r3]
 675 0072 0122     		movs	r2, #1
 676 0074 9A40     		lsls	r2, r2, r3
 677 0076 1300     		movs	r3, r2
 678 0078 DBB2     		uxtb	r3, r3
 679 007a 1800     		movs	r0, r3
 680 007c FFF7FEFF 		bl	Rows_Write
 431:main.c        ****     //for (j=0;j<3;j++) {
 432:main.c        ****         press <<= 3;
 681              		.loc 1 432 0 discriminator 3
 682 0080 7B68     		ldr	r3, [r7, #4]
 683 0082 DB00     		lsls	r3, r3, #3
 684 0084 7B60     		str	r3, [r7, #4]
 433:main.c        ****         press += Columns_Read();
 685              		.loc 1 433 0 discriminator 3
 686 0086 FFF7FEFF 		bl	Columns_Read
 687 008a 0300     		movs	r3, r0
 688 008c 1A00     		movs	r2, r3
 689 008e 7B68     		ldr	r3, [r7, #4]
 690 0090 9B18     		adds	r3, r3, r2
 691 0092 7B60     		str	r3, [r7, #4]
 434:main.c        ****     //    if (press & 0b00000001)
 435:main.c        ****     //    Disconnect_LED_Write(LED_ON); else Disconnect_LED_Write(LED_OFF);
 436:main.c        ****     //     if (press & 0b00000010)   
 437:main.c        ****     //Advertising_LED_Write(LED_ON); else Advertising_LED_Write(LED_OFF);
 438:main.c        ****     //if (press & 0b00000100)
 439:main.c        ****     //CapsLock_LED_Write(LED_ON); else CapsLock_LED_Write(LED_OFF);
 440:main.c        ****     //}        
 441:main.c        ****     Rows_Write(0);
 692              		.loc 1 441 0 discriminator 3
 693 0094 0020     		movs	r0, #0
 694 0096 FFF7FEFF 		bl	Rows_Write
 442:main.c        ****     CyDelay(10);
 695              		.loc 1 442 0 discriminator 3
 696 009a 0A20     		movs	r0, #10
 697 009c FFF7FEFF 		bl	CyDelay
 429:main.c        ****         Rows_Write(1 << i);
 698              		.loc 1 429 0 discriminator 3
 699 00a0 FB1C     		adds	r3, r7, #3
ARM GAS  C:\Users\Xavier\AppData\Local\Temp\ccuODSMO.s 			page 22


 700 00a2 1A78     		ldrb	r2, [r3]
 701 00a4 FB1C     		adds	r3, r7, #3
 702 00a6 0132     		adds	r2, r2, #1
 703 00a8 1A70     		strb	r2, [r3]
 704              	.L72:
 429:main.c        ****         Rows_Write(1 << i);
 705              		.loc 1 429 0 is_stmt 0 discriminator 1
 706 00aa FB1C     		adds	r3, r7, #3
 707 00ac 1B78     		ldrb	r3, [r3]
 708 00ae 042B     		cmp	r3, #4
 709 00b0 DDD9     		bls	.L73
 443:main.c        ****     }
 444:main.c        **** SPIM_1_Start();
 710              		.loc 1 444 0 is_stmt 1
 711 00b2 FFF7FEFF 		bl	SPIM_1_Start
 445:main.c        **** SPIM_1_WriteByte((uint8)press);
 712              		.loc 1 445 0
 713 00b6 7B68     		ldr	r3, [r7, #4]
 714 00b8 DBB2     		uxtb	r3, r3
 715 00ba 1800     		movs	r0, r3
 716 00bc FFF7FEFF 		bl	SPIM_1_WriteTxData
 446:main.c        **** SPIM_1_Stop();
 717              		.loc 1 446 0
 718 00c0 FFF7FEFF 		bl	SPIM_1_Stop
 447:main.c        **** 
 448:main.c        **** }
 719              		.loc 1 448 0
 720 00c4 CDE7     		b	.L74
 721              	.L76:
 722 00c6 C046     		.align	2
 723              	.L75:
 724 00c8 00000000 		.word	dispb
 725              		.cfi_endproc
 726              	.LFE41:
 727              		.size	main, .-main
 728              		.data
 729              		.align	2
 730              		.type	ledTimer.8390, %object
 731              		.size	ledTimer.8390, 4
 732              	ledTimer.8390:
 733 0000 0A000000 		.word	10
 734              		.type	led.8389, %object
 735              		.size	led.8389, 1
 736              	led.8389:
 737 0004 01       		.byte	1
 738              		.text
 739              	.Letext0:
 740              		.file 2 "c:\\program files (x86)\\cypress\\psoc creator\\4.4\\psoc creator\\import\\gnu\\arm\\5.4.
 741              		.file 3 "c:\\program files (x86)\\cypress\\psoc creator\\4.4\\psoc creator\\import\\gnu\\arm\\5.4.
 742              		.file 4 "Generated_Source\\PSoC4/cytypes.h"
 743              		.file 5 "Generated_Source\\PSoC4/BLE_Stack.h"
 744              		.file 6 "Generated_Source\\PSoC4/BLE_StackGap.h"
 745              		.file 7 "Generated_Source\\PSoC4/BLE_StackGatt.h"
 746              		.file 8 "Generated_Source\\PSoC4/BLE_StackGattServer.h"
 747              		.file 9 "Generated_Source\\PSoC4/BLE_dis.h"
 748              		.file 10 "Generated_Source\\PSoC4/BLE_eventHandler.h"
 749              		.file 11 "Generated_Source\\PSoC4/BLE.h"
ARM GAS  C:\Users\Xavier\AppData\Local\Temp\ccuODSMO.s 			page 23


 750              		.file 12 "common.h"
 751              		.file 13 "hids.h"