ARM GAS  C:\Users\Xavier\AppData\Local\Temp\ccVczh50.s 			page 1


   1              		.syntax unified
   2              		.cpu cortex-m0
   3              		.fpu softvfp
   4              		.eabi_attribute 20, 1
   5              		.eabi_attribute 21, 1
   6              		.eabi_attribute 23, 3
   7              		.eabi_attribute 24, 1
   8              		.eabi_attribute 25, 1
   9              		.eabi_attribute 26, 1
  10              		.eabi_attribute 30, 6
  11              		.eabi_attribute 34, 0
  12              		.eabi_attribute 18, 4
  13              		.thumb
  14              		.syntax unified
  15              		.file	"scps.c"
  16              		.text
  17              	.Ltext0:
  18              		.cfi_sections	.debug_frame
  19              		.comm	capsL,1,1
  20              		.comm	NumL,1,1
  21              		.comm	scrL,1,1
  22              		.comm	Ent,1,1
  23              		.comm	Pair,1,1
  24              		.comm	Batt,1,1
  25              		.comm	dispb,1,1
  26              		.global	requestScanRefresh
  27              		.bss
  28              		.align	1
  29              		.type	requestScanRefresh, %object
  30              		.size	requestScanRefresh, 2
  31              	requestScanRefresh:
  32 0000 0000     		.space	2
  33              		.global	scanInterval
  34              		.align	1
  35              		.type	scanInterval, %object
  36              		.size	scanInterval, 2
  37              	scanInterval:
  38 0002 0000     		.space	2
  39              		.global	scanWindow
  40              		.align	1
  41              		.type	scanWindow, %object
  42              		.size	scanWindow, 2
  43              	scanWindow:
  44 0004 0000     		.space	2
  45              		.section	.text.ScpsCallBack,"ax",%progbits
  46              		.align	2
  47              		.global	ScpsCallBack
  48              		.code	16
  49              		.thumb_func
  50              		.type	ScpsCallBack, %function
  51              	ScpsCallBack:
  52              	.LFB36:
  53              		.file 1 "scps.c"
   1:scps.c        **** /*******************************************************************************
   2:scps.c        **** * File Name: scps.c
   3:scps.c        **** *
   4:scps.c        **** * Version: 1.0
ARM GAS  C:\Users\Xavier\AppData\Local\Temp\ccVczh50.s 			page 2


   5:scps.c        **** *
   6:scps.c        **** * Description:
   7:scps.c        **** *  This file contains SCPS callback handler function.
   8:scps.c        **** *
   9:scps.c        **** * Hardware Dependency:
  10:scps.c        **** *  CY8CKIT-042 BLE
  11:scps.c        **** * 
  12:scps.c        **** ********************************************************************************
  13:scps.c        **** * Copyright 2016, Cypress Semiconductor Corporation.  All rights reserved.
  14:scps.c        **** * You may use this file only in accordance with the license, terms, conditions,
  15:scps.c        **** * disclaimers, and limitations in the end user license agreement accompanying
  16:scps.c        **** * the software package with which this file was provided.
  17:scps.c        **** *******************************************************************************/
  18:scps.c        **** 
  19:scps.c        **** #include "common.h"
  20:scps.c        **** #include "scps.h"
  21:scps.c        **** 
  22:scps.c        **** uint16 requestScanRefresh = 0u;
  23:scps.c        **** uint16 scanInterval = 0u;
  24:scps.c        **** uint16 scanWindow = 0u;
  25:scps.c        **** 
  26:scps.c        **** 
  27:scps.c        **** /*******************************************************************************
  28:scps.c        **** * Function Name: ScpsCallBack()
  29:scps.c        **** ********************************************************************************
  30:scps.c        **** *
  31:scps.c        **** * Summary:
  32:scps.c        **** *   This is an event callback function to receive service specific events from 
  33:scps.c        **** *   SCPS Service.
  34:scps.c        **** *
  35:scps.c        **** * Parameters:
  36:scps.c        **** *  event - the event code
  37:scps.c        **** *  *eventParam - the event parameters
  38:scps.c        **** *
  39:scps.c        **** * Return:
  40:scps.c        **** *  None.
  41:scps.c        **** *
  42:scps.c        **** ********************************************************************************/
  43:scps.c        **** void ScpsCallBack (uint32 event, void *eventParam)
  44:scps.c        **** {
  54              		.loc 1 44 0
  55              		.cfi_startproc
  56              		@ args = 0, pretend = 0, frame = 8
  57              		@ frame_needed = 1, uses_anonymous_args = 0
  58 0000 80B5     		push	{r7, lr}
  59              		.cfi_def_cfa_offset 8
  60              		.cfi_offset 7, -8
  61              		.cfi_offset 14, -4
  62 0002 82B0     		sub	sp, sp, #8
  63              		.cfi_def_cfa_offset 16
  64 0004 00AF     		add	r7, sp, #0
  65              		.cfi_def_cfa_register 7
  66 0006 7860     		str	r0, [r7, #4]
  67 0008 3960     		str	r1, [r7]
  45:scps.c        ****     //DBG_PRINTF("SCPS event: %lx, ", event);
  46:scps.c        ****     switch(event)
  68              		.loc 1 46 0
ARM GAS  C:\Users\Xavier\AppData\Local\Temp\ccVczh50.s 			page 3


  69 000a 7B68     		ldr	r3, [r7, #4]
  70 000c F73B     		subs	r3, r3, #247
  71 000e FF3B     		subs	r3, r3, #255
  72 0010 052B     		cmp	r3, #5
  73 0012 22D8     		bhi	.L11
  74 0014 9A00     		lsls	r2, r3, #2
  75 0016 144B     		ldr	r3, .L13
  76 0018 D318     		adds	r3, r2, r3
  77 001a 1B68     		ldr	r3, [r3]
  78 001c 9F46     		mov	pc, r3
  79              		.section	.rodata
  80              		.align	2
  81              	.L4:
  82 0000 1E000000 		.word	.L3
  83 0004 26000000 		.word	.L5
  84 0008 2E000000 		.word	.L6
  85 000c 5E000000 		.word	.L12
  86 0010 5E000000 		.word	.L12
  87 0014 5E000000 		.word	.L12
  88              		.section	.text.ScpsCallBack
  89              	.L3:
  47:scps.c        ****     {
  48:scps.c        ****         case CYBLE_EVT_SCPSS_NOTIFICATION_ENABLED:
  49:scps.c        ****             //DBG_PRINTF("CYBLE_EVT_SCPSS_NOTIFICATION_ENABLED \r\n");
  50:scps.c        ****             requestScanRefresh = ENABLED;
  90              		.loc 1 50 0
  91 001e 134B     		ldr	r3, .L13+4
  92 0020 0122     		movs	r2, #1
  93 0022 1A80     		strh	r2, [r3]
  51:scps.c        ****             break;
  94              		.loc 1 51 0
  95 0024 1CE0     		b	.L10
  96              	.L5:
  52:scps.c        ****         case CYBLE_EVT_SCPSS_NOTIFICATION_DISABLED:
  53:scps.c        ****             //DBG_PRINTF("CYBLE_EVT_SCPSS_NOTIFICATION_DISABLED \r\n");
  54:scps.c        ****             requestScanRefresh = DISABLED;
  97              		.loc 1 54 0
  98 0026 114B     		ldr	r3, .L13+4
  99 0028 0022     		movs	r2, #0
 100 002a 1A80     		strh	r2, [r3]
  55:scps.c        ****             break;
 101              		.loc 1 55 0
 102 002c 18E0     		b	.L10
 103              	.L6:
  56:scps.c        ****         case CYBLE_EVT_SCPSS_SCAN_INT_WIN_CHAR_WRITE:
  57:scps.c        ****             scanInterval = CyBle_Get16ByPtr(((CYBLE_SCPS_CHAR_VALUE_T *)eventParam)->value->val);
 104              		.loc 1 57 0
 105 002e 3B68     		ldr	r3, [r7]
 106 0030 5B68     		ldr	r3, [r3, #4]
 107 0032 1B68     		ldr	r3, [r3]
 108 0034 1800     		movs	r0, r3
 109 0036 FFF7FEFF 		bl	CyBle_Get16ByPtr
 110 003a 0300     		movs	r3, r0
 111 003c 1A00     		movs	r2, r3
 112 003e 0C4B     		ldr	r3, .L13+8
 113 0040 1A80     		strh	r2, [r3]
  58:scps.c        ****             scanWindow = CyBle_Get16ByPtr(((CYBLE_SCPS_CHAR_VALUE_T *)eventParam)->value->val + siz
ARM GAS  C:\Users\Xavier\AppData\Local\Temp\ccVczh50.s 			page 4


 114              		.loc 1 58 0
 115 0042 3B68     		ldr	r3, [r7]
 116 0044 5B68     		ldr	r3, [r3, #4]
 117 0046 1B68     		ldr	r3, [r3]
 118 0048 0233     		adds	r3, r3, #2
 119 004a 1800     		movs	r0, r3
 120 004c FFF7FEFF 		bl	CyBle_Get16ByPtr
 121 0050 0300     		movs	r3, r0
 122 0052 1A00     		movs	r2, r3
 123 0054 074B     		ldr	r3, .L13+12
 124 0056 1A80     		strh	r2, [r3]
  59:scps.c        ****             //DBG_PRINTF("CYBLE_EVT_SCPSS_SCAN_INT_WIN_CHAR_WRITE scanInterval: %x, scanWindow: %x 
  60:scps.c        ****             break;
 125              		.loc 1 60 0
 126 0058 02E0     		b	.L10
 127              	.L11:
  61:scps.c        ****         case CYBLE_EVT_SCPSC_NOTIFICATION:
  62:scps.c        ****             break;
  63:scps.c        ****         case CYBLE_EVT_SCPSC_READ_DESCR_RESPONSE:
  64:scps.c        ****             break;
  65:scps.c        ****         case CYBLE_EVT_SCPSC_WRITE_DESCR_RESPONSE:
  66:scps.c        ****             break;
  67:scps.c        ****         default:
  68:scps.c        ****             //DBG_PRINTF("Not supported event\r\n");
  69:scps.c        **** 			break;
 128              		.loc 1 69 0
 129 005a C046     		nop
 130 005c 00E0     		b	.L10
 131              	.L12:
  66:scps.c        ****         default:
 132              		.loc 1 66 0
 133 005e C046     		nop
 134              	.L10:
  70:scps.c        ****     }
  71:scps.c        **** }
 135              		.loc 1 71 0
 136 0060 C046     		nop
 137 0062 BD46     		mov	sp, r7
 138 0064 02B0     		add	sp, sp, #8
 139              		@ sp needed
 140 0066 80BD     		pop	{r7, pc}
 141              	.L14:
 142              		.align	2
 143              	.L13:
 144 0068 00000000 		.word	.L4
 145 006c 00000000 		.word	requestScanRefresh
 146 0070 00000000 		.word	scanInterval
 147 0074 00000000 		.word	scanWindow
 148              		.cfi_endproc
 149              	.LFE36:
 150              		.size	ScpsCallBack, .-ScpsCallBack
 151              		.section	.text.ScpsInit,"ax",%progbits
 152              		.align	2
 153              		.global	ScpsInit
 154              		.code	16
 155              		.thumb_func
 156              		.type	ScpsInit, %function
ARM GAS  C:\Users\Xavier\AppData\Local\Temp\ccVczh50.s 			page 5


 157              	ScpsInit:
 158              	.LFB37:
  72:scps.c        **** 
  73:scps.c        **** 
  74:scps.c        **** /*******************************************************************************
  75:scps.c        **** * Function Name: ScpsInit()
  76:scps.c        **** ********************************************************************************
  77:scps.c        **** *
  78:scps.c        **** * Summary:
  79:scps.c        **** *   Initializes the SCPS Service.
  80:scps.c        **** *
  81:scps.c        **** *******************************************************************************/
  82:scps.c        **** void ScpsInit(void)
  83:scps.c        **** {
 159              		.loc 1 83 0
 160              		.cfi_startproc
 161              		@ args = 0, pretend = 0, frame = 8
 162              		@ frame_needed = 1, uses_anonymous_args = 0
 163 0000 90B5     		push	{r4, r7, lr}
 164              		.cfi_def_cfa_offset 12
 165              		.cfi_offset 4, -12
 166              		.cfi_offset 7, -8
 167              		.cfi_offset 14, -4
 168 0002 83B0     		sub	sp, sp, #12
 169              		.cfi_def_cfa_offset 24
 170 0004 00AF     		add	r7, sp, #0
 171              		.cfi_def_cfa_register 7
  84:scps.c        ****     CYBLE_API_RESULT_T apiResult;
  85:scps.c        ****     uint16 cccdValue;
  86:scps.c        ****     
  87:scps.c        ****     /* Register service specific callback function */
  88:scps.c        ****     CyBle_ScpsRegisterAttrCallback(ScpsCallBack);
 172              		.loc 1 88 0
 173 0006 104B     		ldr	r3, .L18
 174 0008 1800     		movs	r0, r3
 175 000a FFF7FEFF 		bl	CyBle_ScpsRegisterAttrCallback
  89:scps.c        **** 
  90:scps.c        ****     /* Read CCCD configurations from flash */
  91:scps.c        ****     apiResult = CyBle_ScpssGetCharacteristicDescriptor(CYBLE_SCPS_SCAN_REFRESH,
 176              		.loc 1 91 0
 177 000e BC1D     		adds	r4, r7, #6
 178 0010 3B1D     		adds	r3, r7, #4
 179 0012 0222     		movs	r2, #2
 180 0014 0021     		movs	r1, #0
 181 0016 0120     		movs	r0, #1
 182 0018 FFF7FEFF 		bl	CyBle_ScpssGetCharacteristicDescriptor
 183 001c 0300     		movs	r3, r0
 184 001e 2380     		strh	r3, [r4]
  92:scps.c        ****         CYBLE_SCPS_SCAN_REFRESH_CCCD, CYBLE_CCCD_LEN, (uint8 *)&cccdValue);
  93:scps.c        ****     if((apiResult == CYBLE_ERROR_OK) && (cccdValue != 0u))
 185              		.loc 1 93 0
 186 0020 BB1D     		adds	r3, r7, #6
 187 0022 1B88     		ldrh	r3, [r3]
 188 0024 002B     		cmp	r3, #0
 189 0026 0AD1     		bne	.L17
 190              		.loc 1 93 0 is_stmt 0 discriminator 1
 191 0028 3B1D     		adds	r3, r7, #4
ARM GAS  C:\Users\Xavier\AppData\Local\Temp\ccVczh50.s 			page 6


 192 002a 1B88     		ldrh	r3, [r3]
 193 002c 002B     		cmp	r3, #0
 194 002e 06D0     		beq	.L17
  94:scps.c        ****     {
  95:scps.c        ****         requestScanRefresh |= ENABLED;
 195              		.loc 1 95 0 is_stmt 1
 196 0030 064B     		ldr	r3, .L18+4
 197 0032 1B88     		ldrh	r3, [r3]
 198 0034 0122     		movs	r2, #1
 199 0036 1343     		orrs	r3, r2
 200 0038 9AB2     		uxth	r2, r3
 201 003a 044B     		ldr	r3, .L18+4
 202 003c 1A80     		strh	r2, [r3]
 203              	.L17:
  96:scps.c        ****     }
  97:scps.c        **** }
 204              		.loc 1 97 0
 205 003e C046     		nop
 206 0040 BD46     		mov	sp, r7
 207 0042 03B0     		add	sp, sp, #12
 208              		@ sp needed
 209 0044 90BD     		pop	{r4, r7, pc}
 210              	.L19:
 211 0046 C046     		.align	2
 212              	.L18:
 213 0048 00000000 		.word	ScpsCallBack
 214 004c 00000000 		.word	requestScanRefresh
 215              		.cfi_endproc
 216              	.LFE37:
 217              		.size	ScpsInit, .-ScpsInit
 218              		.text
 219              	.Letext0:
 220              		.file 2 "Generated_Source\\PSoC4/cytypes.h"
 221              		.file 3 "Generated_Source\\PSoC4/BLE_Stack.h"
 222              		.file 4 "Generated_Source\\PSoC4/BLE_StackGatt.h"
 223              		.file 5 "Generated_Source\\PSoC4/BLE_dis.h"
 224              		.file 6 "Generated_Source\\PSoC4/BLE_scps.h"
 225              		.file 7 "Generated_Source\\PSoC4/BLE_eventHandler.h"
 226              		.file 8 "common.h"