ARM GAS  C:\Users\Xavier\AppData\Local\Temp\ccRqEeQz.s 			page 1


   1              		.syntax unified
   2              		.cpu cortex-m0
   3              		.fpu softvfp
   4              		.eabi_attribute 20, 1
   5              		.eabi_attribute 21, 1
   6              		.eabi_attribute 23, 3
   7              		.eabi_attribute 24, 1
   8              		.eabi_attribute 25, 1
   9              		.eabi_attribute 26, 1
  10              		.eabi_attribute 30, 4
  11              		.eabi_attribute 34, 0
  12              		.eabi_attribute 18, 4
  13              		.thumb
  14              		.syntax unified
  15              		.file	"Buttons.c"
  16              		.text
  17              	.Ltext0:
  18              		.cfi_sections	.debug_frame
  19              		.section	.text.Buttons_SetDriveMode,"ax",%progbits
  20              		.align	1
  21              		.global	Buttons_SetDriveMode
  22              		.code	16
  23              		.thumb_func
  24              		.type	Buttons_SetDriveMode, %function
  25              	Buttons_SetDriveMode:
  26              	.LFB0:
  27              		.file 1 "Generated_Source\\PSoC4\\Buttons.c"
   1:Generated_Source\PSoC4/Buttons.c **** /*******************************************************************************
   2:Generated_Source\PSoC4/Buttons.c **** * File Name: Buttons.c  
   3:Generated_Source\PSoC4/Buttons.c **** * Version 2.20
   4:Generated_Source\PSoC4/Buttons.c **** *
   5:Generated_Source\PSoC4/Buttons.c **** * Description:
   6:Generated_Source\PSoC4/Buttons.c **** *  This file contains API to enable firmware control of a Pins component.
   7:Generated_Source\PSoC4/Buttons.c **** *
   8:Generated_Source\PSoC4/Buttons.c **** ********************************************************************************
   9:Generated_Source\PSoC4/Buttons.c **** * Copyright 2008-2015, Cypress Semiconductor Corporation.  All rights reserved.
  10:Generated_Source\PSoC4/Buttons.c **** * You may use this file only in accordance with the license, terms, conditions, 
  11:Generated_Source\PSoC4/Buttons.c **** * disclaimers, and limitations in the end user license agreement accompanying 
  12:Generated_Source\PSoC4/Buttons.c **** * the software package with which this file was provided.
  13:Generated_Source\PSoC4/Buttons.c **** *******************************************************************************/
  14:Generated_Source\PSoC4/Buttons.c **** 
  15:Generated_Source\PSoC4/Buttons.c **** #include "cytypes.h"
  16:Generated_Source\PSoC4/Buttons.c **** #include "Buttons.h"
  17:Generated_Source\PSoC4/Buttons.c **** 
  18:Generated_Source\PSoC4/Buttons.c **** 
  19:Generated_Source\PSoC4/Buttons.c **** #if defined(Buttons__PC)
  20:Generated_Source\PSoC4/Buttons.c ****     #define Buttons_SetP4PinDriveMode(shift, mode)  \
  21:Generated_Source\PSoC4/Buttons.c ****     do { \
  22:Generated_Source\PSoC4/Buttons.c ****         Buttons_PC =   (Buttons_PC & \
  23:Generated_Source\PSoC4/Buttons.c ****                                 (uint32)(~(uint32)(Buttons_DRIVE_MODE_IND_MASK << \
  24:Generated_Source\PSoC4/Buttons.c ****                                 (Buttons_DRIVE_MODE_BITS * (shift))))) | \
  25:Generated_Source\PSoC4/Buttons.c ****                                 (uint32)((uint32)(mode) << \
  26:Generated_Source\PSoC4/Buttons.c ****                                 (Buttons_DRIVE_MODE_BITS * (shift))); \
  27:Generated_Source\PSoC4/Buttons.c ****     } while (0)
  28:Generated_Source\PSoC4/Buttons.c **** #else
  29:Generated_Source\PSoC4/Buttons.c ****     #if (CY_PSOC4_4200L)
  30:Generated_Source\PSoC4/Buttons.c ****         #define Buttons_SetP4PinDriveMode(shift, mode)  \
ARM GAS  C:\Users\Xavier\AppData\Local\Temp\ccRqEeQz.s 			page 2


  31:Generated_Source\PSoC4/Buttons.c ****         do { \
  32:Generated_Source\PSoC4/Buttons.c ****             Buttons_USBIO_CTRL_REG = (Buttons_USBIO_CTRL_REG & \
  33:Generated_Source\PSoC4/Buttons.c ****                                     (uint32)(~(uint32)(Buttons_DRIVE_MODE_IND_MASK << \
  34:Generated_Source\PSoC4/Buttons.c ****                                     (Buttons_DRIVE_MODE_BITS * (shift))))) | \
  35:Generated_Source\PSoC4/Buttons.c ****                                     (uint32)((uint32)(mode) << \
  36:Generated_Source\PSoC4/Buttons.c ****                                     (Buttons_DRIVE_MODE_BITS * (shift))); \
  37:Generated_Source\PSoC4/Buttons.c ****         } while (0)
  38:Generated_Source\PSoC4/Buttons.c ****     #endif
  39:Generated_Source\PSoC4/Buttons.c **** #endif
  40:Generated_Source\PSoC4/Buttons.c ****   
  41:Generated_Source\PSoC4/Buttons.c **** 
  42:Generated_Source\PSoC4/Buttons.c **** #if defined(Buttons__PC) || (CY_PSOC4_4200L) 
  43:Generated_Source\PSoC4/Buttons.c ****     /*******************************************************************************
  44:Generated_Source\PSoC4/Buttons.c ****     * Function Name: Buttons_SetDriveMode
  45:Generated_Source\PSoC4/Buttons.c ****     ****************************************************************************//**
  46:Generated_Source\PSoC4/Buttons.c ****     *
  47:Generated_Source\PSoC4/Buttons.c ****     * \brief Sets the drive mode for each of the Pins component's pins.
  48:Generated_Source\PSoC4/Buttons.c ****     * 
  49:Generated_Source\PSoC4/Buttons.c ****     * <b>Note</b> This affects all pins in the Pins component instance. Use the
  50:Generated_Source\PSoC4/Buttons.c ****     * Per-Pin APIs if you wish to control individual pin's drive modes.
  51:Generated_Source\PSoC4/Buttons.c ****     *
  52:Generated_Source\PSoC4/Buttons.c ****     * <b>Note</b> USBIOs have limited drive functionality. Refer to the Drive Mode
  53:Generated_Source\PSoC4/Buttons.c ****     * parameter for more information.
  54:Generated_Source\PSoC4/Buttons.c ****     *
  55:Generated_Source\PSoC4/Buttons.c ****     * \param mode
  56:Generated_Source\PSoC4/Buttons.c ****     *  Mode for the selected signals. Valid options are documented in 
  57:Generated_Source\PSoC4/Buttons.c ****     *  \ref driveMode.
  58:Generated_Source\PSoC4/Buttons.c ****     *
  59:Generated_Source\PSoC4/Buttons.c ****     * \return
  60:Generated_Source\PSoC4/Buttons.c ****     *  None
  61:Generated_Source\PSoC4/Buttons.c ****     *
  62:Generated_Source\PSoC4/Buttons.c ****     * \sideeffect
  63:Generated_Source\PSoC4/Buttons.c ****     *  If you use read-modify-write operations that are not atomic, the ISR can
  64:Generated_Source\PSoC4/Buttons.c ****     *  cause corruption of this function. An ISR that interrupts this function 
  65:Generated_Source\PSoC4/Buttons.c ****     *  and performs writes to the Pins component Drive Mode registers can cause 
  66:Generated_Source\PSoC4/Buttons.c ****     *  corrupted port data. To avoid this issue, you should either use the Per-Pin
  67:Generated_Source\PSoC4/Buttons.c ****     *  APIs (primary method) or disable interrupts around this function.
  68:Generated_Source\PSoC4/Buttons.c ****     *
  69:Generated_Source\PSoC4/Buttons.c ****     * \funcusage
  70:Generated_Source\PSoC4/Buttons.c ****     *  \snippet Buttons_SUT.c usage_Buttons_SetDriveMode
  71:Generated_Source\PSoC4/Buttons.c ****     *******************************************************************************/
  72:Generated_Source\PSoC4/Buttons.c ****     void Buttons_SetDriveMode(uint8 mode)
  73:Generated_Source\PSoC4/Buttons.c ****     {
  28              		.loc 1 73 0
  29              		.cfi_startproc
  30              		@ args = 0, pretend = 0, frame = 0
  31              		@ frame_needed = 0, uses_anonymous_args = 0
  32              		@ link register save eliminated.
  33              	.LVL0:
  74:Generated_Source\PSoC4/Buttons.c **** 		Buttons_SetP4PinDriveMode(Buttons__0__SHIFT, mode);
  34              		.loc 1 74 0
  35 0000 0721     		movs	r1, #7
  36 0002 124B     		ldr	r3, .L2
  75:Generated_Source\PSoC4/Buttons.c **** 		Buttons_SetP4PinDriveMode(Buttons__1__SHIFT, mode);
  76:Generated_Source\PSoC4/Buttons.c **** 		Buttons_SetP4PinDriveMode(Buttons__2__SHIFT, mode);
  77:Generated_Source\PSoC4/Buttons.c **** 		Buttons_SetP4PinDriveMode(Buttons__3__SHIFT, mode);
  78:Generated_Source\PSoC4/Buttons.c **** 		Buttons_SetP4PinDriveMode(Buttons__4__SHIFT, mode);
ARM GAS  C:\Users\Xavier\AppData\Local\Temp\ccRqEeQz.s 			page 3


  79:Generated_Source\PSoC4/Buttons.c **** 		Buttons_SetP4PinDriveMode(Buttons__5__SHIFT, mode);
  80:Generated_Source\PSoC4/Buttons.c ****     }
  37              		.loc 1 80 0
  38              		@ sp needed
  74:Generated_Source\PSoC4/Buttons.c **** 		Buttons_SetP4PinDriveMode(Buttons__0__SHIFT, mode);
  39              		.loc 1 74 0
  40 0004 1A68     		ldr	r2, [r3]
  41 0006 8A43     		bics	r2, r1
  42 0008 0243     		orrs	r2, r0
  43 000a 1A60     		str	r2, [r3]
  75:Generated_Source\PSoC4/Buttons.c **** 		Buttons_SetP4PinDriveMode(Buttons__1__SHIFT, mode);
  44              		.loc 1 75 0
  45 000c 1A68     		ldr	r2, [r3]
  46 000e 3131     		adds	r1, r1, #49
  47 0010 8A43     		bics	r2, r1
  48 0012 C100     		lsls	r1, r0, #3
  49 0014 0A43     		orrs	r2, r1
  50 0016 1A60     		str	r2, [r3]
  76:Generated_Source\PSoC4/Buttons.c **** 		Buttons_SetP4PinDriveMode(Buttons__3__SHIFT, mode);
  51              		.loc 1 76 0
  52 0018 1968     		ldr	r1, [r3]
  53 001a 0D4A     		ldr	r2, .L2+4
  54 001c 0A40     		ands	r2, r1
  55 001e 8101     		lsls	r1, r0, #6
  56 0020 0A43     		orrs	r2, r1
  57 0022 1A60     		str	r2, [r3]
  77:Generated_Source\PSoC4/Buttons.c **** 		Buttons_SetP4PinDriveMode(Buttons__4__SHIFT, mode);
  58              		.loc 1 77 0
  59 0024 1968     		ldr	r1, [r3]
  60 0026 0B4A     		ldr	r2, .L2+8
  61 0028 0A40     		ands	r2, r1
  62 002a 4102     		lsls	r1, r0, #9
  63 002c 0A43     		orrs	r2, r1
  64 002e 1A60     		str	r2, [r3]
  78:Generated_Source\PSoC4/Buttons.c **** 		Buttons_SetP4PinDriveMode(Buttons__5__SHIFT, mode);
  65              		.loc 1 78 0
  66 0030 1968     		ldr	r1, [r3]
  67 0032 094A     		ldr	r2, .L2+12
  68 0034 0A40     		ands	r2, r1
  69 0036 0103     		lsls	r1, r0, #12
  70 0038 0A43     		orrs	r2, r1
  71 003a 1A60     		str	r2, [r3]
  79:Generated_Source\PSoC4/Buttons.c ****     }
  72              		.loc 1 79 0
  73 003c 1968     		ldr	r1, [r3]
  74 003e 074A     		ldr	r2, .L2+16
  75 0040 C003     		lsls	r0, r0, #15
  76              	.LVL1:
  77 0042 0A40     		ands	r2, r1
  78 0044 1043     		orrs	r0, r2
  79 0046 1860     		str	r0, [r3]
  80              		.loc 1 80 0
  81 0048 7047     		bx	lr
  82              	.L3:
  83 004a C046     		.align	2
  84              	.L2:
  85 004c 08020440 		.word	1074004488
ARM GAS  C:\Users\Xavier\AppData\Local\Temp\ccRqEeQz.s 			page 4


  86 0050 3FFEFFFF 		.word	-449
  87 0054 FFF1FFFF 		.word	-3585
  88 0058 FF8FFFFF 		.word	-28673
  89 005c FF7FFCFF 		.word	-229377
  90              		.cfi_endproc
  91              	.LFE0:
  92              		.size	Buttons_SetDriveMode, .-Buttons_SetDriveMode
  93              		.section	.text.Buttons_Write,"ax",%progbits
  94              		.align	1
  95              		.global	Buttons_Write
  96              		.code	16
  97              		.thumb_func
  98              		.type	Buttons_Write, %function
  99              	Buttons_Write:
 100              	.LFB1:
  81:Generated_Source\PSoC4/Buttons.c **** #endif
  82:Generated_Source\PSoC4/Buttons.c **** 
  83:Generated_Source\PSoC4/Buttons.c **** 
  84:Generated_Source\PSoC4/Buttons.c **** /*******************************************************************************
  85:Generated_Source\PSoC4/Buttons.c **** * Function Name: Buttons_Write
  86:Generated_Source\PSoC4/Buttons.c **** ****************************************************************************//**
  87:Generated_Source\PSoC4/Buttons.c **** *
  88:Generated_Source\PSoC4/Buttons.c **** * \brief Writes the value to the physical port (data output register), masking
  89:Generated_Source\PSoC4/Buttons.c **** *  and shifting the bits appropriately. 
  90:Generated_Source\PSoC4/Buttons.c **** *
  91:Generated_Source\PSoC4/Buttons.c **** * The data output register controls the signal applied to the physical pin in 
  92:Generated_Source\PSoC4/Buttons.c **** * conjunction with the drive mode parameter. This function avoids changing 
  93:Generated_Source\PSoC4/Buttons.c **** * other bits in the port by using the appropriate method (read-modify-write or
  94:Generated_Source\PSoC4/Buttons.c **** * bit banding).
  95:Generated_Source\PSoC4/Buttons.c **** *
  96:Generated_Source\PSoC4/Buttons.c **** * <b>Note</b> This function should not be used on a hardware digital output pin 
  97:Generated_Source\PSoC4/Buttons.c **** * as it is driven by the hardware signal attached to it.
  98:Generated_Source\PSoC4/Buttons.c **** *
  99:Generated_Source\PSoC4/Buttons.c **** * \param value
 100:Generated_Source\PSoC4/Buttons.c **** *  Value to write to the component instance.
 101:Generated_Source\PSoC4/Buttons.c **** *
 102:Generated_Source\PSoC4/Buttons.c **** * \return 
 103:Generated_Source\PSoC4/Buttons.c **** *  None 
 104:Generated_Source\PSoC4/Buttons.c **** *
 105:Generated_Source\PSoC4/Buttons.c **** * \sideeffect
 106:Generated_Source\PSoC4/Buttons.c **** *  If you use read-modify-write operations that are not atomic; the Interrupt 
 107:Generated_Source\PSoC4/Buttons.c **** *  Service Routines (ISR) can cause corruption of this function. An ISR that 
 108:Generated_Source\PSoC4/Buttons.c **** *  interrupts this function and performs writes to the Pins component data 
 109:Generated_Source\PSoC4/Buttons.c **** *  register can cause corrupted port data. To avoid this issue, you should 
 110:Generated_Source\PSoC4/Buttons.c **** *  either use the Per-Pin APIs (primary method) or disable interrupts around 
 111:Generated_Source\PSoC4/Buttons.c **** *  this function.
 112:Generated_Source\PSoC4/Buttons.c **** *
 113:Generated_Source\PSoC4/Buttons.c **** * \funcusage
 114:Generated_Source\PSoC4/Buttons.c **** *  \snippet Buttons_SUT.c usage_Buttons_Write
 115:Generated_Source\PSoC4/Buttons.c **** *******************************************************************************/
 116:Generated_Source\PSoC4/Buttons.c **** void Buttons_Write(uint8 value)
 117:Generated_Source\PSoC4/Buttons.c **** {
 101              		.loc 1 117 0
 102              		.cfi_startproc
 103              		@ args = 0, pretend = 0, frame = 0
 104              		@ frame_needed = 0, uses_anonymous_args = 0
 105              		@ link register save eliminated.
ARM GAS  C:\Users\Xavier\AppData\Local\Temp\ccRqEeQz.s 			page 5


 106              	.LVL2:
 118:Generated_Source\PSoC4/Buttons.c ****     uint8 drVal = (uint8)(Buttons_DR & (uint8)(~Buttons_MASK));
 107              		.loc 1 118 0
 108 0000 3F23     		movs	r3, #63
 109 0002 0449     		ldr	r1, .L5
 119:Generated_Source\PSoC4/Buttons.c ****     drVal = (drVal | ((uint8)(value << Buttons_SHIFT) & Buttons_MASK));
 120:Generated_Source\PSoC4/Buttons.c ****     Buttons_DR = (uint32)drVal;
 121:Generated_Source\PSoC4/Buttons.c **** }
 110              		.loc 1 121 0
 111              		@ sp needed
 118:Generated_Source\PSoC4/Buttons.c ****     uint8 drVal = (uint8)(Buttons_DR & (uint8)(~Buttons_MASK));
 112              		.loc 1 118 0
 113 0004 0A68     		ldr	r2, [r1]
 114 0006 9A43     		bics	r2, r3
 115 0008 D2B2     		uxtb	r2, r2
 116              	.LVL3:
 120:Generated_Source\PSoC4/Buttons.c **** }
 117              		.loc 1 120 0
 118 000a 0340     		ands	r3, r0
 119 000c 1343     		orrs	r3, r2
 120 000e 0B60     		str	r3, [r1]
 121              		.loc 1 121 0
 122 0010 7047     		bx	lr
 123              	.L6:
 124 0012 C046     		.align	2
 125              	.L5:
 126 0014 00020440 		.word	1074004480
 127              		.cfi_endproc
 128              	.LFE1:
 129              		.size	Buttons_Write, .-Buttons_Write
 130              		.section	.text.Buttons_Read,"ax",%progbits
 131              		.align	1
 132              		.global	Buttons_Read
 133              		.code	16
 134              		.thumb_func
 135              		.type	Buttons_Read, %function
 136              	Buttons_Read:
 137              	.LFB2:
 122:Generated_Source\PSoC4/Buttons.c **** 
 123:Generated_Source\PSoC4/Buttons.c **** 
 124:Generated_Source\PSoC4/Buttons.c **** /*******************************************************************************
 125:Generated_Source\PSoC4/Buttons.c **** * Function Name: Buttons_Read
 126:Generated_Source\PSoC4/Buttons.c **** ****************************************************************************//**
 127:Generated_Source\PSoC4/Buttons.c **** *
 128:Generated_Source\PSoC4/Buttons.c **** * \brief Reads the associated physical port (pin status register) and masks 
 129:Generated_Source\PSoC4/Buttons.c **** *  the required bits according to the width and bit position of the component
 130:Generated_Source\PSoC4/Buttons.c **** *  instance. 
 131:Generated_Source\PSoC4/Buttons.c **** *
 132:Generated_Source\PSoC4/Buttons.c **** * The pin's status register returns the current logic level present on the 
 133:Generated_Source\PSoC4/Buttons.c **** * physical pin.
 134:Generated_Source\PSoC4/Buttons.c **** *
 135:Generated_Source\PSoC4/Buttons.c **** * \return 
 136:Generated_Source\PSoC4/Buttons.c **** *  The current value for the pins in the component as a right justified number.
 137:Generated_Source\PSoC4/Buttons.c **** *
 138:Generated_Source\PSoC4/Buttons.c **** * \funcusage
 139:Generated_Source\PSoC4/Buttons.c **** *  \snippet Buttons_SUT.c usage_Buttons_Read  
 140:Generated_Source\PSoC4/Buttons.c **** *******************************************************************************/
ARM GAS  C:\Users\Xavier\AppData\Local\Temp\ccRqEeQz.s 			page 6


 141:Generated_Source\PSoC4/Buttons.c **** uint8 Buttons_Read(void)
 142:Generated_Source\PSoC4/Buttons.c **** {
 138              		.loc 1 142 0
 139              		.cfi_startproc
 140              		@ args = 0, pretend = 0, frame = 0
 141              		@ frame_needed = 0, uses_anonymous_args = 0
 142              		@ link register save eliminated.
 143:Generated_Source\PSoC4/Buttons.c ****     return (uint8)((Buttons_PS & Buttons_MASK) >> Buttons_SHIFT);
 143              		.loc 1 143 0
 144 0000 024B     		ldr	r3, .L8
 144:Generated_Source\PSoC4/Buttons.c **** }
 145              		.loc 1 144 0
 146              		@ sp needed
 143:Generated_Source\PSoC4/Buttons.c ****     return (uint8)((Buttons_PS & Buttons_MASK) >> Buttons_SHIFT);
 147              		.loc 1 143 0
 148 0002 1868     		ldr	r0, [r3]
 149 0004 3F23     		movs	r3, #63
 150 0006 1840     		ands	r0, r3
 151              		.loc 1 144 0
 152 0008 7047     		bx	lr
 153              	.L9:
 154 000a C046     		.align	2
 155              	.L8:
 156 000c 04020440 		.word	1074004484
 157              		.cfi_endproc
 158              	.LFE2:
 159              		.size	Buttons_Read, .-Buttons_Read
 160              		.section	.text.Buttons_ReadDataReg,"ax",%progbits
 161              		.align	1
 162              		.global	Buttons_ReadDataReg
 163              		.code	16
 164              		.thumb_func
 165              		.type	Buttons_ReadDataReg, %function
 166              	Buttons_ReadDataReg:
 167              	.LFB3:
 145:Generated_Source\PSoC4/Buttons.c **** 
 146:Generated_Source\PSoC4/Buttons.c **** 
 147:Generated_Source\PSoC4/Buttons.c **** /*******************************************************************************
 148:Generated_Source\PSoC4/Buttons.c **** * Function Name: Buttons_ReadDataReg
 149:Generated_Source\PSoC4/Buttons.c **** ****************************************************************************//**
 150:Generated_Source\PSoC4/Buttons.c **** *
 151:Generated_Source\PSoC4/Buttons.c **** * \brief Reads the associated physical port's data output register and masks 
 152:Generated_Source\PSoC4/Buttons.c **** *  the correct bits according to the width and bit position of the component 
 153:Generated_Source\PSoC4/Buttons.c **** *  instance. 
 154:Generated_Source\PSoC4/Buttons.c **** *
 155:Generated_Source\PSoC4/Buttons.c **** * The data output register controls the signal applied to the physical pin in 
 156:Generated_Source\PSoC4/Buttons.c **** * conjunction with the drive mode parameter. This is not the same as the 
 157:Generated_Source\PSoC4/Buttons.c **** * preferred Buttons_Read() API because the 
 158:Generated_Source\PSoC4/Buttons.c **** * Buttons_ReadDataReg() reads the data register instead of the status 
 159:Generated_Source\PSoC4/Buttons.c **** * register. For output pins this is a useful function to determine the value 
 160:Generated_Source\PSoC4/Buttons.c **** * just written to the pin.
 161:Generated_Source\PSoC4/Buttons.c **** *
 162:Generated_Source\PSoC4/Buttons.c **** * \return 
 163:Generated_Source\PSoC4/Buttons.c **** *  The current value of the data register masked and shifted into a right 
 164:Generated_Source\PSoC4/Buttons.c **** *  justified number for the component instance.
 165:Generated_Source\PSoC4/Buttons.c **** *
 166:Generated_Source\PSoC4/Buttons.c **** * \funcusage
ARM GAS  C:\Users\Xavier\AppData\Local\Temp\ccRqEeQz.s 			page 7


 167:Generated_Source\PSoC4/Buttons.c **** *  \snippet Buttons_SUT.c usage_Buttons_ReadDataReg 
 168:Generated_Source\PSoC4/Buttons.c **** *******************************************************************************/
 169:Generated_Source\PSoC4/Buttons.c **** uint8 Buttons_ReadDataReg(void)
 170:Generated_Source\PSoC4/Buttons.c **** {
 168              		.loc 1 170 0
 169              		.cfi_startproc
 170              		@ args = 0, pretend = 0, frame = 0
 171              		@ frame_needed = 0, uses_anonymous_args = 0
 172              		@ link register save eliminated.
 171:Generated_Source\PSoC4/Buttons.c ****     return (uint8)((Buttons_DR & Buttons_MASK) >> Buttons_SHIFT);
 173              		.loc 1 171 0
 174 0000 024B     		ldr	r3, .L11
 172:Generated_Source\PSoC4/Buttons.c **** }
 175              		.loc 1 172 0
 176              		@ sp needed
 171:Generated_Source\PSoC4/Buttons.c ****     return (uint8)((Buttons_DR & Buttons_MASK) >> Buttons_SHIFT);
 177              		.loc 1 171 0
 178 0002 1868     		ldr	r0, [r3]
 179 0004 3F23     		movs	r3, #63
 180 0006 1840     		ands	r0, r3
 181              		.loc 1 172 0
 182 0008 7047     		bx	lr
 183              	.L12:
 184 000a C046     		.align	2
 185              	.L11:
 186 000c 00020440 		.word	1074004480
 187              		.cfi_endproc
 188              	.LFE3:
 189              		.size	Buttons_ReadDataReg, .-Buttons_ReadDataReg
 190              		.section	.text.Buttons_SetInterruptMode,"ax",%progbits
 191              		.align	1
 192              		.global	Buttons_SetInterruptMode
 193              		.code	16
 194              		.thumb_func
 195              		.type	Buttons_SetInterruptMode, %function
 196              	Buttons_SetInterruptMode:
 197              	.LFB4:
 173:Generated_Source\PSoC4/Buttons.c **** 
 174:Generated_Source\PSoC4/Buttons.c **** 
 175:Generated_Source\PSoC4/Buttons.c **** /*******************************************************************************
 176:Generated_Source\PSoC4/Buttons.c **** * Function Name: Buttons_SetInterruptMode
 177:Generated_Source\PSoC4/Buttons.c **** ****************************************************************************//**
 178:Generated_Source\PSoC4/Buttons.c **** *
 179:Generated_Source\PSoC4/Buttons.c **** * \brief Configures the interrupt mode for each of the Pins component's
 180:Generated_Source\PSoC4/Buttons.c **** *  pins. Alternatively you may set the interrupt mode for all the pins
 181:Generated_Source\PSoC4/Buttons.c **** *  specified in the Pins component.
 182:Generated_Source\PSoC4/Buttons.c **** *
 183:Generated_Source\PSoC4/Buttons.c **** *  <b>Note</b> The interrupt is port-wide and therefore any enabled pin
 184:Generated_Source\PSoC4/Buttons.c **** *  interrupt may trigger it.
 185:Generated_Source\PSoC4/Buttons.c **** *
 186:Generated_Source\PSoC4/Buttons.c **** * \param position
 187:Generated_Source\PSoC4/Buttons.c **** *  The pin position as listed in the Pins component. You may OR these to be 
 188:Generated_Source\PSoC4/Buttons.c **** *  able to configure the interrupt mode of multiple pins within a Pins 
 189:Generated_Source\PSoC4/Buttons.c **** *  component. Or you may use Buttons_INTR_ALL to configure the
 190:Generated_Source\PSoC4/Buttons.c **** *  interrupt mode of all the pins in the Pins component.       
 191:Generated_Source\PSoC4/Buttons.c **** *  - Buttons_0_INTR       (First pin in the list)
 192:Generated_Source\PSoC4/Buttons.c **** *  - Buttons_1_INTR       (Second pin in the list)
ARM GAS  C:\Users\Xavier\AppData\Local\Temp\ccRqEeQz.s 			page 8


 193:Generated_Source\PSoC4/Buttons.c **** *  - ...
 194:Generated_Source\PSoC4/Buttons.c **** *  - Buttons_INTR_ALL     (All pins in Pins component)
 195:Generated_Source\PSoC4/Buttons.c **** *
 196:Generated_Source\PSoC4/Buttons.c **** * \param mode
 197:Generated_Source\PSoC4/Buttons.c **** *  Interrupt mode for the selected pins. Valid options are documented in
 198:Generated_Source\PSoC4/Buttons.c **** *  \ref intrMode.
 199:Generated_Source\PSoC4/Buttons.c **** *
 200:Generated_Source\PSoC4/Buttons.c **** * \return 
 201:Generated_Source\PSoC4/Buttons.c **** *  None
 202:Generated_Source\PSoC4/Buttons.c **** *  
 203:Generated_Source\PSoC4/Buttons.c **** * \sideeffect
 204:Generated_Source\PSoC4/Buttons.c **** *  It is recommended that the interrupt be disabled before calling this 
 205:Generated_Source\PSoC4/Buttons.c **** *  function to avoid unintended interrupt requests. Note that the interrupt
 206:Generated_Source\PSoC4/Buttons.c **** *  type is port wide, and therefore will trigger for any enabled pin on the 
 207:Generated_Source\PSoC4/Buttons.c **** *  port.
 208:Generated_Source\PSoC4/Buttons.c **** *
 209:Generated_Source\PSoC4/Buttons.c **** * \funcusage
 210:Generated_Source\PSoC4/Buttons.c **** *  \snippet Buttons_SUT.c usage_Buttons_SetInterruptMode
 211:Generated_Source\PSoC4/Buttons.c **** *******************************************************************************/
 212:Generated_Source\PSoC4/Buttons.c **** void Buttons_SetInterruptMode(uint16 position, uint16 mode)
 213:Generated_Source\PSoC4/Buttons.c **** {
 198              		.loc 1 213 0
 199              		.cfi_startproc
 200              		@ args = 0, pretend = 0, frame = 0
 201              		@ frame_needed = 0, uses_anonymous_args = 0
 202              		@ link register save eliminated.
 203              	.LVL4:
 214:Generated_Source\PSoC4/Buttons.c ****     uint32 intrCfg;
 215:Generated_Source\PSoC4/Buttons.c ****     
 216:Generated_Source\PSoC4/Buttons.c ****     intrCfg =  Buttons_INTCFG & (uint32)(~(uint32)position);
 204              		.loc 1 216 0
 205 0000 034A     		ldr	r2, .L14
 217:Generated_Source\PSoC4/Buttons.c ****     Buttons_INTCFG = intrCfg | ((uint32)position & (uint32)mode);
 218:Generated_Source\PSoC4/Buttons.c **** }
 206              		.loc 1 218 0
 207              		@ sp needed
 216:Generated_Source\PSoC4/Buttons.c ****     Buttons_INTCFG = intrCfg | ((uint32)position & (uint32)mode);
 208              		.loc 1 216 0
 209 0002 1368     		ldr	r3, [r2]
 210              	.LVL5:
 217:Generated_Source\PSoC4/Buttons.c ****     Buttons_INTCFG = intrCfg | ((uint32)position & (uint32)mode);
 211              		.loc 1 217 0
 212 0004 8343     		bics	r3, r0
 213              	.LVL6:
 214 0006 0840     		ands	r0, r1
 215              	.LVL7:
 216 0008 1843     		orrs	r0, r3
 217 000a 1060     		str	r0, [r2]
 218              		.loc 1 218 0
 219 000c 7047     		bx	lr
 220              	.L15:
 221 000e C046     		.align	2
 222              	.L14:
 223 0010 0C020440 		.word	1074004492
 224              		.cfi_endproc
 225              	.LFE4:
 226              		.size	Buttons_SetInterruptMode, .-Buttons_SetInterruptMode
ARM GAS  C:\Users\Xavier\AppData\Local\Temp\ccRqEeQz.s 			page 9


 227              		.section	.text.Buttons_ClearInterrupt,"ax",%progbits
 228              		.align	1
 229              		.global	Buttons_ClearInterrupt
 230              		.code	16
 231              		.thumb_func
 232              		.type	Buttons_ClearInterrupt, %function
 233              	Buttons_ClearInterrupt:
 234              	.LFB5:
 219:Generated_Source\PSoC4/Buttons.c **** 
 220:Generated_Source\PSoC4/Buttons.c **** 
 221:Generated_Source\PSoC4/Buttons.c **** /*******************************************************************************
 222:Generated_Source\PSoC4/Buttons.c **** * Function Name: Buttons_ClearInterrupt
 223:Generated_Source\PSoC4/Buttons.c **** ****************************************************************************//**
 224:Generated_Source\PSoC4/Buttons.c **** *
 225:Generated_Source\PSoC4/Buttons.c **** * \brief Clears any active interrupts attached with the component and returns 
 226:Generated_Source\PSoC4/Buttons.c **** *  the value of the interrupt status register allowing determination of which
 227:Generated_Source\PSoC4/Buttons.c **** *  pins generated an interrupt event.
 228:Generated_Source\PSoC4/Buttons.c **** *
 229:Generated_Source\PSoC4/Buttons.c **** * \return 
 230:Generated_Source\PSoC4/Buttons.c **** *  The right-shifted current value of the interrupt status register. Each pin 
 231:Generated_Source\PSoC4/Buttons.c **** *  has one bit set if it generated an interrupt event. For example, bit 0 is 
 232:Generated_Source\PSoC4/Buttons.c **** *  for pin 0 and bit 1 is for pin 1 of the Pins component.
 233:Generated_Source\PSoC4/Buttons.c **** *  
 234:Generated_Source\PSoC4/Buttons.c **** * \sideeffect
 235:Generated_Source\PSoC4/Buttons.c **** *  Clears all bits of the physical port's interrupt status register, not just
 236:Generated_Source\PSoC4/Buttons.c **** *  those associated with the Pins component.
 237:Generated_Source\PSoC4/Buttons.c **** *
 238:Generated_Source\PSoC4/Buttons.c **** * \funcusage
 239:Generated_Source\PSoC4/Buttons.c **** *  \snippet Buttons_SUT.c usage_Buttons_ClearInterrupt
 240:Generated_Source\PSoC4/Buttons.c **** *******************************************************************************/
 241:Generated_Source\PSoC4/Buttons.c **** uint8 Buttons_ClearInterrupt(void)
 242:Generated_Source\PSoC4/Buttons.c **** {
 235              		.loc 1 242 0
 236              		.cfi_startproc
 237              		@ args = 0, pretend = 0, frame = 0
 238              		@ frame_needed = 0, uses_anonymous_args = 0
 239              		@ link register save eliminated.
 243:Generated_Source\PSoC4/Buttons.c **** 	uint8 maskedStatus = (uint8)(Buttons_INTSTAT & Buttons_MASK);
 240              		.loc 1 243 0
 241 0000 3F23     		movs	r3, #63
 242 0002 024A     		ldr	r2, .L17
 244:Generated_Source\PSoC4/Buttons.c **** 	Buttons_INTSTAT = maskedStatus;
 245:Generated_Source\PSoC4/Buttons.c ****     return maskedStatus >> Buttons_SHIFT;
 246:Generated_Source\PSoC4/Buttons.c **** }
 243              		.loc 1 246 0
 244              		@ sp needed
 243:Generated_Source\PSoC4/Buttons.c **** 	uint8 maskedStatus = (uint8)(Buttons_INTSTAT & Buttons_MASK);
 245              		.loc 1 243 0
 246 0004 1068     		ldr	r0, [r2]
 247 0006 1840     		ands	r0, r3
 248              	.LVL8:
 244:Generated_Source\PSoC4/Buttons.c **** 	Buttons_INTSTAT = maskedStatus;
 249              		.loc 1 244 0
 250 0008 1060     		str	r0, [r2]
 251              		.loc 1 246 0
 252 000a 7047     		bx	lr
 253              	.L18:
ARM GAS  C:\Users\Xavier\AppData\Local\Temp\ccRqEeQz.s 			page 10


 254              		.align	2
 255              	.L17:
 256 000c 10020440 		.word	1074004496
 257              		.cfi_endproc
 258              	.LFE5:
 259              		.size	Buttons_ClearInterrupt, .-Buttons_ClearInterrupt
 260              		.text
 261              	.Letext0:
 262              		.file 2 "Generated_Source\\PSoC4\\cytypes.h"