ARM GAS  C:\Users\Xavier\AppData\Local\Temp\ccfq6JZn.s 			page 1


   1              		.syntax unified
   2              		.cpu cortex-m0
   3              		.fpu softvfp
   4              		.eabi_attribute 20, 1
   5              		.eabi_attribute 21, 1
   6              		.eabi_attribute 23, 3
   7              		.eabi_attribute 24, 1
   8              		.eabi_attribute 25, 1
   9              		.eabi_attribute 26, 1
  10              		.eabi_attribute 30, 4
  11              		.eabi_attribute 34, 0
  12              		.eabi_attribute 18, 4
  13              		.thumb
  14              		.syntax unified
  15              		.file	"hids.c"
  16              		.text
  17              	.Ltext0:
  18              		.cfi_sections	.debug_frame
  19              		.section	.text.HidsCallBack,"ax",%progbits
  20              		.align	1
  21              		.global	HidsCallBack
  22              		.code	16
  23              		.thumb_func
  24              		.type	HidsCallBack, %function
  25              	HidsCallBack:
  26              	.LFB36:
  27              		.file 1 "hids.c"
   1:hids.c        **** /*******************************************************************************
   2:hids.c        **** * File Name: hids.c
   3:hids.c        **** *
   4:hids.c        **** * Version: 1.0
   5:hids.c        **** *
   6:hids.c        **** * Description:
   7:hids.c        **** *  This file contains HIDS callback handler function.
   8:hids.c        **** *
   9:hids.c        **** * Hardware Dependency:
  10:hids.c        **** *  CY8CKIT-042 BLE
  11:hids.c        **** * 
  12:hids.c        **** ********************************************************************************
  13:hids.c        **** * Copyright 2016, Cypress Semiconductor Corporation.  All rights reserved.
  14:hids.c        **** * You may use this file only in accordance with the license, terms, conditions,
  15:hids.c        **** * disclaimers, and limitations in the end user license agreement accompanying
  16:hids.c        **** * the software package with which this file was provided.
  17:hids.c        **** *******************************************************************************/
  18:hids.c        **** 
  19:hids.c        **** #include "common.h"
  20:hids.c        **** #include "hids.h"
  21:hids.c        **** 
  22:hids.c        **** uint16 keyboardSimulation;
  23:hids.c        **** uint8 protocol = CYBLE_HIDS_PROTOCOL_MODE_REPORT;   /* Boot or Report protocol mode */
  24:hids.c        **** uint8 suspend = CYBLE_HIDS_CP_EXIT_SUSPEND;         /* Suspend to enter into deep sleep mode */
  25:hids.c        **** uint8 prevButtons;
  26:hids.c        **** uint8 currButtons;
  27:hids.c        **** 
  28:hids.c        **** /*******************************************************************************
  29:hids.c        **** * Function Name: HidsCallBack()
  30:hids.c        **** ********************************************************************************
ARM GAS  C:\Users\Xavier\AppData\Local\Temp\ccfq6JZn.s 			page 2


  31:hids.c        **** *
  32:hids.c        **** * Summary:
  33:hids.c        **** *   This is an event callback function to receive service specific events from 
  34:hids.c        **** *   HID Service.
  35:hids.c        **** *
  36:hids.c        **** * Parameters:
  37:hids.c        **** *  event - the event code
  38:hids.c        **** *  *eventParam - the event parameters
  39:hids.c        **** *
  40:hids.c        **** * Return:
  41:hids.c        **** *  None.
  42:hids.c        **** *
  43:hids.c        **** ********************************************************************************/
  44:hids.c        **** void HidsCallBack(uint32 event, void *eventParam)
  45:hids.c        **** {
  28              		.loc 1 45 0
  29              		.cfi_startproc
  30              		@ args = 0, pretend = 0, frame = 0
  31              		@ frame_needed = 0, uses_anonymous_args = 0
  32              	.LVL0:
  46:hids.c        **** 	CYBLE_HIDS_CHAR_VALUE_T *locEventParam = (CYBLE_HIDS_CHAR_VALUE_T *)eventParam;
  47:hids.c        **** 
  48:hids.c        **** 	DBG_PRINTF("HIDS event: %lx, ", event);
  49:hids.c        **** 
  50:hids.c        **** 	switch(event)
  33              		.loc 1 50 0
  34 0000 9538     		subs	r0, r0, #149
  35              	.LVL1:
  36 0002 FF38     		subs	r0, r0, #255
  37              	.LVL2:
  45:hids.c        **** 	CYBLE_HIDS_CHAR_VALUE_T *locEventParam = (CYBLE_HIDS_CHAR_VALUE_T *)eventParam;
  38              		.loc 1 45 0
  39 0004 10B5     		push	{r4, lr}
  40              		.cfi_def_cfa_offset 8
  41              		.cfi_offset 4, -8
  42              		.cfi_offset 14, -4
  45:hids.c        **** 	CYBLE_HIDS_CHAR_VALUE_T *locEventParam = (CYBLE_HIDS_CHAR_VALUE_T *)eventParam;
  43              		.loc 1 45 0
  44 0006 0C00     		movs	r4, r1
  45              		.loc 1 50 0
  46 0008 0628     		cmp	r0, #6
  47 000a 43D8     		bhi	.L1
  48 000c FFF7FEFF 		bl	__gnu_thumb1_case_uqi
  49              	.L4:
  50 0010 04       		.byte	(.L3-.L4)/2
  51 0011 0B       		.byte	(.L5-.L4)/2
  52 0012 11       		.byte	(.L6-.L4)/2
  53 0013 13       		.byte	(.L7-.L4)/2
  54 0014 17       		.byte	(.L8-.L4)/2
  55 0015 19       		.byte	(.L9-.L4)/2
  56 0016 1D       		.byte	(.L10-.L4)/2
  57 0017 00       		.p2align 1
  58              	.L3:
  51:hids.c        **** 	{
  52:hids.c        **** 		case CYBLE_EVT_HIDSS_NOTIFICATION_ENABLED:
  53:hids.c        **** 			DBG_PRINTF("CYBLE_EVT_HIDSS_NOTIFICATION_ENABLED: serv=%x, char=%x\r\n", 
  54:hids.c        **** 				locEventParam->serviceIndex,
ARM GAS  C:\Users\Xavier\AppData\Local\Temp\ccfq6JZn.s 			page 3


  55:hids.c        **** 				locEventParam->charIndex);
  56:hids.c        **** 			if(CYBLE_HUMAN_INTERFACE_DEVICE_SERVICE_INDEX == locEventParam->serviceIndex)
  59              		.loc 1 56 0
  60 0018 8B78     		ldrb	r3, [r1, #2]
  61 001a 002B     		cmp	r3, #0
  62 001c 3AD1     		bne	.L1
  57:hids.c        **** 			{
  58:hids.c        **** 				keyboardSimulation = ENABLED;
  63              		.loc 1 58 0
  64 001e 0122     		movs	r2, #1
  65 0020 1D4B     		ldr	r3, .L24
  66 0022 1A80     		strh	r2, [r3]
  67 0024 36E0     		b	.L1
  68              	.L5:
  59:hids.c        **** 			}
  60:hids.c        **** 			break;
  61:hids.c        **** 		case CYBLE_EVT_HIDSS_NOTIFICATION_DISABLED:
  62:hids.c        **** 			DBG_PRINTF("CYBLE_EVT_HIDSS_NOTIFICATION_DISABLED: serv=%x, char=%x\r\n", 
  63:hids.c        **** 				locEventParam->serviceIndex,
  64:hids.c        **** 				locEventParam->charIndex);
  65:hids.c        **** 			if(CYBLE_HUMAN_INTERFACE_DEVICE_SERVICE_INDEX == locEventParam->serviceIndex)
  69              		.loc 1 65 0
  70 0026 8B78     		ldrb	r3, [r1, #2]
  71 0028 002B     		cmp	r3, #0
  72 002a 33D1     		bne	.L1
  66:hids.c        **** 			{
  67:hids.c        **** 				keyboardSimulation = DISABLED;
  73              		.loc 1 67 0
  74 002c 1A4A     		ldr	r2, .L24
  75 002e 1380     		strh	r3, [r2]
  76 0030 30E0     		b	.L1
  77              	.L6:
  68:hids.c        **** 			}
  69:hids.c        **** 			break;
  70:hids.c        **** 		case CYBLE_EVT_HIDSS_BOOT_MODE_ENTER:
  71:hids.c        **** 			DBG_PRINTF("CYBLE_EVT_HIDSS_BOOT_MODE_ENTER \r\n");
  72:hids.c        **** 			protocol = CYBLE_HIDS_PROTOCOL_MODE_BOOT;
  78              		.loc 1 72 0
  79 0032 0022     		movs	r2, #0
  80 0034 00E0     		b	.L22
  81              	.L7:
  73:hids.c        **** 			break;
  74:hids.c        **** 		case CYBLE_EVT_HIDSS_REPORT_MODE_ENTER:
  75:hids.c        **** 			DBG_PRINTF("CYBLE_EVT_HIDSS_REPORT_MODE_ENTER \r\n");
  76:hids.c        **** 			protocol = CYBLE_HIDS_PROTOCOL_MODE_REPORT;
  82              		.loc 1 76 0
  83 0036 0122     		movs	r2, #1
  84              	.L22:
  85 0038 184B     		ldr	r3, .L24+4
  86 003a 1A70     		strb	r2, [r3]
  77:hids.c        **** 			break;
  87              		.loc 1 77 0
  88 003c 2AE0     		b	.L1
  89              	.L8:
  78:hids.c        **** 		case CYBLE_EVT_HIDSS_SUSPEND:
  79:hids.c        **** 			DBG_PRINTF("CYBLE_EVT_HIDSS_SUSPEND \r\n");
  80:hids.c        **** 			suspend = CYBLE_HIDS_CP_SUSPEND;
ARM GAS  C:\Users\Xavier\AppData\Local\Temp\ccfq6JZn.s 			page 4


  90              		.loc 1 80 0
  91 003e 0022     		movs	r2, #0
  92 0040 00E0     		b	.L21
  93              	.L9:
  81:hids.c        **** 		#if (DEBUG_UART_ENABLED == ENABLED)
  82:hids.c        **** 			/* Reduce power consumption, power down logic that is not required to wake up the system */
  83:hids.c        **** 			UART_DEB_Stop();
  84:hids.c        **** 		#endif /* (DEBUG_UART_ENABLED == ENABLED) */
  85:hids.c        **** 			break;
  86:hids.c        **** 		case CYBLE_EVT_HIDSS_EXIT_SUSPEND:
  87:hids.c        **** 		#if (DEBUG_UART_ENABLED == ENABLED)
  88:hids.c        **** 			/* Power up all circuitry previously shut down */
  89:hids.c        **** 			UART_DEB_Start();
  90:hids.c        **** 		#endif /* (DEBUG_UART_ENABLED == ENABLED) */
  91:hids.c        **** 			DBG_PRINTF("CYBLE_EVT_HIDSS_EXIT_SUSPEND \r\n");
  92:hids.c        **** 			suspend = CYBLE_HIDS_CP_EXIT_SUSPEND;
  94              		.loc 1 92 0
  95 0042 0122     		movs	r2, #1
  96              	.L21:
  97 0044 154B     		ldr	r3, .L24+4
  98 0046 5A70     		strb	r2, [r3, #1]
  93:hids.c        **** 			break;
  99              		.loc 1 93 0
 100 0048 24E0     		b	.L1
 101              	.L10:
 102              	.LVL3:
 103              	.LBB4:
 104              	.LBB5:
  94:hids.c        **** 		case CYBLE_EVT_HIDSS_REPORT_CHAR_WRITE:
  95:hids.c        **** 			if(CYBLE_HUMAN_INTERFACE_DEVICE_SERVICE_INDEX == locEventParam->serviceIndex)
 105              		.loc 1 95 0
 106 004a 8B78     		ldrb	r3, [r1, #2]
 107 004c 002B     		cmp	r3, #0
 108 004e 1ED1     		bne	.L11
  96:hids.c        **** 			{
  97:hids.c        **** 				/* Write request to Keyboard Output Report characteristic. 
  98:hids.c        **** 				*  Handle Boot and Report protocol. 
  99:hids.c        **** 				*/
 100:hids.c        **** 				if( ((CYBLE_HIDS_PROTOCOL_MODE_REPORT == protocol) && 
 109              		.loc 1 100 0
 110 0050 124B     		ldr	r3, .L24+4
 111 0052 1B78     		ldrb	r3, [r3]
 112 0054 012B     		cmp	r3, #1
 113 0056 03D1     		bne	.L12
 114 0058 CB78     		ldrb	r3, [r1, #3]
 115 005a 082B     		cmp	r3, #8
 116 005c 17D1     		bne	.L11
 117 005e 04E0     		b	.L13
 118              	.L12:
 101:hids.c        **** 					 (CYBLE_HUMAN_INTERFACE_DEVICE_REPORT_OUT == locEventParam->charIndex)) ||
 119              		.loc 1 101 0
 120 0060 002B     		cmp	r3, #0
 121 0062 14D1     		bne	.L11
 102:hids.c        **** 					((CYBLE_HIDS_PROTOCOL_MODE_BOOT == protocol) && 
 122              		.loc 1 102 0
 123 0064 CB78     		ldrb	r3, [r1, #3]
 124 0066 052B     		cmp	r3, #5
ARM GAS  C:\Users\Xavier\AppData\Local\Temp\ccfq6JZn.s 			page 5


 125 0068 11D1     		bne	.L11
 126              	.L13:
 103:hids.c        **** 					 (CYBLE_HIDS_BOOT_KYBRD_OUT_REP == locEventParam->charIndex)) )
 104:hids.c        **** 				{
 105:hids.c        **** 					if( (CAPS_LOCK_LED & locEventParam->value->val[0u]) != 0u)
 127              		.loc 1 105 0
 128 006a 6368     		ldr	r3, [r4, #4]
 106:hids.c        **** 					{
 107:hids.c        **** 						CapsLock_LED_Write(LED_ON);
 129              		.loc 1 107 0
 130 006c 0020     		movs	r0, #0
 131              	.LVL4:
 105:hids.c        **** 					{
 132              		.loc 1 105 0
 133 006e 1B68     		ldr	r3, [r3]
 134 0070 1B78     		ldrb	r3, [r3]
 135 0072 9B07     		lsls	r3, r3, #30
 136 0074 00D4     		bmi	.L20
 108:hids.c        **** 					}
 109:hids.c        **** 					else
 110:hids.c        **** 					{
 111:hids.c        **** 						CapsLock_LED_Write(LED_OFF);
 137              		.loc 1 111 0
 138 0076 0120     		movs	r0, #1
 139              	.L20:
 140 0078 FFF7FEFF 		bl	CapsLock_LED_Write
 141              	.LVL5:
 112:hids.c        **** 					}
 113:hids.c        **** 					if( (NUM_LOCK_LED & locEventParam->value->val[0u]) != 0u)
 142              		.loc 1 113 0
 143 007c 0120     		movs	r0, #1
 144 007e 6368     		ldr	r3, [r4, #4]
 145 0080 1B68     		ldr	r3, [r3]
 146 0082 1B78     		ldrb	r3, [r3]
 147 0084 0342     		tst	r3, r0
 148 0086 00D0     		beq	.L16
 114:hids.c        **** 					{
 115:hids.c        **** 						Advertising_LED_Write(LED_ON);
 149              		.loc 1 115 0
 150 0088 0020     		movs	r0, #0
 151              	.L16:
 116:hids.c        **** 					}
 117:hids.c        **** 					else
 118:hids.c        **** 					{
 119:hids.c        **** 						Advertising_LED_Write(LED_OFF);
 152              		.loc 1 119 0
 153 008a FFF7FEFF 		bl	Advertising_LED_Write
 154              	.LVL6:
 155              	.L11:
 120:hids.c        **** 					}
 121:hids.c        **** 				}
 122:hids.c        **** 			}
 123:hids.c        **** 			DBG_PRINTF("CYBLE_EVT_HIDSS_REPORT_CHAR_WRITE: serv=%x, char=%x, value=", 
 124:hids.c        **** 				locEventParam->serviceIndex,
 125:hids.c        **** 				locEventParam->charIndex);
 126:hids.c        **** 				ShowValue(locEventParam->value);
 156              		.loc 1 126 0
ARM GAS  C:\Users\Xavier\AppData\Local\Temp\ccfq6JZn.s 			page 6


 157 008e 6068     		ldr	r0, [r4, #4]
 158 0090 FFF7FEFF 		bl	ShowValue
 159              	.LVL7:
 160              	.L1:
 161              	.LBE5:
 162              	.LBE4:
 127:hids.c        **** 			break;
 128:hids.c        **** 		case CYBLE_EVT_HIDSC_NOTIFICATION:
 129:hids.c        **** 			break;
 130:hids.c        **** 		case CYBLE_EVT_HIDSC_READ_CHAR_RESPONSE:
 131:hids.c        **** 			break;
 132:hids.c        **** 		case CYBLE_EVT_HIDSC_WRITE_CHAR_RESPONSE:
 133:hids.c        **** 			break;
 134:hids.c        **** 		case CYBLE_EVT_HIDSC_READ_DESCR_RESPONSE:
 135:hids.c        **** 			break;
 136:hids.c        **** 		case CYBLE_EVT_HIDSC_WRITE_DESCR_RESPONSE:           
 137:hids.c        **** 			break;
 138:hids.c        **** 		default:
 139:hids.c        **** 			DBG_PRINTF("Not supported event\r\n");
 140:hids.c        **** 			break;
 141:hids.c        **** 	}
 142:hids.c        **** }
 163              		.loc 1 142 0
 164              		@ sp needed
 165              	.LVL8:
 166 0094 10BD     		pop	{r4, pc}
 167              	.L25:
 168 0096 C046     		.align	2
 169              	.L24:
 170 0098 00000000 		.word	keyboardSimulation
 171 009c 00000000 		.word	.LANCHOR0
 172              		.cfi_endproc
 173              	.LFE36:
 174              		.size	HidsCallBack, .-HidsCallBack
 175              		.section	.text.HidsInit,"ax",%progbits
 176              		.align	1
 177              		.global	HidsInit
 178              		.code	16
 179              		.thumb_func
 180              		.type	HidsInit, %function
 181              	HidsInit:
 182              	.LFB37:
 143:hids.c        **** 
 144:hids.c        **** 
 145:hids.c        **** /*******************************************************************************
 146:hids.c        **** * Function Name: HidsInit()
 147:hids.c        **** ********************************************************************************
 148:hids.c        **** *
 149:hids.c        **** * Summary:
 150:hids.c        **** *   Initializes the HID service.
 151:hids.c        **** *
 152:hids.c        **** *******************************************************************************/
 153:hids.c        **** void HidsInit(void)
 154:hids.c        **** {
 183              		.loc 1 154 0
 184              		.cfi_startproc
 185              		@ args = 0, pretend = 0, frame = 8
ARM GAS  C:\Users\Xavier\AppData\Local\Temp\ccfq6JZn.s 			page 7


 186              		@ frame_needed = 0, uses_anonymous_args = 0
 187 0000 30B5     		push	{r4, r5, lr}
 188              		.cfi_def_cfa_offset 12
 189              		.cfi_offset 4, -12
 190              		.cfi_offset 5, -8
 191              		.cfi_offset 14, -4
 155:hids.c        **** 	CYBLE_API_RESULT_T apiResult;
 156:hids.c        **** 	uint16 cccdValue;
 157:hids.c        **** 	
 158:hids.c        **** 	/* Register service specific callback function */
 159:hids.c        **** 	CyBle_HidsRegisterAttrCallback(HidsCallBack);
 192              		.loc 1 159 0
 193 0002 1548     		ldr	r0, .L35
 154:hids.c        **** 	CYBLE_API_RESULT_T apiResult;
 194              		.loc 1 154 0
 195 0004 85B0     		sub	sp, sp, #20
 196              		.cfi_def_cfa_offset 32
 160:hids.c        **** 	keyboardSimulation = DISABLED;
 161:hids.c        **** 	/* Read CCCD configurations from flash */
 162:hids.c        **** 	apiResult = CyBle_HidssGetCharacteristicDescriptor(CYBLE_HUMAN_INTERFACE_DEVICE_SERVICE_INDEX, 
 197              		.loc 1 162 0
 198 0006 0E25     		movs	r5, #14
 159:hids.c        **** 	keyboardSimulation = DISABLED;
 199              		.loc 1 159 0
 200 0008 FFF7FEFF 		bl	CyBle_HidsRegisterAttrCallback
 201              	.LVL9:
 160:hids.c        **** 	keyboardSimulation = DISABLED;
 202              		.loc 1 160 0
 203 000c 0020     		movs	r0, #0
 204 000e 134C     		ldr	r4, .L35+4
 205              		.loc 1 162 0
 206 0010 6D44     		add	r5, r5, sp
 160:hids.c        **** 	keyboardSimulation = DISABLED;
 207              		.loc 1 160 0
 208 0012 2080     		strh	r0, [r4]
 209              		.loc 1 162 0
 210 0014 0223     		movs	r3, #2
 211 0016 0095     		str	r5, [sp]
 212 0018 0200     		movs	r2, r0
 213 001a 0721     		movs	r1, #7
 214 001c FFF7FEFF 		bl	CyBle_HidssGetCharacteristicDescriptor
 215              	.LVL10:
 163:hids.c        **** 		CYBLE_HUMAN_INTERFACE_DEVICE_REPORT_IN, CYBLE_HIDS_REPORT_CCCD, CYBLE_CCCD_LEN, (uint8 *)&cccdVal
 164:hids.c        **** 	if((apiResult == CYBLE_ERROR_OK) && (cccdValue != 0u))
 216              		.loc 1 164 0
 217 0020 0028     		cmp	r0, #0
 218 0022 06D1     		bne	.L27
 219              		.loc 1 164 0 is_stmt 0 discriminator 1
 220 0024 2B88     		ldrh	r3, [r5]
 221 0026 002B     		cmp	r3, #0
 222 0028 03D0     		beq	.L27
 165:hids.c        **** 	{
 166:hids.c        **** 		keyboardSimulation |= ENABLED;
 223              		.loc 1 166 0 is_stmt 1
 224 002a 0122     		movs	r2, #1
 225 002c 2388     		ldrh	r3, [r4]
 226 002e 1343     		orrs	r3, r2
ARM GAS  C:\Users\Xavier\AppData\Local\Temp\ccfq6JZn.s 			page 8


 227 0030 2380     		strh	r3, [r4]
 228              	.L27:
 167:hids.c        **** 	}
 168:hids.c        **** 	apiResult = CyBle_HidssGetCharacteristicDescriptor(CYBLE_HUMAN_INTERFACE_DEVICE_SERVICE_INDEX, 
 229              		.loc 1 168 0
 230 0032 0022     		movs	r2, #0
 231 0034 0095     		str	r5, [sp]
 232 0036 0223     		movs	r3, #2
 233 0038 0421     		movs	r1, #4
 234 003a 1000     		movs	r0, r2
 235              	.LVL11:
 236 003c FFF7FEFF 		bl	CyBle_HidssGetCharacteristicDescriptor
 237              	.LVL12:
 169:hids.c        **** 		CYBLE_HIDS_BOOT_KYBRD_IN_REP, CYBLE_HIDS_REPORT_CCCD, CYBLE_CCCD_LEN, (uint8 *)&cccdValue);
 170:hids.c        **** 	if((apiResult == CYBLE_ERROR_OK) && (cccdValue != 0u))
 238              		.loc 1 170 0
 239 0040 0028     		cmp	r0, #0
 240 0042 06D1     		bne	.L26
 241              		.loc 1 170 0 is_stmt 0 discriminator 1
 242 0044 2B88     		ldrh	r3, [r5]
 243 0046 002B     		cmp	r3, #0
 244 0048 03D0     		beq	.L26
 171:hids.c        **** 	{
 172:hids.c        **** 		keyboardSimulation |= ENABLED;
 245              		.loc 1 172 0 is_stmt 1
 246 004a 0122     		movs	r2, #1
 247 004c 2388     		ldrh	r3, [r4]
 248 004e 1343     		orrs	r3, r2
 249 0050 2380     		strh	r3, [r4]
 250              	.L26:
 173:hids.c        **** 	}
 174:hids.c        **** }
 251              		.loc 1 174 0
 252 0052 05B0     		add	sp, sp, #20
 253              		@ sp needed
 254 0054 30BD     		pop	{r4, r5, pc}
 255              	.L36:
 256 0056 C046     		.align	2
 257              	.L35:
 258 0058 00000000 		.word	HidsCallBack
 259 005c 00000000 		.word	keyboardSimulation
 260              		.cfi_endproc
 261              	.LFE37:
 262              		.size	HidsInit, .-HidsInit
 263              		.section	.text.SimulateKeyboard,"ax",%progbits
 264              		.align	1
 265              		.global	SimulateKeyboard
 266              		.code	16
 267              		.thumb_func
 268              		.type	SimulateKeyboard, %function
 269              	SimulateKeyboard:
 270              	.LFB38:
 175:hids.c        **** 
 176:hids.c        **** 	
 177:hids.c        **** /*******************************************************************************
 178:hids.c        **** * Function Name: SimulateKeyboard()
 179:hids.c        **** ********************************************************************************
ARM GAS  C:\Users\Xavier\AppData\Local\Temp\ccfq6JZn.s 			page 9


 180:hids.c        **** *
 181:hids.c        **** * Summary:
 182:hids.c        **** *   The custom function to simulate CapsLock key pressing
 183:hids.c        **** *
 184:hids.c        **** *******************************************************************************/
 185:hids.c        **** void SimulateKeyboard(void)
 186:hids.c        **** {
 271              		.loc 1 186 0
 272              		.cfi_startproc
 273              		@ args = 0, pretend = 0, frame = 0
 274              		@ frame_needed = 0, uses_anonymous_args = 0
 275 0000 F7B5     		push	{r0, r1, r2, r4, r5, r6, r7, lr}
 276              		.cfi_def_cfa_offset 32
 277              		.cfi_offset 0, -32
 278              		.cfi_offset 1, -28
 279              		.cfi_offset 2, -24
 280              		.cfi_offset 4, -20
 281              		.cfi_offset 5, -16
 282              		.cfi_offset 6, -12
 283              		.cfi_offset 7, -8
 284              		.cfi_offset 14, -4
 187:hids.c        **** 	static uint8 keyboard_data[KEYBOARD_DATA_SIZE]={0,0,0,0,0,0};
 188:hids.c        **** 	CYBLE_API_RESULT_T apiResult;
 189:hids.c        **** 	static uint32 keyboardTimer = KEYBOARD_TIMEOUT;
 190:hids.c        **** 	static uint8 simKey; 
 191:hids.c        **** 	static uint8 capsLockPress = 0u;
 192:hids.c        **** 	//uint8 i;
 193:hids.c        **** 	
 194:hids.c        **** 	/* Scan SW2 key each connection interval */
 195:hids.c        **** 	if(0u == SW2_Read())
 285              		.loc 1 195 0
 286 0002 FFF7FEFF 		bl	SW2_Read
 287              	.LVL13:
 288 0006 424C     		ldr	r4, .L75
 289 0008 0028     		cmp	r0, #0
 290 000a 0AD1     		bne	.L38
 196:hids.c        **** 	{
 197:hids.c        **** 		if(capsLockPress < KEYBOARD_JITTER_SIZE)
 291              		.loc 1 197 0
 292 000c 2378     		ldrb	r3, [r4]
 293 000e 002B     		cmp	r3, #0
 294 0010 05D0     		beq	.L74
 198:hids.c        **** 		{
 199:hids.c        **** 			capsLockPress++;
 200:hids.c        **** 		} 
 201:hids.c        **** 		else if(capsLockPress == KEYBOARD_JITTER_SIZE)
 295              		.loc 1 201 0
 296 0012 012B     		cmp	r3, #1
 297 0014 07D1     		bne	.L40
 202:hids.c        **** 		{
 203:hids.c        **** 			keyboard_data[2u] = CAPS_LOCK;              /* Set up keyboard data */
 298              		.loc 1 203 0
 299 0016 3922     		movs	r2, #57
 300 0018 E270     		strb	r2, [r4, #3]
 204:hids.c        **** 			keyboardTimer = 1u;                         /* Clear Simulation timer to send data */
 301              		.loc 1 204 0
 302 001a 3E4A     		ldr	r2, .L75+4
ARM GAS  C:\Users\Xavier\AppData\Local\Temp\ccfq6JZn.s 			page 10


 303 001c 5360     		str	r3, [r2, #4]
 304              	.L74:
 205:hids.c        **** 			capsLockPress++;
 305              		.loc 1 205 0
 306 001e 0133     		adds	r3, r3, #1
 307 0020 00E0     		b	.L72
 308              	.L38:
 206:hids.c        **** 		}
 207:hids.c        **** 		else    /* Ignore long key pressing */
 208:hids.c        **** 		{
 209:hids.c        ****             
 210:hids.c        **** 		}
 211:hids.c        **** 	}
 212:hids.c        **** 	else
 213:hids.c        **** 	{
 214:hids.c        **** 		capsLockPress = 0u;
 309              		.loc 1 214 0
 310 0022 0023     		movs	r3, #0
 311              	.L72:
 312 0024 2370     		strb	r3, [r4]
 313              	.L40:
 215:hids.c        **** 	}
 216:hids.c        **** 	
 217:hids.c        ****     
 218:hids.c        ****     
 219:hids.c        ****     
 220:hids.c        ****     
 221:hids.c        ****     
 222:hids.c        **** 
 223:hids.c        **** 	if((CyBle_GattGetBusyStatus() == CYBLE_STACK_STATE_FREE) && (--keyboardTimer == 0u))
 314              		.loc 1 223 0
 315 0026 3C4B     		ldr	r3, .L75+8
 316 0028 1B78     		ldrb	r3, [r3]
 317 002a 002B     		cmp	r3, #0
 318 002c 6ED1     		bne	.L37
 319              		.loc 1 223 0 is_stmt 0 discriminator 1
 320 002e 394A     		ldr	r2, .L75+4
 321 0030 5368     		ldr	r3, [r2, #4]
 322 0032 1600     		movs	r6, r2
 323 0034 013B     		subs	r3, r3, #1
 324 0036 002B     		cmp	r3, #0
 325 0038 01D0     		beq	.L43
 326              		.loc 1 223 0
 327 003a 5360     		str	r3, [r2, #4]
 328 003c 66E0     		b	.L37
 329              	.L43:
 224:hids.c        **** 	{
 225:hids.c        **** 		keyboardTimer = KEYBOARD_TIMEOUT;
 330              		.loc 1 225 0 is_stmt 1
 331 003e 0A23     		movs	r3, #10
 226:hids.c        **** 		//simKey++;
 227:hids.c        **** 		//if(simKey > SIM_KEY_MAX)
 228:hids.c        **** 		//{
 229:hids.c        **** 		//    simKey = SIM_KEY_MIN; 
 230:hids.c        **** 		//}
 231:hids.c        **** 		//SIM_KEY_MIN expand to 4, which correspond to key "A"
 232:hids.c        **** 		//
ARM GAS  C:\Users\Xavier\AppData\Local\Temp\ccfq6JZn.s 			page 11


 233:hids.c        **** 		prevButtons = currButtons;
 332              		.loc 1 233 0
 333 0040 364F     		ldr	r7, .L75+12
 225:hids.c        **** 		//simKey++;
 334              		.loc 1 225 0
 335 0042 5360     		str	r3, [r2, #4]
 336              		.loc 1 233 0
 337 0044 364D     		ldr	r5, .L75+16
 338 0046 3B78     		ldrb	r3, [r7]
 339 0048 2B70     		strb	r3, [r5]
 234:hids.c        **** 		currButtons = Buttons_Read();
 340              		.loc 1 234 0
 341 004a FFF7FEFF 		bl	Buttons_Read
 342              	.LVL14:
 235:hids.c        ****         currButtons = ~currButtons;
 343              		.loc 1 235 0
 344 004e C043     		mvns	r0, r0
 236:hids.c        ****                     
 237:hids.c        ****         if((currButtons & 0b00100000) && !(prevButtons & 0b00100000))
 345              		.loc 1 237 0
 346 0050 2022     		movs	r2, #32
 235:hids.c        ****         currButtons = ~currButtons;
 347              		.loc 1 235 0
 348 0052 C0B2     		uxtb	r0, r0
 349 0054 3870     		strb	r0, [r7]
 350 0056 2B00     		movs	r3, r5
 351              		.loc 1 237 0
 352 0058 1042     		tst	r0, r2
 353 005a 04D0     		beq	.L45
 354              		.loc 1 237 0 is_stmt 0 discriminator 1
 355 005c 2978     		ldrb	r1, [r5]
 356 005e 1142     		tst	r1, r2
 357 0060 01D1     		bne	.L45
 238:hids.c        ****         simKey = 4;
 358              		.loc 1 238 0 is_stmt 1
 359 0062 0423     		movs	r3, #4
 360 0064 28E0     		b	.L73
 361              	.L45:
 239:hids.c        ****         else if((currButtons & 0b00010000) && !(prevButtons & 0b00010000))
 362              		.loc 1 239 0
 363 0066 1022     		movs	r2, #16
 364 0068 1042     		tst	r0, r2
 365 006a 04D0     		beq	.L47
 366              		.loc 1 239 0 is_stmt 0 discriminator 1
 367 006c 1978     		ldrb	r1, [r3]
 368 006e 1142     		tst	r1, r2
 369 0070 01D1     		bne	.L47
 240:hids.c        ****         simKey = 5;
 370              		.loc 1 240 0 is_stmt 1
 371 0072 0523     		movs	r3, #5
 372 0074 20E0     		b	.L73
 373              	.L47:
 241:hids.c        ****         else if((currButtons & 0b00001000) && !(prevButtons & 0b00001000))
 374              		.loc 1 241 0
 375 0076 0822     		movs	r2, #8
 376 0078 1042     		tst	r0, r2
 377 007a 04D0     		beq	.L48
ARM GAS  C:\Users\Xavier\AppData\Local\Temp\ccfq6JZn.s 			page 12


 378              		.loc 1 241 0 is_stmt 0 discriminator 1
 379 007c 1978     		ldrb	r1, [r3]
 380 007e 1142     		tst	r1, r2
 381 0080 01D1     		bne	.L48
 242:hids.c        ****         simKey = 6;
 382              		.loc 1 242 0 is_stmt 1
 383 0082 0623     		movs	r3, #6
 384 0084 18E0     		b	.L73
 385              	.L48:
 243:hids.c        ****         else if((currButtons & 0b00000100) && !(prevButtons & 0b00000100))
 386              		.loc 1 243 0
 387 0086 0422     		movs	r2, #4
 388 0088 1042     		tst	r0, r2
 389 008a 04D0     		beq	.L49
 390              		.loc 1 243 0 is_stmt 0 discriminator 1
 391 008c 1978     		ldrb	r1, [r3]
 392 008e 1142     		tst	r1, r2
 393 0090 01D1     		bne	.L49
 244:hids.c        ****         simKey = 7;
 394              		.loc 1 244 0 is_stmt 1
 395 0092 0723     		movs	r3, #7
 396 0094 10E0     		b	.L73
 397              	.L49:
 245:hids.c        ****         else if((currButtons & 0b00000010) && !(prevButtons & 0b00000010))
 398              		.loc 1 245 0
 399 0096 0222     		movs	r2, #2
 400 0098 1042     		tst	r0, r2
 401 009a 04D0     		beq	.L50
 402              		.loc 1 245 0 is_stmt 0 discriminator 1
 403 009c 1978     		ldrb	r1, [r3]
 404 009e 1142     		tst	r1, r2
 405 00a0 01D1     		bne	.L50
 246:hids.c        ****         simKey = 8;
 406              		.loc 1 246 0 is_stmt 1
 407 00a2 0823     		movs	r3, #8
 408 00a4 08E0     		b	.L73
 409              	.L50:
 247:hids.c        ****         else if((currButtons & 0b00000001) && !(prevButtons & 0b00000001))
 410              		.loc 1 247 0
 411 00a6 0122     		movs	r2, #1
 412 00a8 1042     		tst	r0, r2
 413 00aa 04D0     		beq	.L51
 414              		.loc 1 247 0 is_stmt 0 discriminator 1
 415 00ac 1B78     		ldrb	r3, [r3]
 416 00ae 1342     		tst	r3, r2
 417 00b0 01D1     		bne	.L51
 248:hids.c        ****         simKey = 9;
 418              		.loc 1 248 0 is_stmt 1
 419 00b2 0923     		movs	r3, #9
 420 00b4 00E0     		b	.L73
 421              	.L51:
 249:hids.c        **** 		else
 250:hids.c        ****         simKey = 0;
 422              		.loc 1 250 0
 423 00b6 0023     		movs	r3, #0
 424              	.L73:
 251:hids.c        ****         keyboard_data[3u] = simKey;
ARM GAS  C:\Users\Xavier\AppData\Local\Temp\ccfq6JZn.s 			page 13


 252:hids.c        **** 	
 253:hids.c        **** 		apiResult = CyBle_HidssGetCharacteristicValue(CYBLE_HUMAN_INTERFACE_DEVICE_SERVICE_INDEX, 
 425              		.loc 1 253 0
 426 00b8 0021     		movs	r1, #0
 250:hids.c        ****         keyboard_data[3u] = simKey;
 427              		.loc 1 250 0
 428 00ba E371     		strb	r3, [r4, #7]
 251:hids.c        ****         keyboard_data[3u] = simKey;
 429              		.loc 1 251 0
 430 00bc E379     		ldrb	r3, [r4, #7]
 431 00be 651C     		adds	r5, r4, #1
 432 00c0 EB70     		strb	r3, [r5, #3]
 433              		.loc 1 253 0
 434 00c2 0800     		movs	r0, r1
 435 00c4 3300     		movs	r3, r6
 436 00c6 0122     		movs	r2, #1
 437 00c8 FFF7FEFF 		bl	CyBle_HidssGetCharacteristicValue
 438              	.LVL15:
 439 00cc 011E     		subs	r1, r0, #0
 440              	.LVL16:
 254:hids.c        **** 			CYBLE_HIDS_PROTOCOL_MODE, sizeof(protocol), &protocol);
 255:hids.c        **** 		if(apiResult == CYBLE_ERROR_OK)
 441              		.loc 1 255 0
 442 00ce 1DD1     		bne	.L37
 256:hids.c        **** 		{
 257:hids.c        ****             /*
 258:hids.c        **** 			DBG_PRINTF("HIgD notification: ");
 259:hids.c        **** 			for(i = 0; i < KEYBOARD_DATA_SIZE; i++)
 260:hids.c        **** 			{
 261:hids.c        **** 				DBG_PRINTF("%2.2x,", keyboard_data[i]);
 262:hids.c        **** 			}
 263:hids.c        **** 			DBG_PRINTF("\r\n");
 264:hids.c        **** 			
 265:hids.c        **** 			if(protocol == CYBLE_HIDS_PROTOCOL_MODE_BOOT)
 266:hids.c        **** 			{
 267:hids.c        **** 				apiResult = CyBle_HidssSendNotification(cyBle_connHandle, CYBLE_HUMAN_INTERFACE_DEVICE_SERVICE_
 268:hids.c        **** 					CYBLE_HIDS_BOOT_KYBRD_IN_REP, KEYBOARD_DATA_SIZE, keyboard_data);
 269:hids.c        **** 			}
 270:hids.c        **** 			else
 271:hids.c        ****             */
 272:hids.c        **** 			{
 273:hids.c        **** 				apiResult = CyBle_HidssSendNotification(cyBle_connHandle, CYBLE_HUMAN_INTERFACE_DEVICE_SERVICE_
 443              		.loc 1 273 0
 444 00d0 144C     		ldr	r4, .L75+20
 445 00d2 0095     		str	r5, [sp]
 446 00d4 6278     		ldrb	r2, [r4, #1]
 447 00d6 2378     		ldrb	r3, [r4]
 448 00d8 1202     		lsls	r2, r2, #8
 449 00da 1A43     		orrs	r2, r3
 450 00dc 1000     		movs	r0, r2
 451              	.LVL17:
 452 00de 0623     		movs	r3, #6
 453 00e0 0722     		movs	r2, #7
 454 00e2 FFF7FEFF 		bl	CyBle_HidssSendNotification
 455              	.LVL18:
 456 00e6 011E     		subs	r1, r0, #0
 457              	.LVL19:
ARM GAS  C:\Users\Xavier\AppData\Local\Temp\ccfq6JZn.s 			page 14


 274:hids.c        **** 					CYBLE_HUMAN_INTERFACE_DEVICE_REPORT_IN, KEYBOARD_DATA_SIZE, keyboard_data);
 275:hids.c        **** 			}
 276:hids.c        **** 			//sends "keyup" after sending "keydown", most likely
 277:hids.c        **** 			if(apiResult == CYBLE_ERROR_OK)
 458              		.loc 1 277 0
 459 00e8 03D0     		beq	.L52
 460              	.L53:
 461              	.LVL20:
 278:hids.c        **** 			{
 279:hids.c        **** 				keyboard_data[2u] = 0u;                       /* Set up keyboard data*/
 280:hids.c        **** 				keyboard_data[3u] = 0u;                       /* Set up keyboard data*/
 281:hids.c        ****                 /*
 282:hids.c        **** 				if(protocol == CYBLE_HIDS_PROTOCOL_MODE_BOOT)
 283:hids.c        **** 				{
 284:hids.c        **** 					apiResult = CyBle_HidssSendNotification(cyBle_connHandle, CYBLE_HUMAN_INTERFACE_DEVICE_SERVICE
 285:hids.c        **** 						CYBLE_HIDS_BOOT_KYBRD_IN_REP, KEYBOARD_DATA_SIZE, keyboard_data);
 286:hids.c        **** 				}
 287:hids.c        **** 				else
 288:hids.c        ****                 */
 289:hids.c        **** 				{
 290:hids.c        **** 					apiResult = CyBle_HidssSendNotification(cyBle_connHandle, CYBLE_HUMAN_INTERFACE_DEVICE_SERVICE
 291:hids.c        **** 						CYBLE_HUMAN_INTERFACE_DEVICE_REPORT_IN, KEYBOARD_DATA_SIZE, keyboard_data);
 292:hids.c        **** 				}
 293:hids.c        **** 			}
 294:hids.c        **** 			if(apiResult != CYBLE_ERROR_OK)
 295:hids.c        **** 			{
 296:hids.c        **** 				DBG_PRINTF("HID notification API Error: %x \r\n", apiResult);
 297:hids.c        **** 				keyboardSimulation = DISABLED;
 462              		.loc 1 297 0
 463 00ea 0022     		movs	r2, #0
 464 00ec 0E4B     		ldr	r3, .L75+24
 465 00ee 1A80     		strh	r2, [r3]
 466 00f0 0CE0     		b	.L37
 467              	.LVL21:
 468              	.L52:
 279:hids.c        **** 				keyboard_data[3u] = 0u;                       /* Set up keyboard data*/
 469              		.loc 1 279 0
 470 00f2 A870     		strb	r0, [r5, #2]
 280:hids.c        ****                 /*
 471              		.loc 1 280 0
 472 00f4 E870     		strb	r0, [r5, #3]
 290:hids.c        **** 						CYBLE_HUMAN_INTERFACE_DEVICE_REPORT_IN, KEYBOARD_DATA_SIZE, keyboard_data);
 473              		.loc 1 290 0
 474 00f6 0095     		str	r5, [sp]
 475 00f8 6078     		ldrb	r0, [r4, #1]
 476              	.LVL22:
 477 00fa 2378     		ldrb	r3, [r4]
 478 00fc 0002     		lsls	r0, r0, #8
 479 00fe 1843     		orrs	r0, r3
 480 0100 0722     		movs	r2, #7
 481 0102 0623     		movs	r3, #6
 482 0104 FFF7FEFF 		bl	CyBle_HidssSendNotification
 483              	.LVL23:
 294:hids.c        **** 			{
 484              		.loc 1 294 0
 485 0108 0028     		cmp	r0, #0
 486 010a EED1     		bne	.L53
ARM GAS  C:\Users\Xavier\AppData\Local\Temp\ccfq6JZn.s 			page 15


 487              	.LVL24:
 488              	.L37:
 298:hids.c        **** 			}
 299:hids.c        **** 		}
 300:hids.c        **** 	}
 301:hids.c        **** }
 489              		.loc 1 301 0
 490              		@ sp needed
 491 010c F7BD     		pop	{r0, r1, r2, r4, r5, r6, r7, pc}
 492              	.L76:
 493 010e C046     		.align	2
 494              	.L75:
 495 0110 00000000 		.word	.LANCHOR1
 496 0114 00000000 		.word	.LANCHOR0
 497 0118 00000000 		.word	cyBle_busyStatus
 498 011c 00000000 		.word	currButtons
 499 0120 00000000 		.word	prevButtons
 500 0124 00000000 		.word	cyBle_connHandle
 501 0128 00000000 		.word	keyboardSimulation
 502              		.cfi_endproc
 503              	.LFE38:
 504              		.size	SimulateKeyboard, .-SimulateKeyboard
 505              		.comm	currButtons,1,1
 506              		.comm	prevButtons,1,1
 507              		.global	suspend
 508              		.global	protocol
 509              		.comm	keyboardSimulation,2,2
 510              		.data
 511              		.align	2
 512              		.set	.LANCHOR0,. + 0
 513              		.type	protocol, %object
 514              		.size	protocol, 1
 515              	protocol:
 516 0000 01       		.byte	1
 517              		.type	suspend, %object
 518              		.size	suspend, 1
 519              	suspend:
 520 0001 01       		.byte	1
 521 0002 0000     		.space	2
 522              		.type	keyboardTimer.8503, %object
 523              		.size	keyboardTimer.8503, 4
 524              	keyboardTimer.8503:
 525 0004 0A000000 		.word	10
 526              		.bss
 527              		.set	.LANCHOR1,. + 0
 528              		.type	capsLockPress.8505, %object
 529              		.size	capsLockPress.8505, 1
 530              	capsLockPress.8505:
 531 0000 00       		.space	1
 532              		.type	keyboard_data.8501, %object
 533              		.size	keyboard_data.8501, 6
 534              	keyboard_data.8501:
 535 0001 00000000 		.space	6
 535      0000
 536              		.type	simKey.8504, %object
 537              		.size	simKey.8504, 1
 538              	simKey.8504:
ARM GAS  C:\Users\Xavier\AppData\Local\Temp\ccfq6JZn.s 			page 16


 539 0007 00       		.space	1
 540              		.text
 541              	.Letext0:
 542              		.file 2 "Generated_Source\\PSoC4/cytypes.h"
 543              		.file 3 "Generated_Source\\PSoC4/BLE_Stack.h"
 544              		.file 4 "Generated_Source\\PSoC4/BLE_StackGatt.h"
 545              		.file 5 "Generated_Source\\PSoC4/BLE_hids.h"
 546              		.file 6 "Generated_Source\\PSoC4/BLE_dis.h"
 547              		.file 7 "Generated_Source\\PSoC4/BLE_eventHandler.h"
 548              		.file 8 "Generated_Source\\PSoC4/CapsLock_LED.h"
 549              		.file 9 "Generated_Source\\PSoC4/Advertising_LED.h"
 550              		.file 10 "common.h"
 551              		.file 11 "Generated_Source\\PSoC4/SW2.h"
 552              		.file 12 "Generated_Source\\PSoC4/Buttons.h"