ARM GAS  C:\Users\Xavier\AppData\Local\Temp\ccTsFUiy.s 			page 1


   1              		.syntax unified
   2              		.cpu cortex-m0
   3              		.fpu softvfp
   4              		.eabi_attribute 20, 1
   5              		.eabi_attribute 21, 1
   6              		.eabi_attribute 23, 3
   7              		.eabi_attribute 24, 1
   8              		.eabi_attribute 25, 1
   9              		.eabi_attribute 26, 1
  10              		.eabi_attribute 30, 4
  11              		.eabi_attribute 34, 0
  12              		.eabi_attribute 18, 4
  13              		.thumb
  14              		.syntax unified
  15              		.file	"scps.c"
  16              		.text
  17              	.Ltext0:
  18              		.cfi_sections	.debug_frame
  19              		.section	.text.ScpsCallBack,"ax",%progbits
  20              		.align	1
  21              		.global	ScpsCallBack
  22              		.code	16
  23              		.thumb_func
  24              		.type	ScpsCallBack, %function
  25              	ScpsCallBack:
  26              	.LFB36:
  27              		.file 1 "scps.c"
   1:scps.c        **** /*******************************************************************************
   2:scps.c        **** * File Name: scps.c
   3:scps.c        **** *
   4:scps.c        **** * Version: 1.0
   5:scps.c        **** *
   6:scps.c        **** * Description:
   7:scps.c        **** *  This file contains SCPS callback handler function.
   8:scps.c        **** *
   9:scps.c        **** * Hardware Dependency:
  10:scps.c        **** *  CY8CKIT-042 BLE
  11:scps.c        **** * 
  12:scps.c        **** ********************************************************************************
  13:scps.c        **** * Copyright 2016, Cypress Semiconductor Corporation.  All rights reserved.
  14:scps.c        **** * You may use this file only in accordance with the license, terms, conditions,
  15:scps.c        **** * disclaimers, and limitations in the end user license agreement accompanying
  16:scps.c        **** * the software package with which this file was provided.
  17:scps.c        **** *******************************************************************************/
  18:scps.c        **** 
  19:scps.c        **** #include "common.h"
  20:scps.c        **** #include "scps.h"
  21:scps.c        **** 
  22:scps.c        **** uint16 requestScanRefresh = 0u;
  23:scps.c        **** uint16 scanInterval = 0u;
  24:scps.c        **** uint16 scanWindow = 0u;
  25:scps.c        **** 
  26:scps.c        **** 
  27:scps.c        **** /*******************************************************************************
  28:scps.c        **** * Function Name: ScpsCallBack()
  29:scps.c        **** ********************************************************************************
  30:scps.c        **** *
ARM GAS  C:\Users\Xavier\AppData\Local\Temp\ccTsFUiy.s 			page 2


  31:scps.c        **** * Summary:
  32:scps.c        **** *   This is an event callback function to receive service specific events from 
  33:scps.c        **** *   SCPS Service.
  34:scps.c        **** *
  35:scps.c        **** * Parameters:
  36:scps.c        **** *  event - the event code
  37:scps.c        **** *  *eventParam - the event parameters
  38:scps.c        **** *
  39:scps.c        **** * Return:
  40:scps.c        **** *  None.
  41:scps.c        **** *
  42:scps.c        **** ********************************************************************************/
  43:scps.c        **** void ScpsCallBack (uint32 event, void *eventParam)
  44:scps.c        **** {
  28              		.loc 1 44 0
  29              		.cfi_startproc
  30              		@ args = 0, pretend = 0, frame = 0
  31              		@ frame_needed = 0, uses_anonymous_args = 0
  32              	.LVL0:
  45:scps.c        ****     DBG_PRINTF("SCPS event: %lx, ", event);
  46:scps.c        ****     switch(event)
  33              		.loc 1 46 0
  34 0000 F823     		movs	r3, #248
  35 0002 FF33     		adds	r3, r3, #255
  44:scps.c        ****     DBG_PRINTF("SCPS event: %lx, ", event);
  36              		.loc 1 44 0
  37 0004 70B5     		push	{r4, r5, r6, lr}
  38              		.cfi_def_cfa_offset 16
  39              		.cfi_offset 4, -16
  40              		.cfi_offset 5, -12
  41              		.cfi_offset 6, -8
  42              		.cfi_offset 14, -4
  44:scps.c        ****     DBG_PRINTF("SCPS event: %lx, ", event);
  43              		.loc 1 44 0
  44 0006 0D00     		movs	r5, r1
  45              		.loc 1 46 0
  46 0008 9842     		cmp	r0, r3
  47 000a 07D0     		beq	.L3
  48 000c 0133     		adds	r3, r3, #1
  49 000e 9842     		cmp	r0, r3
  50 0010 08D0     		beq	.L4
  51 0012 023B     		subs	r3, r3, #2
  47:scps.c        ****     {
  48:scps.c        ****         case CYBLE_EVT_SCPSS_NOTIFICATION_ENABLED:
  49:scps.c        ****             DBG_PRINTF("CYBLE_EVT_SCPSS_NOTIFICATION_ENABLED \r\n");
  50:scps.c        ****             requestScanRefresh = ENABLED;
  52              		.loc 1 50 0
  53 0014 0122     		movs	r2, #1
  46:scps.c        ****     {
  54              		.loc 1 46 0
  55 0016 9842     		cmp	r0, r3
  56 0018 10D1     		bne	.L1
  57 001a 00E0     		b	.L6
  58              	.L3:
  51:scps.c        ****             break;
  52:scps.c        ****         case CYBLE_EVT_SCPSS_NOTIFICATION_DISABLED:
  53:scps.c        ****             DBG_PRINTF("CYBLE_EVT_SCPSS_NOTIFICATION_DISABLED \r\n");
ARM GAS  C:\Users\Xavier\AppData\Local\Temp\ccTsFUiy.s 			page 3


  54:scps.c        ****             requestScanRefresh = DISABLED;
  59              		.loc 1 54 0
  60 001c 0022     		movs	r2, #0
  61              	.L6:
  62 001e 084B     		ldr	r3, .L8
  63 0020 1A80     		strh	r2, [r3]
  55:scps.c        ****             break;
  64              		.loc 1 55 0
  65 0022 0BE0     		b	.L1
  66              	.L4:
  67              	.LVL1:
  68              	.LBB4:
  69              	.LBB5:
  56:scps.c        ****         case CYBLE_EVT_SCPSS_SCAN_INT_WIN_CHAR_WRITE:
  57:scps.c        ****             scanInterval = CyBle_Get16ByPtr(((CYBLE_SCPS_CHAR_VALUE_T *)eventParam)->value->val);
  70              		.loc 1 57 0
  71 0024 4B68     		ldr	r3, [r1, #4]
  72 0026 1868     		ldr	r0, [r3]
  73              	.LVL2:
  74 0028 FFF7FEFF 		bl	CyBle_Get16ByPtr
  75              	.LVL3:
  76 002c 044C     		ldr	r4, .L8
  58:scps.c        ****             scanWindow = CyBle_Get16ByPtr(((CYBLE_SCPS_CHAR_VALUE_T *)eventParam)->value->val + siz
  77              		.loc 1 58 0
  78 002e 6B68     		ldr	r3, [r5, #4]
  57:scps.c        ****             scanWindow = CyBle_Get16ByPtr(((CYBLE_SCPS_CHAR_VALUE_T *)eventParam)->value->val + siz
  79              		.loc 1 57 0
  80 0030 6080     		strh	r0, [r4, #2]
  81              		.loc 1 58 0
  82 0032 1868     		ldr	r0, [r3]
  83 0034 0230     		adds	r0, r0, #2
  84 0036 FFF7FEFF 		bl	CyBle_Get16ByPtr
  85              	.LVL4:
  86 003a A080     		strh	r0, [r4, #4]
  87              	.LVL5:
  88              	.L1:
  89              	.LBE5:
  90              	.LBE4:
  59:scps.c        ****             DBG_PRINTF("CYBLE_EVT_SCPSS_SCAN_INT_WIN_CHAR_WRITE scanInterval: %x, scanWindow: %x \r
  60:scps.c        ****             break;
  61:scps.c        ****         case CYBLE_EVT_SCPSC_NOTIFICATION:
  62:scps.c        ****             break;
  63:scps.c        ****         case CYBLE_EVT_SCPSC_READ_DESCR_RESPONSE:
  64:scps.c        ****             break;
  65:scps.c        ****         case CYBLE_EVT_SCPSC_WRITE_DESCR_RESPONSE:
  66:scps.c        ****             break;
  67:scps.c        ****         default:
  68:scps.c        ****             DBG_PRINTF("Not supported event\r\n");
  69:scps.c        **** 			break;
  70:scps.c        ****     }
  71:scps.c        **** }
  91              		.loc 1 71 0
  92              		@ sp needed
  93              	.LVL6:
  94 003c 70BD     		pop	{r4, r5, r6, pc}
  95              	.L9:
  96 003e C046     		.align	2
ARM GAS  C:\Users\Xavier\AppData\Local\Temp\ccTsFUiy.s 			page 4


  97              	.L8:
  98 0040 00000000 		.word	.LANCHOR0
  99              		.cfi_endproc
 100              	.LFE36:
 101              		.size	ScpsCallBack, .-ScpsCallBack
 102              		.section	.text.ScpsInit,"ax",%progbits
 103              		.align	1
 104              		.global	ScpsInit
 105              		.code	16
 106              		.thumb_func
 107              		.type	ScpsInit, %function
 108              	ScpsInit:
 109              	.LFB37:
  72:scps.c        **** 
  73:scps.c        **** 
  74:scps.c        **** /*******************************************************************************
  75:scps.c        **** * Function Name: ScpsInit()
  76:scps.c        **** ********************************************************************************
  77:scps.c        **** *
  78:scps.c        **** * Summary:
  79:scps.c        **** *   Initializes the SCPS Service.
  80:scps.c        **** *
  81:scps.c        **** *******************************************************************************/
  82:scps.c        **** void ScpsInit(void)
  83:scps.c        **** {
 110              		.loc 1 83 0
 111              		.cfi_startproc
 112              		@ args = 0, pretend = 0, frame = 8
 113              		@ frame_needed = 0, uses_anonymous_args = 0
 114 0000 13B5     		push	{r0, r1, r4, lr}
 115              		.cfi_def_cfa_offset 16
 116              		.cfi_offset 0, -16
 117              		.cfi_offset 1, -12
 118              		.cfi_offset 4, -8
 119              		.cfi_offset 14, -4
  84:scps.c        ****     CYBLE_API_RESULT_T apiResult;
  85:scps.c        ****     uint16 cccdValue;
  86:scps.c        ****     
  87:scps.c        ****     /* Register service specific callback function */
  88:scps.c        ****     CyBle_ScpsRegisterAttrCallback(ScpsCallBack);
 120              		.loc 1 88 0
 121 0002 0B48     		ldr	r0, .L15
 122 0004 FFF7FEFF 		bl	CyBle_ScpsRegisterAttrCallback
 123              	.LVL7:
  89:scps.c        **** 
  90:scps.c        ****     /* Read CCCD configurations from flash */
  91:scps.c        ****     apiResult = CyBle_ScpssGetCharacteristicDescriptor(CYBLE_SCPS_SCAN_REFRESH,
 124              		.loc 1 91 0
 125 0008 6B46     		mov	r3, sp
 126 000a 9C1D     		adds	r4, r3, #6
 127 000c 2300     		movs	r3, r4
 128 000e 0222     		movs	r2, #2
 129 0010 0021     		movs	r1, #0
 130 0012 0120     		movs	r0, #1
 131 0014 FFF7FEFF 		bl	CyBle_ScpssGetCharacteristicDescriptor
 132              	.LVL8:
  92:scps.c        ****         CYBLE_SCPS_SCAN_REFRESH_CCCD, CYBLE_CCCD_LEN, (uint8 *)&cccdValue);
ARM GAS  C:\Users\Xavier\AppData\Local\Temp\ccTsFUiy.s 			page 5


  93:scps.c        ****     if((apiResult == CYBLE_ERROR_OK) && (cccdValue != 0u))
 133              		.loc 1 93 0
 134 0018 0028     		cmp	r0, #0
 135 001a 07D1     		bne	.L10
 136              		.loc 1 93 0 is_stmt 0 discriminator 1
 137 001c 2388     		ldrh	r3, [r4]
 138 001e 002B     		cmp	r3, #0
 139 0020 04D0     		beq	.L10
  94:scps.c        ****     {
  95:scps.c        ****         requestScanRefresh |= ENABLED;
 140              		.loc 1 95 0 is_stmt 1
 141 0022 0121     		movs	r1, #1
 142 0024 034A     		ldr	r2, .L15+4
 143 0026 1388     		ldrh	r3, [r2]
 144 0028 0B43     		orrs	r3, r1
 145 002a 1380     		strh	r3, [r2]
 146              	.L10:
  96:scps.c        ****     }
  97:scps.c        **** }
 147              		.loc 1 97 0
 148              		@ sp needed
 149 002c 13BD     		pop	{r0, r1, r4, pc}
 150              	.L16:
 151 002e C046     		.align	2
 152              	.L15:
 153 0030 00000000 		.word	ScpsCallBack
 154 0034 00000000 		.word	.LANCHOR0
 155              		.cfi_endproc
 156              	.LFE37:
 157              		.size	ScpsInit, .-ScpsInit
 158              		.global	scanWindow
 159              		.global	scanInterval
 160              		.global	requestScanRefresh
 161              		.bss
 162              		.align	1
 163              		.set	.LANCHOR0,. + 0
 164              		.type	requestScanRefresh, %object
 165              		.size	requestScanRefresh, 2
 166              	requestScanRefresh:
 167 0000 0000     		.space	2
 168              		.type	scanInterval, %object
 169              		.size	scanInterval, 2
 170              	scanInterval:
 171 0002 0000     		.space	2
 172              		.type	scanWindow, %object
 173              		.size	scanWindow, 2
 174              	scanWindow:
 175 0004 0000     		.space	2
 176              		.text
 177              	.Letext0:
 178              		.file 2 "Generated_Source\\PSoC4/cytypes.h"
 179              		.file 3 "Generated_Source\\PSoC4/BLE_Stack.h"
 180              		.file 4 "Generated_Source\\PSoC4/BLE_StackGatt.h"
 181              		.file 5 "Generated_Source\\PSoC4/BLE_dis.h"
 182              		.file 6 "Generated_Source\\PSoC4/BLE_scps.h"
 183              		.file 7 "Generated_Source\\PSoC4/BLE_eventHandler.h"
 184              		.file 8 "Generated_Source\\PSoC4/BLE.h"
ARM GAS  C:\Users\Xavier\AppData\Local\Temp\ccTsFUiy.s 			page 6

