ARM GAS  C:\Users\Xavier\AppData\Local\Temp\ccmEtlZ7.s 			page 1


   1              		.syntax unified
   2              		.cpu cortex-m0
   3              		.fpu softvfp
   4              		.eabi_attribute 20, 1
   5              		.eabi_attribute 21, 1
   6              		.eabi_attribute 23, 3
   7              		.eabi_attribute 24, 1
   8              		.eabi_attribute 25, 1
   9              		.eabi_attribute 26, 1
  10              		.eabi_attribute 30, 4
  11              		.eabi_attribute 34, 0
  12              		.eabi_attribute 18, 4
  13              		.thumb
  14              		.syntax unified
  15              		.file	"bas.c"
  16              		.text
  17              	.Ltext0:
  18              		.cfi_sections	.debug_frame
  19              		.section	.text.BasCallBack,"ax",%progbits
  20              		.align	1
  21              		.global	BasCallBack
  22              		.code	16
  23              		.thumb_func
  24              		.type	BasCallBack, %function
  25              	BasCallBack:
  26              	.LFB36:
  27              		.file 1 "bas.c"
   1:bas.c         **** /*******************************************************************************
   2:bas.c         **** * File Name: bas.c
   3:bas.c         **** *
   4:bas.c         **** * Version: 1.0
   5:bas.c         **** *
   6:bas.c         **** * Description:
   7:bas.c         **** *  This file contains BAS callback handler function.
   8:bas.c         **** *
   9:bas.c         **** * Hardware Dependency:
  10:bas.c         **** *  CY8CKIT-042 BLE
  11:bas.c         **** * 
  12:bas.c         **** ********************************************************************************
  13:bas.c         **** * Copyright 2016, Cypress Semiconductor Corporation.  All rights reserved.
  14:bas.c         **** * You may use this file only in accordance with the license, terms, conditions,
  15:bas.c         **** * disclaimers, and limitations in the end user license agreement accompanying
  16:bas.c         **** * the software package with which this file was provided.
  17:bas.c         **** *******************************************************************************/
  18:bas.c         **** 
  19:bas.c         **** #include "common.h"
  20:bas.c         **** #include "bas.h"
  21:bas.c         **** 
  22:bas.c         **** #if (BAS_SIMULATE_ENABLE != 0)
  23:bas.c         **** uint16 batterySimulationNotify = 0u;
  24:bas.c         **** #endif /* (BAS_SIMULATE_ENABLE != 0) */
  25:bas.c         **** 
  26:bas.c         **** #if (BAS_MEASURE_ENABLE != 0)
  27:bas.c         **** uint16 batteryMeasureNotify = 0u;
  28:bas.c         **** #endif /* (BAS_MEASURE_ENABLE != 0) */
  29:bas.c         **** 
  30:bas.c         **** 
ARM GAS  C:\Users\Xavier\AppData\Local\Temp\ccmEtlZ7.s 			page 2


  31:bas.c         **** /*******************************************************************************
  32:bas.c         **** * Function Name: BasCallBack()
  33:bas.c         **** ********************************************************************************
  34:bas.c         **** *
  35:bas.c         **** * Summary:
  36:bas.c         **** *   This is an event callback function to receive service specific events from 
  37:bas.c         **** *   Battery Service.
  38:bas.c         **** *
  39:bas.c         **** * Parameters:
  40:bas.c         **** *  event - the event code
  41:bas.c         **** *  *eventParam - the event parameters
  42:bas.c         **** *
  43:bas.c         **** * Return:
  44:bas.c         **** *  None.
  45:bas.c         **** *
  46:bas.c         **** *******************************************************************************/
  47:bas.c         **** void BasCallBack(uint32 event, void *eventParam)
  48:bas.c         **** {
  28              		.loc 1 48 0
  29              		.cfi_startproc
  30              		@ args = 0, pretend = 0, frame = 0
  31              		@ frame_needed = 0, uses_anonymous_args = 0
  32              		@ link register save eliminated.
  33              	.LVL0:
  49:bas.c         ****     uint8 locServiceIndex;
  50:bas.c         ****     
  51:bas.c         ****     locServiceIndex = ((CYBLE_BAS_CHAR_VALUE_T *)eventParam)->serviceIndex;
  52:bas.c         ****     DBG_PRINTF("BAS event: %lx, ", event);
  53:bas.c         ****     
  54:bas.c         ****     switch(event)
  34              		.loc 1 54 0
  35 0000 9822     		movs	r2, #152
  51:bas.c         ****     DBG_PRINTF("BAS event: %lx, ", event);
  36              		.loc 1 51 0
  37 0002 8B78     		ldrb	r3, [r1, #2]
  38              	.LVL1:
  39              		.loc 1 54 0
  40 0004 5200     		lsls	r2, r2, #1
  41 0006 9042     		cmp	r0, r2
  42 0008 04D0     		beq	.L3
  43 000a 3222     		movs	r2, #50
  44 000c FF32     		adds	r2, r2, #255
  45 000e 9042     		cmp	r0, r2
  46 0010 06D0     		beq	.L4
  47 0012 09E0     		b	.L1
  48              	.L3:
  55:bas.c         ****     {
  56:bas.c         ****         case CYBLE_EVT_BASS_NOTIFICATION_ENABLED:
  57:bas.c         ****             DBG_PRINTF("CYBLE_EVT_BASS_NOTIFICATION_ENABLED: %x \r\n", locServiceIndex);
  58:bas.c         ****         #if (BAS_SIMULATE_ENABLE != 0)
  59:bas.c         ****             if(BAS_SERVICE_SIMULATE == locServiceIndex)
  49              		.loc 1 59 0
  50 0014 002B     		cmp	r3, #0
  51 0016 07D1     		bne	.L1
  60:bas.c         ****             {
  61:bas.c         ****                 batterySimulationNotify = ENABLED;
  52              		.loc 1 61 0
ARM GAS  C:\Users\Xavier\AppData\Local\Temp\ccmEtlZ7.s 			page 3


  53 0018 0122     		movs	r2, #1
  54 001a 044B     		ldr	r3, .L6
  55              	.LVL2:
  56 001c 1A80     		strh	r2, [r3]
  57              	.LVL3:
  58 001e 03E0     		b	.L1
  59              	.LVL4:
  60              	.L4:
  62:bas.c         ****             }
  63:bas.c         ****         #endif /*  (BAS_SIMULATE_ENABLE != 0) */        
  64:bas.c         ****         #if (BAS_MEASURE_ENABLE != 0)
  65:bas.c         ****             if(BAS_SERVICE_MEASURE == locServiceIndex)
  66:bas.c         ****             {
  67:bas.c         ****                 batteryMeasureNotify = ENABLED;
  68:bas.c         ****             }
  69:bas.c         ****         #endif /*  (BAS_MEASURE_ENABLE != 0) */     
  70:bas.c         ****             break;
  71:bas.c         ****         case CYBLE_EVT_BASS_NOTIFICATION_DISABLED:
  72:bas.c         ****             DBG_PRINTF("CYBLE_EVT_BASS_NOTIFICATION_DISABLED: %x \r\n", locServiceIndex);
  73:bas.c         ****         #if (BAS_SIMULATE_ENABLE != 0)
  74:bas.c         ****             if(BAS_SERVICE_SIMULATE == locServiceIndex)
  61              		.loc 1 74 0
  62 0020 002B     		cmp	r3, #0
  63 0022 01D1     		bne	.L1
  75:bas.c         ****             {
  76:bas.c         ****                 batterySimulationNotify = DISABLED;
  64              		.loc 1 76 0
  65 0024 014A     		ldr	r2, .L6
  66 0026 1380     		strh	r3, [r2]
  67              	.LVL5:
  68              	.L1:
  77:bas.c         ****             }
  78:bas.c         ****         #endif /*  (BAS_SIMULATE_ENABLE != 0) */        
  79:bas.c         ****         #if (BAS_MEASURE_ENABLE != 0)
  80:bas.c         ****             if(BAS_SERVICE_MEASURE == locServiceIndex)
  81:bas.c         ****             {
  82:bas.c         ****                 batteryMeasureNotify = DISABLED;
  83:bas.c         ****             }
  84:bas.c         ****         #endif /*  (BAS_MEASURE_ENABLE != 0) */     
  85:bas.c         ****             break;
  86:bas.c         ****         case CYBLE_EVT_BASC_NOTIFICATION:
  87:bas.c         ****             break;
  88:bas.c         ****         case CYBLE_EVT_BASC_READ_CHAR_RESPONSE:
  89:bas.c         ****             break;
  90:bas.c         ****         case CYBLE_EVT_BASC_READ_DESCR_RESPONSE:
  91:bas.c         ****             break;
  92:bas.c         ****         case CYBLE_EVT_BASC_WRITE_DESCR_RESPONSE:
  93:bas.c         ****             break;
  94:bas.c         **** 		default:
  95:bas.c         ****             DBG_PRINTF("Not supported event\r\n");
  96:bas.c         **** 			break;
  97:bas.c         ****     }
  98:bas.c         **** }
  69              		.loc 1 98 0
  70              		@ sp needed
  71 0028 7047     		bx	lr
  72              	.L7:
ARM GAS  C:\Users\Xavier\AppData\Local\Temp\ccmEtlZ7.s 			page 4


  73 002a C046     		.align	2
  74              	.L6:
  75 002c 00000000 		.word	.LANCHOR0
  76              		.cfi_endproc
  77              	.LFE36:
  78              		.size	BasCallBack, .-BasCallBack
  79              		.section	.text.BasInit,"ax",%progbits
  80              		.align	1
  81              		.global	BasInit
  82              		.code	16
  83              		.thumb_func
  84              		.type	BasInit, %function
  85              	BasInit:
  86              	.LFB37:
  99:bas.c         **** 
 100:bas.c         **** 
 101:bas.c         **** /*******************************************************************************
 102:bas.c         **** * Function Name: BasInit()
 103:bas.c         **** ********************************************************************************
 104:bas.c         **** *
 105:bas.c         **** * Summary:
 106:bas.c         **** *   Initializes the battery service.
 107:bas.c         **** *
 108:bas.c         **** *******************************************************************************/
 109:bas.c         **** void BasInit(void)
 110:bas.c         **** {
  87              		.loc 1 110 0
  88              		.cfi_startproc
  89              		@ args = 0, pretend = 0, frame = 8
  90              		@ frame_needed = 0, uses_anonymous_args = 0
  91 0000 1FB5     		push	{r0, r1, r2, r3, r4, lr}
  92              		.cfi_def_cfa_offset 24
  93              		.cfi_offset 0, -24
  94              		.cfi_offset 1, -20
  95              		.cfi_offset 2, -16
  96              		.cfi_offset 3, -12
  97              		.cfi_offset 4, -8
  98              		.cfi_offset 14, -4
 111:bas.c         ****     CYBLE_API_RESULT_T apiResult;
 112:bas.c         ****     uint16 cccdValue;
 113:bas.c         ****     
 114:bas.c         ****     /* Register service specific callback function */
 115:bas.c         ****     CyBle_BasRegisterAttrCallback(BasCallBack);
  99              		.loc 1 115 0
 100 0002 0B48     		ldr	r0, .L13
 116:bas.c         **** 
 117:bas.c         ****     /* Read CCCD configurations from flash */
 118:bas.c         **** #if (BAS_SIMULATE_ENABLE != 0)
 119:bas.c         ****     apiResult = CyBle_BassGetCharacteristicDescriptor(BAS_SERVICE_SIMULATE, CYBLE_BAS_BATTERY_LEVEL
 101              		.loc 1 119 0
 102 0004 0E24     		movs	r4, #14
 115:bas.c         **** 
 103              		.loc 1 115 0
 104 0006 FFF7FEFF 		bl	CyBle_BasRegisterAttrCallback
 105              	.LVL6:
 106              		.loc 1 119 0
 107 000a 0022     		movs	r2, #0
ARM GAS  C:\Users\Xavier\AppData\Local\Temp\ccmEtlZ7.s 			page 5


 108 000c 6C44     		add	r4, r4, sp
 109 000e 0094     		str	r4, [sp]
 110 0010 0223     		movs	r3, #2
 111 0012 1100     		movs	r1, r2
 112 0014 1000     		movs	r0, r2
 113 0016 FFF7FEFF 		bl	CyBle_BassGetCharacteristicDescriptor
 114              	.LVL7:
 120:bas.c         ****         CYBLE_BAS_BATTERY_LEVEL_CCCD, CYBLE_CCCD_LEN, (uint8 *)&cccdValue);
 121:bas.c         ****     if((apiResult == CYBLE_ERROR_OK) && (cccdValue != 0u))
 115              		.loc 1 121 0
 116 001a 0028     		cmp	r0, #0
 117 001c 07D1     		bne	.L8
 118              		.loc 1 121 0 is_stmt 0 discriminator 1
 119 001e 2388     		ldrh	r3, [r4]
 120 0020 002B     		cmp	r3, #0
 121 0022 04D0     		beq	.L8
 122:bas.c         ****     {
 123:bas.c         ****         batterySimulationNotify |= ENABLED;
 122              		.loc 1 123 0 is_stmt 1
 123 0024 0121     		movs	r1, #1
 124 0026 034A     		ldr	r2, .L13+4
 125 0028 1388     		ldrh	r3, [r2]
 126 002a 0B43     		orrs	r3, r1
 127 002c 1380     		strh	r3, [r2]
 128              	.L8:
 124:bas.c         ****     }
 125:bas.c         **** #endif /* (BAS_SIMULATE_ENABLE != 0) */
 126:bas.c         **** #if (BAS_MEASURE_ENABLE != 0)
 127:bas.c         ****     apiResult = CyBle_BassGetCharacteristicDescriptor(BAS_SERVICE_MEASURE, CYBLE_BAS_BATTERY_LEVEL,
 128:bas.c         ****         CYBLE_BAS_BATTERY_LEVEL_CCCD, CYBLE_CCCD_LEN, (uint8 *)&cccdValue);
 129:bas.c         ****     if((apiResult == CYBLE_ERROR_OK) && (cccdValue != 0u))
 130:bas.c         ****     {
 131:bas.c         ****         batteryMeasureNotify |= ENABLED;
 132:bas.c         ****     }
 133:bas.c         **** #endif /* (BAS_MEASURE_ENABLE != 0) */
 134:bas.c         **** }
 129              		.loc 1 134 0
 130              		@ sp needed
 131 002e 1FBD     		pop	{r0, r1, r2, r3, r4, pc}
 132              	.L14:
 133              		.align	2
 134              	.L13:
 135 0030 00000000 		.word	BasCallBack
 136 0034 00000000 		.word	.LANCHOR0
 137              		.cfi_endproc
 138              	.LFE37:
 139              		.size	BasInit, .-BasInit
 140              		.section	.text.SimulateBattery,"ax",%progbits
 141              		.align	1
 142              		.global	SimulateBattery
 143              		.code	16
 144              		.thumb_func
 145              		.type	SimulateBattery, %function
 146              	SimulateBattery:
 147              	.LFB38:
 135:bas.c         **** 
 136:bas.c         **** 
ARM GAS  C:\Users\Xavier\AppData\Local\Temp\ccmEtlZ7.s 			page 6


 137:bas.c         **** #if (BAS_MEASURE_ENABLE != 0)
 138:bas.c         ****     
 139:bas.c         **** 
 140:bas.c         **** /*******************************************************************************
 141:bas.c         **** * Function Name: MeasureBattery()
 142:bas.c         **** ********************************************************************************
 143:bas.c         **** *
 144:bas.c         **** * Summary:
 145:bas.c         **** *   This function measures the battery voltage and sends it to the client.
 146:bas.c         **** *
 147:bas.c         **** *******************************************************************************/
 148:bas.c         **** void MeasureBattery(void)
 149:bas.c         **** {
 150:bas.c         **** 	int16 adcResult;
 151:bas.c         ****     int32 mvolts;
 152:bas.c         **** 	uint32 sarControlReg;
 153:bas.c         ****     uint8 batteryLevel;
 154:bas.c         ****     CYBLE_API_RESULT_T apiResult;
 155:bas.c         ****     
 156:bas.c         ****     static uint32 batteryTimer = BATTERY_TIMEOUT;
 157:bas.c         ****     
 158:bas.c         ****     if(--batteryTimer == 0u) 
 159:bas.c         ****     {
 160:bas.c         ****         batteryTimer = BATTERY_TIMEOUT;
 161:bas.c         ****         
 162:bas.c         ****     	/* Set the reference to VBG and enable reference bypass */
 163:bas.c         ****     	sarControlReg = ADC_SAR_CTRL_REG & ~ADC_VREF_MASK;
 164:bas.c         ****     	ADC_SAR_CTRL_REG = sarControlReg | ADC_VREF_INTERNAL1024BYPASSED;
 165:bas.c         ****     	
 166:bas.c         ****     	/* 25 ms delay for reference capacitor to charge */
 167:bas.c         ****     	CyDelay(25);             
 168:bas.c         ****     	
 169:bas.c         ****     	/* Set the reference to VDD and disable reference bypass */
 170:bas.c         ****     	sarControlReg = ADC_SAR_CTRL_REG & ~ADC_VREF_MASK;
 171:bas.c         ****     	ADC_SAR_CTRL_REG = sarControlReg | ADC_VREF_VDDA;
 172:bas.c         **** 
 173:bas.c         ****     	/* Perform a measurement. Store this value in Vref. */
 174:bas.c         ****     	CyDelay(1);
 175:bas.c         ****     	ADC_StartConvert();
 176:bas.c         ****     	ADC_IsEndConversion(ADC_WAIT_FOR_RESULT);
 177:bas.c         **** 
 178:bas.c         ****         adcResult = ADC_GetResult16(ADC_BATTERY_CHANNEL);
 179:bas.c         ****     	/* Calculate input voltage by using ratio of ADC counts from reference
 180:bas.c         ****     	*  and ADC Full Scale counts. 
 181:bas.c         ****         */
 182:bas.c         ****     	mvolts = (1024 * 2048) / adcResult;
 183:bas.c         ****         
 184:bas.c         ****         /* Convert battery level voltage to percentage using linear approximation
 185:bas.c         ****         *  divided to two sections according to typical performance of 
 186:bas.c         ****         *  CR2033 battery specification:
 187:bas.c         ****         *  3V - 100%
 188:bas.c         ****         *  2.8V - 29%
 189:bas.c         ****         *  2.0V - 0%
 190:bas.c         ****         */
 191:bas.c         ****         if(mvolts < MEASURE_BATTERY_MIN)
 192:bas.c         ****         {
 193:bas.c         ****             batteryLevel = 0;
ARM GAS  C:\Users\Xavier\AppData\Local\Temp\ccmEtlZ7.s 			page 7


 194:bas.c         ****         }
 195:bas.c         ****         else if(mvolts < MEASURE_BATTERY_MID)
 196:bas.c         ****         {
 197:bas.c         ****             batteryLevel = (mvolts - MEASURE_BATTERY_MIN) * MEASURE_BATTERY_MID_PERCENT / 
 198:bas.c         ****                            (MEASURE_BATTERY_MID - MEASURE_BATTERY_MIN); 
 199:bas.c         ****         }
 200:bas.c         ****         else if(mvolts < MEASURE_BATTERY_MAX)
 201:bas.c         ****         {
 202:bas.c         ****             batteryLevel = MEASURE_BATTERY_MID_PERCENT +
 203:bas.c         ****                            (mvolts - MEASURE_BATTERY_MID) * (100 - MEASURE_BATTERY_MID_PERCENT) / 
 204:bas.c         ****                            (MEASURE_BATTERY_MAX - MEASURE_BATTERY_MID); 
 205:bas.c         ****         }
 206:bas.c         ****         else
 207:bas.c         ****         {
 208:bas.c         ****             batteryLevel = CYBLE_BAS_MAX_BATTERY_LEVEL_VALUE;
 209:bas.c         ****         }
 210:bas.c         ****     #if (BAS_MEASURE_LP_LED != 0u)
 211:bas.c         ****         if(batteryLevel < LOW_BATTERY_LIMIT)
 212:bas.c         ****         {
 213:bas.c         ****             LowPower_LED_Write(LED_ON);
 214:bas.c         ****         }
 215:bas.c         ****         else
 216:bas.c         ****         {
 217:bas.c         ****             LowPower_LED_Write(LED_OFF);
 218:bas.c         ****         }
 219:bas.c         ****     #endif /* (BAS_MEASURE_LP_LED != 0u) */
 220:bas.c         ****     
 221:bas.c         ****         if(batteryMeasureNotify == ENABLED)
 222:bas.c         ****         {
 223:bas.c         ****             /* Update Battery Level characteristic value and send Notification */
 224:bas.c         ****             apiResult = CyBle_BassSendNotification(cyBle_connHandle, BAS_SERVICE_MEASURE, CYBLE_BAS
 225:bas.c         ****                 sizeof(batteryLevel), &batteryLevel);
 226:bas.c         ****         }
 227:bas.c         ****         else
 228:bas.c         ****         {
 229:bas.c         ****             /* Update Battery Level characteristic value */
 230:bas.c         ****             apiResult = CyBle_BassSetCharacteristicValue(BAS_SERVICE_MEASURE, 
 231:bas.c         ****                 CYBLE_BAS_BATTERY_LEVEL, sizeof(batteryLevel), &batteryLevel);
 232:bas.c         ****         }
 233:bas.c         ****             
 234:bas.c         ****         if(apiResult != CYBLE_ERROR_OK)
 235:bas.c         ****         {
 236:bas.c         ****             DBG_PRINTF("API Error: %x \r\n", apiResult);
 237:bas.c         ****             batteryMeasureNotify = DISABLED;
 238:bas.c         ****         }
 239:bas.c         ****         else
 240:bas.c         ****         {
 241:bas.c         ****             DBG_PRINTF("MeasureBatteryLevelUpdate: %d \r\n",batteryLevel);
 242:bas.c         ****         }
 243:bas.c         ****     }
 244:bas.c         **** }
 245:bas.c         **** 
 246:bas.c         **** #endif /*  (BAS_MEASURE_ENABLE != 0) */
 247:bas.c         **** 
 248:bas.c         **** #if (BAS_SIMULATE_ENABLE != 0)
 249:bas.c         **** 
 250:bas.c         **** 
ARM GAS  C:\Users\Xavier\AppData\Local\Temp\ccmEtlZ7.s 			page 8


 251:bas.c         **** /*******************************************************************************
 252:bas.c         **** * Function Name: SimulateBattery()
 253:bas.c         **** ********************************************************************************
 254:bas.c         **** *
 255:bas.c         **** * Summary:
 256:bas.c         **** *   The custom function to simulate Battery Voltage.
 257:bas.c         **** *
 258:bas.c         **** *******************************************************************************/
 259:bas.c         **** void SimulateBattery(void)
 260:bas.c         **** {
 148              		.loc 1 260 0
 149              		.cfi_startproc
 150              		@ args = 0, pretend = 0, frame = 0
 151              		@ frame_needed = 0, uses_anonymous_args = 0
 152 0000 13B5     		push	{r0, r1, r4, lr}
 153              		.cfi_def_cfa_offset 16
 154              		.cfi_offset 0, -16
 155              		.cfi_offset 1, -12
 156              		.cfi_offset 4, -8
 157              		.cfi_offset 14, -4
 261:bas.c         ****     static uint32 batteryTimer = BATTERY_TIMEOUT;
 262:bas.c         ****     static uint8 batteryLevel = SIM_BATTERY_MIN;
 263:bas.c         ****     CYBLE_API_RESULT_T apiResult;
 264:bas.c         ****     
 265:bas.c         ****     if((CyBle_GattGetBusyStatus() == CYBLE_STACK_STATE_FREE) && (--batteryTimer == 0u))
 158              		.loc 1 265 0
 159 0002 184B     		ldr	r3, .L28
 160 0004 1B78     		ldrb	r3, [r3]
 161 0006 002B     		cmp	r3, #0
 162 0008 2AD1     		bne	.L15
 163              		.loc 1 265 0 is_stmt 0 discriminator 1
 164 000a 1749     		ldr	r1, .L28+4
 165 000c 0B68     		ldr	r3, [r1]
 166 000e 0A00     		movs	r2, r1
 167 0010 013B     		subs	r3, r3, #1
 168 0012 002B     		cmp	r3, #0
 169 0014 01D0     		beq	.L18
 170              		.loc 1 265 0
 171 0016 0B60     		str	r3, [r1]
 172 0018 22E0     		b	.L15
 173              	.L18:
 266:bas.c         ****     {
 267:bas.c         ****         batteryTimer = BATTERY_TIMEOUT;
 174              		.loc 1 267 0 is_stmt 1
 175 001a 3223     		movs	r3, #50
 176 001c 0B60     		str	r3, [r1]
 268:bas.c         ****         
 269:bas.c         ****         /* Battery Level simulation */
 270:bas.c         ****         batteryLevel += SIM_BATTERY_INCREMENT;
 177              		.loc 1 270 0
 178 001e 0B79     		ldrb	r3, [r1, #4]
 179 0020 0533     		adds	r3, r3, #5
 180 0022 DBB2     		uxtb	r3, r3
 271:bas.c         ****         if(batteryLevel > SIM_BATTERY_MAX)
 181              		.loc 1 271 0
 182 0024 502B     		cmp	r3, #80
 183 0026 00D9     		bls	.L27
ARM GAS  C:\Users\Xavier\AppData\Local\Temp\ccmEtlZ7.s 			page 9


 272:bas.c         ****         {
 273:bas.c         ****             batteryLevel = SIM_BATTERY_MIN;
 184              		.loc 1 273 0
 185 0028 1423     		movs	r3, #20
 186              	.L27:
 274:bas.c         ****         }
 275:bas.c         ****         if(batterySimulationNotify == ENABLED)
 187              		.loc 1 275 0
 188 002a 104C     		ldr	r4, .L28+8
 273:bas.c         ****         }
 189              		.loc 1 273 0
 190 002c 1371     		strb	r3, [r2, #4]
 191              		.loc 1 275 0
 192 002e 2388     		ldrh	r3, [r4]
 193 0030 012B     		cmp	r3, #1
 194 0032 0BD1     		bne	.L22
 276:bas.c         ****         {
 277:bas.c         ****             /* Update Battery Level characteristic value and send Notification */
 278:bas.c         ****              apiResult = CyBle_BassSendNotification(cyBle_connHandle, BAS_SERVICE_SIMULATE, CYBLE_B
 195              		.loc 1 278 0
 196 0034 0E49     		ldr	r1, .L28+12
 197 0036 0432     		adds	r2, r2, #4
 198 0038 0092     		str	r2, [sp]
 199 003a 4878     		ldrb	r0, [r1, #1]
 200 003c 0A78     		ldrb	r2, [r1]
 201 003e 0002     		lsls	r0, r0, #8
 202 0040 1043     		orrs	r0, r2
 203 0042 0022     		movs	r2, #0
 204 0044 1100     		movs	r1, r2
 205 0046 FFF7FEFF 		bl	CyBle_BassSendNotification
 206              	.LVL8:
 207 004a 05E0     		b	.L23
 208              	.LVL9:
 209              	.L22:
 279:bas.c         ****                 sizeof(batteryLevel), &batteryLevel);
 280:bas.c         ****         }
 281:bas.c         ****         else
 282:bas.c         ****         {
 283:bas.c         ****             /* Update Battery Level characteristic value */
 284:bas.c         ****              apiResult = CyBle_BassSetCharacteristicValue(BAS_SERVICE_SIMULATE, 
 210              		.loc 1 284 0
 211 004c 0021     		movs	r1, #0
 212 004e 131D     		adds	r3, r2, #4
 213 0050 0800     		movs	r0, r1
 214 0052 0122     		movs	r2, #1
 215 0054 FFF7FEFF 		bl	CyBle_BassSetCharacteristicValue
 216              	.LVL10:
 217              	.L23:
 285:bas.c         ****                 CYBLE_BAS_BATTERY_LEVEL, sizeof(batteryLevel), &batteryLevel);
 286:bas.c         ****         }
 287:bas.c         ****         if(apiResult != CYBLE_ERROR_OK)
 218              		.loc 1 287 0
 219 0058 0028     		cmp	r0, #0
 220 005a 01D0     		beq	.L15
 288:bas.c         ****         {
 289:bas.c         ****             DBG_PRINTF("API Error: %x \r\n", apiResult);
 290:bas.c         ****             batterySimulationNotify = DISABLED;
ARM GAS  C:\Users\Xavier\AppData\Local\Temp\ccmEtlZ7.s 			page 10


 221              		.loc 1 290 0
 222 005c 0023     		movs	r3, #0
 223 005e 2380     		strh	r3, [r4]
 224              	.LVL11:
 225              	.L15:
 291:bas.c         ****         }
 292:bas.c         ****         else
 293:bas.c         ****         {
 294:bas.c         ****             DBG_PRINTF("SimulBatteryLevelUpdate: %d \r\n",batteryLevel);
 295:bas.c         ****         }
 296:bas.c         ****     }
 297:bas.c         **** }
 226              		.loc 1 297 0
 227              		@ sp needed
 228 0060 13BD     		pop	{r0, r1, r4, pc}
 229              	.L29:
 230 0062 C046     		.align	2
 231              	.L28:
 232 0064 00000000 		.word	cyBle_busyStatus
 233 0068 00000000 		.word	.LANCHOR1
 234 006c 00000000 		.word	.LANCHOR0
 235 0070 00000000 		.word	cyBle_connHandle
 236              		.cfi_endproc
 237              	.LFE38:
 238              		.size	SimulateBattery, .-SimulateBattery
 239              		.global	batterySimulationNotify
 240              		.data
 241              		.align	2
 242              		.set	.LANCHOR1,. + 0
 243              		.type	batteryTimer.8490, %object
 244              		.size	batteryTimer.8490, 4
 245              	batteryTimer.8490:
 246 0000 32000000 		.word	50
 247              		.type	batteryLevel.8491, %object
 248              		.size	batteryLevel.8491, 1
 249              	batteryLevel.8491:
 250 0004 14       		.byte	20
 251              		.bss
 252              		.align	1
 253              		.set	.LANCHOR0,. + 0
 254              		.type	batterySimulationNotify, %object
 255              		.size	batterySimulationNotify, 2
 256              	batterySimulationNotify:
 257 0000 0000     		.space	2
 258              		.text
 259              	.Letext0:
 260              		.file 2 "Generated_Source\\PSoC4/cytypes.h"
 261              		.file 3 "Generated_Source\\PSoC4/BLE_Stack.h"
 262              		.file 4 "Generated_Source\\PSoC4/BLE_StackGatt.h"
 263              		.file 5 "Generated_Source\\PSoC4/BLE_bas.h"
 264              		.file 6 "Generated_Source\\PSoC4/BLE_dis.h"
 265              		.file 7 "Generated_Source\\PSoC4/BLE_eventHandler.h"