ARM GAS  C:\Users\Xavier\AppData\Local\Temp\ccUXCgoV.s 			page 1


   1              		.syntax unified
   2              		.cpu cortex-m0
   3              		.fpu softvfp
   4              		.eabi_attribute 20, 1
   5              		.eabi_attribute 21, 1
   6              		.eabi_attribute 23, 3
   7              		.eabi_attribute 24, 1
   8              		.eabi_attribute 25, 1
   9              		.eabi_attribute 26, 1
  10              		.eabi_attribute 30, 4
  11              		.eabi_attribute 34, 0
  12              		.eabi_attribute 18, 4
  13              		.thumb
  14              		.syntax unified
  15              		.file	"main.c"
  16              		.text
  17              	.Ltext0:
  18              		.cfi_sections	.debug_frame
  19              		.section	.text.AppCallBack,"ax",%progbits
  20              		.align	1
  21              		.global	AppCallBack
  22              		.code	16
  23              		.thumb_func
  24              		.type	AppCallBack, %function
  25              	AppCallBack:
  26              	.LFB36:
  27              		.file 1 "main.c"
   1:main.c        **** /*******************************************************************************
   2:main.c        **** * File Name: main.c
   3:main.c        **** *
   4:main.c        **** * Version: 1.0
   5:main.c        **** *
   6:main.c        **** * Description:
   7:main.c        **** *  BLE HID keyboard example project that supports both input and output reports
   8:main.c        **** *  in boot and protocol mode. The example also demonstrates handling suspend 
   9:main.c        **** *  event from the central device and enters low power mode when suspended.
  10:main.c        **** *
  11:main.c        **** * References:
  12:main.c        **** *  BLUETOOTH SPECIFICATION Version 4.1
  13:main.c        **** *  HID Usage Tables spec ver 1.12
  14:main.c        **** *
  15:main.c        **** * Hardware Dependency:
  16:main.c        **** *  CY8CKIT-042 BLE
  17:main.c        **** *
  18:main.c        **** ********************************************************************************
  19:main.c        **** * Copyright 2016, Cypress Semiconductor Corporation.  All rights reserved.
  20:main.c        **** * You may use this file only in accordance with the license, terms, conditions,
  21:main.c        **** * disclaimers, and limitations in the end user license agreement accompanying
  22:main.c        **** * the software package with which this file was provided.
  23:main.c        **** *******************************************************************************/
  24:main.c        **** 
  25:main.c        **** #include "common.h"
  26:main.c        **** #include "hids.h"
  27:main.c        **** #include "bas.h"
  28:main.c        **** #include "scps.h"
  29:main.c        **** 
  30:main.c        **** volatile uint32 mainTimer = 0;
ARM GAS  C:\Users\Xavier\AppData\Local\Temp\ccUXCgoV.s 			page 2


  31:main.c        **** 
  32:main.c        **** 
  33:main.c        **** /*******************************************************************************
  34:main.c        **** * Function Name: AppCallBack()
  35:main.c        **** ********************************************************************************
  36:main.c        **** *
  37:main.c        **** * Summary:
  38:main.c        **** *   This is an event callback function to receive events from the BLE Component.
  39:main.c        **** *
  40:main.c        **** *******************************************************************************/
  41:main.c        **** void AppCallBack(uint32 event, void* eventParam)
  42:main.c        **** {
  28              		.loc 1 42 0
  29              		.cfi_startproc
  30              		@ args = 0, pretend = 0, frame = 8
  31              		@ frame_needed = 0, uses_anonymous_args = 0
  32              	.LVL0:
  33 0000 13B5     		push	{r0, r1, r4, lr}
  34              		.cfi_def_cfa_offset 16
  35              		.cfi_offset 0, -16
  36              		.cfi_offset 1, -12
  37              		.cfi_offset 4, -8
  38              		.cfi_offset 14, -4
  39              		.loc 1 42 0
  40 0002 0C00     		movs	r4, r1
  43:main.c        ****     CYBLE_API_RESULT_T apiResult;
  44:main.c        ****     CYBLE_GAP_BD_ADDR_T localAddr;
  45:main.c        ****     CYBLE_GAP_AUTH_INFO_T *authInfo;
  46:main.c        ****     uint8 i;
  47:main.c        ****     
  48:main.c        ****     switch (event)
  41              		.loc 1 48 0
  42 0004 2828     		cmp	r0, #40
  43 0006 36D0     		beq	.L3
  44 0008 0ED8     		bhi	.L4
  45 000a 2628     		cmp	r0, #38
  46 000c 19D0     		beq	.L5
  47 000e 2ED8     		bhi	.L6
  48 0010 0128     		cmp	r0, #1
  49 0012 3ED1     		bne	.L1
  49:main.c        **** 	{
  50:main.c        ****         /**********************************************************
  51:main.c        ****         *                       General Events
  52:main.c        ****         ***********************************************************/
  53:main.c        **** 		case CYBLE_EVT_STACK_ON: /* This event is received when the component is Started */
  54:main.c        ****             /* Enter into discoverable mode so that remote can search it. */
  55:main.c        ****             apiResult = CyBle_GappStartAdvertisement(CYBLE_ADVERTISING_FAST);
  50              		.loc 1 55 0
  51 0014 0020     		movs	r0, #0
  52              	.LVL1:
  53 0016 FFF7FEFF 		bl	CyBle_GappStartAdvertisement
  54              	.LVL2:
  56:main.c        ****             if(apiResult != CYBLE_ERROR_OK)
  57:main.c        ****             {
  58:main.c        ****                 DBG_PRINTF("StartAdvertisement API Error: %d \r\n", apiResult);
  59:main.c        ****             }
  60:main.c        ****             DBG_PRINTF("Bluetooth On, StartAdvertisement with addr: ");
ARM GAS  C:\Users\Xavier\AppData\Local\Temp\ccUXCgoV.s 			page 3


  61:main.c        ****             localAddr.type = 0u;
  55              		.loc 1 61 0
  56 001a 0023     		movs	r3, #0
  57 001c 6A46     		mov	r2, sp
  62:main.c        ****             CyBle_GetDeviceAddress(&localAddr);
  58              		.loc 1 62 0
  59 001e 6846     		mov	r0, sp
  61:main.c        ****             CyBle_GetDeviceAddress(&localAddr);
  60              		.loc 1 61 0
  61 0020 9371     		strb	r3, [r2, #6]
  62              		.loc 1 62 0
  63 0022 FFF7FEFF 		bl	CyBle_GetDeviceAddress
  64              	.LVL3:
  65 0026 34E0     		b	.L1
  66              	.LVL4:
  67              	.L4:
  48:main.c        **** 	{
  68              		.loc 1 48 0
  69 0028 4328     		cmp	r0, #67
  70 002a 28D0     		beq	.L8
  71 002c 4C28     		cmp	r0, #76
  72 002e 2AD0     		beq	.L9
  73 0030 4128     		cmp	r0, #65
  74 0032 2ED1     		bne	.L1
  63:main.c        ****             for(i = CYBLE_GAP_BD_ADDR_SIZE; i > 0u; i--)
  64:main.c        ****             {
  65:main.c        ****                 DBG_PRINTF("%2.2x", localAddr.bdAddr[i-1]);
  66:main.c        ****             }
  67:main.c        ****             DBG_PRINTF("\r\n");
  68:main.c        ****             break;
  69:main.c        **** 		case CYBLE_EVT_TIMEOUT: 
  70:main.c        ****             break;
  71:main.c        **** 		case CYBLE_EVT_HARDWARE_ERROR:    /* This event indicates that some internal HW error has occurre
  72:main.c        ****             DBG_PRINTF("CYBLE_EVT_HARDWARE_ERROR \r\n");
  73:main.c        **** 			break;
  74:main.c        ****             
  75:main.c        ****     	/* This event will be triggered by host stack if BLE stack is busy or not busy.
  76:main.c        ****     	 *  Parameter corresponding to this event will be the state of BLE stack.
  77:main.c        ****     	 *  BLE stack busy = CYBLE_STACK_STATE_BUSY,
  78:main.c        ****     	 *  BLE stack not busy = CYBLE_STACK_STATE_FREE 
  79:main.c        ****          */
  80:main.c        ****     	case CYBLE_EVT_STACK_BUSY_STATUS:
  81:main.c        ****             DBG_PRINTF("CYBLE_EVT_STACK_BUSY_STATUS: %x\r\n", *(uint8 *)eventParam);
  82:main.c        ****             break;
  83:main.c        ****         case CYBLE_EVT_HCI_STATUS:
  84:main.c        ****             DBG_PRINTF("CYBLE_EVT_HCI_STATUS: %x \r\n", *(uint8 *)eventParam);
  85:main.c        **** 			break;
  86:main.c        ****             
  87:main.c        ****         /**********************************************************
  88:main.c        ****         *                       GAP Events
  89:main.c        ****         ***********************************************************/
  90:main.c        ****         case CYBLE_EVT_GAP_AUTH_REQ:
  91:main.c        ****             DBG_PRINTF("CYBLE_EVT_AUTH_REQ: security=%x, bonding=%x, ekeySize=%x, err=%x \r\n", 
  92:main.c        ****                 (*(CYBLE_GAP_AUTH_INFO_T *)eventParam).security, 
  93:main.c        ****                 (*(CYBLE_GAP_AUTH_INFO_T *)eventParam).bonding, 
  94:main.c        ****                 (*(CYBLE_GAP_AUTH_INFO_T *)eventParam).ekeySize, 
  95:main.c        ****                 (*(CYBLE_GAP_AUTH_INFO_T *)eventParam).authErr);
ARM GAS  C:\Users\Xavier\AppData\Local\Temp\ccUXCgoV.s 			page 4


  96:main.c        ****             break;
  97:main.c        ****         case CYBLE_EVT_GAP_PASSKEY_ENTRY_REQUEST:
  98:main.c        ****             DBG_PRINTF("CYBLE_EVT_PASSKEY_ENTRY_REQUEST press 'p' to enter passkey \r\n");
  99:main.c        ****             break;
 100:main.c        ****         case CYBLE_EVT_GAP_PASSKEY_DISPLAY_REQUEST:
 101:main.c        ****             DBG_PRINTF("CYBLE_EVT_PASSKEY_DISPLAY_REQUEST %6.6ld \r\n", *(uint32 *)eventParam);
 102:main.c        ****             break;
 103:main.c        ****         case CYBLE_EVT_GAP_KEYINFO_EXCHNGE_CMPLT:
 104:main.c        ****             DBG_PRINTF("CYBLE_EVT_GAP_KEYINFO_EXCHNGE_CMPLT \r\n");
 105:main.c        ****             break;
 106:main.c        ****         case CYBLE_EVT_GAP_AUTH_COMPLETE:
 107:main.c        ****             authInfo = (CYBLE_GAP_AUTH_INFO_T *)eventParam;
 108:main.c        ****             (void)authInfo;
 109:main.c        ****             DBG_PRINTF("AUTH_COMPLETE: security:%x, bonding:%x, ekeySize:%x, authErr %x \r\n", 
 110:main.c        ****                                     authInfo->security, authInfo->bonding, authInfo->ekeySize, auth
 111:main.c        ****             break;
 112:main.c        ****         case CYBLE_EVT_GAP_AUTH_FAILED:
 113:main.c        ****             DBG_PRINTF("CYBLE_EVT_AUTH_FAILED: %x \r\n", *(uint8 *)eventParam);
 114:main.c        ****             break;
 115:main.c        ****         case CYBLE_EVT_GAPP_ADVERTISEMENT_START_STOP:
 116:main.c        ****             DBG_PRINTF("CYBLE_EVT_ADVERTISING, state: %x \r\n", CyBle_GetState());
 117:main.c        ****             if(CYBLE_STATE_DISCONNECTED == CyBle_GetState())
 118:main.c        ****             {   
 119:main.c        ****                 /* Fast and slow advertising period complete, go to low power  
 120:main.c        ****                  * mode (Hibernate mode) and wait for an external
 121:main.c        ****                  * user event to wake up the device again */
 122:main.c        ****                 DBG_PRINTF("Hibernate \r\n");
 123:main.c        ****                 Advertising_LED_Write(LED_OFF);
 124:main.c        ****                 Disconnect_LED_Write(LED_ON);
 125:main.c        ****                 CapsLock_LED_Write(LED_OFF);
 126:main.c        ****                 SW2_ClearInterrupt();
 127:main.c        ****                 Wakeup_Interrupt_ClearPending();
 128:main.c        ****                 Wakeup_Interrupt_Start();
 129:main.c        ****             #if (DEBUG_UART_ENABLED == ENABLED)
 130:main.c        ****                 /* Wait until debug info is sent */
 131:main.c        ****                 while((UART_DEB_SpiUartGetTxBufferSize() + UART_DEB_GET_TX_FIFO_SR_VALID) != 0);
 132:main.c        ****             #endif /* (DEBUG_UART_ENABLED == ENABLED) */
 133:main.c        ****                 CySysPmHibernate();
 134:main.c        ****             }
 135:main.c        ****             break;
 136:main.c        ****         case CYBLE_EVT_GAP_DEVICE_CONNECTED:
 137:main.c        ****             DBG_PRINTF("CYBLE_EVT_GAP_DEVICE_CONNECTED \r\n");
 138:main.c        ****             Advertising_LED_Write(LED_OFF);
 139:main.c        ****             break;
 140:main.c        ****         case CYBLE_EVT_GAP_DEVICE_DISCONNECTED:
 141:main.c        ****             DBG_PRINTF("CYBLE_EVT_GAP_DEVICE_DISCONNECTED\r\n");
 142:main.c        ****             apiResult = CyBle_GappStartAdvertisement(CYBLE_ADVERTISING_FAST);
 143:main.c        ****             if(apiResult != CYBLE_ERROR_OK)
 144:main.c        ****             {
 145:main.c        ****                 DBG_PRINTF("StartAdvertisement API Error: %d \r\n", apiResult);
 146:main.c        ****             }
 147:main.c        ****             break;
 148:main.c        ****         case CYBLE_EVT_GATTS_XCNHG_MTU_REQ:
 149:main.c        ****             { 
 150:main.c        ****                 uint16 mtu;
 151:main.c        ****                 CyBle_GattGetMtuSize(&mtu);
 152:main.c        ****                 DBG_PRINTF("CYBLE_EVT_GATTS_XCNHG_MTU_REQ, final mtu= %d \r\n", mtu);
ARM GAS  C:\Users\Xavier\AppData\Local\Temp\ccUXCgoV.s 			page 5


 153:main.c        ****             }
 154:main.c        ****             break;
 155:main.c        ****         case CYBLE_EVT_GATTS_WRITE_REQ:
 156:main.c        ****             DBG_PRINTF("CYBLE_EVT_GATT_WRITE_REQ: %x = ",((CYBLE_GATTS_WRITE_REQ_PARAM_T *)eventPar
 157:main.c        ****             ShowValue(&((CYBLE_GATTS_WRITE_REQ_PARAM_T *)eventParam)->handleValPair.value);
 158:main.c        ****             (void)CyBle_GattsWriteRsp(((CYBLE_GATTS_WRITE_REQ_PARAM_T *)eventParam)->connHandle);
 159:main.c        ****             break;
 160:main.c        ****         case CYBLE_EVT_GAP_ENCRYPT_CHANGE:
 161:main.c        ****             DBG_PRINTF("CYBLE_EVT_GAP_ENCRYPT_CHANGE: %x \r\n", *(uint8 *)eventParam);
 162:main.c        ****             break;
 163:main.c        ****         case CYBLE_EVT_GAPC_CONNECTION_UPDATE_COMPLETE:
 164:main.c        ****             DBG_PRINTF("CYBLE_EVT_CONNECTION_UPDATE_COMPLETE: %x \r\n", *(uint8 *)eventParam);
 165:main.c        ****             break;
 166:main.c        ****             
 167:main.c        ****         /**********************************************************
 168:main.c        ****         *                       GATT Events
 169:main.c        ****         ***********************************************************/
 170:main.c        ****         case CYBLE_EVT_GATT_CONNECT_IND:
 171:main.c        ****             DBG_PRINTF("CYBLE_EVT_GATT_CONNECT_IND: %x, %x \r\n", cyBle_connHandle.attId, cyBle_con
 172:main.c        ****             /* Register service specific callback functions */
 173:main.c        ****             HidsInit();
  75              		.loc 1 173 0
  76 0034 FFF7FEFF 		bl	HidsInit
  77              	.LVL5:
 174:main.c        ****             BasInit();
  78              		.loc 1 174 0
  79 0038 FFF7FEFF 		bl	BasInit
  80              	.LVL6:
 175:main.c        ****             ScpsInit();
  81              		.loc 1 175 0
  82 003c FFF7FEFF 		bl	ScpsInit
  83              	.LVL7:
 176:main.c        ****             break;
 177:main.c        ****         case CYBLE_EVT_GATT_DISCONNECT_IND:
 178:main.c        ****             DBG_PRINTF("CYBLE_EVT_GATT_DISCONNECT_IND \r\n");
 179:main.c        ****             break;
 180:main.c        ****         case CYBLE_EVT_GATTS_READ_CHAR_VAL_ACCESS_REQ:
 181:main.c        ****             /* Triggered on server side when client sends read request and when
 182:main.c        ****             * characteristic has CYBLE_GATT_DB_ATTR_CHAR_VAL_RD_EVENT property set.
 183:main.c        ****             * This event could be ignored by application unless it need to response
 184:main.c        ****             * by error response which needs to be set in gattErrorCode field of
 185:main.c        ****             * event parameter. */
 186:main.c        ****             DBG_PRINTF("CYBLE_EVT_GATTS_READ_CHAR_VAL_ACCESS_REQ: handle: %x \r\n", 
 187:main.c        ****                 ((CYBLE_GATTS_CHAR_VAL_READ_REQ_T *)eventParam)->attrHandle);
 188:main.c        ****             break;
 189:main.c        ****             
 190:main.c        ****         /**********************************************************
 191:main.c        ****         *                       Other Events
 192:main.c        ****         ***********************************************************/
 193:main.c        **** 		case CYBLE_EVT_PENDING_FLASH_WRITE:
 194:main.c        ****             /* Inform application that flash write is pending. Stack internal data 
 195:main.c        ****             * structures are modified and require to be stored in Flash using 
 196:main.c        ****             * CyBle_StoreBondingData() */
 197:main.c        ****             DBG_PRINTF("CYBLE_EVT_PENDING_FLASH_WRITE\r\n");
 198:main.c        ****             break;
 199:main.c        **** 
 200:main.c        ****         default:
ARM GAS  C:\Users\Xavier\AppData\Local\Temp\ccUXCgoV.s 			page 6


 201:main.c        ****             DBG_PRINTF("OTHER event: %lx \r\n", event);
 202:main.c        **** 			break;
 203:main.c        **** 	}
 204:main.c        **** 
 205:main.c        **** }
  84              		.loc 1 205 0
  85 0040 27E0     		b	.L1
  86              	.LVL8:
  87              	.L5:
  88              	.LBB8:
  89              	.LBB9:
 117:main.c        ****             {   
  90              		.loc 1 117 0
  91 0042 144B     		ldr	r3, .L12
  92 0044 1B78     		ldrb	r3, [r3]
  93 0046 042B     		cmp	r3, #4
  94 0048 23D1     		bne	.L1
 123:main.c        ****                 Disconnect_LED_Write(LED_ON);
  95              		.loc 1 123 0
  96 004a 0120     		movs	r0, #1
  97              	.LVL9:
  98 004c FFF7FEFF 		bl	Advertising_LED_Write
  99              	.LVL10:
 124:main.c        ****                 CapsLock_LED_Write(LED_OFF);
 100              		.loc 1 124 0
 101 0050 0020     		movs	r0, #0
 102 0052 FFF7FEFF 		bl	Disconnect_LED_Write
 103              	.LVL11:
 125:main.c        ****                 SW2_ClearInterrupt();
 104              		.loc 1 125 0
 105 0056 0120     		movs	r0, #1
 106 0058 FFF7FEFF 		bl	CapsLock_LED_Write
 107              	.LVL12:
 126:main.c        ****                 Wakeup_Interrupt_ClearPending();
 108              		.loc 1 126 0
 109 005c FFF7FEFF 		bl	SW2_ClearInterrupt
 110              	.LVL13:
 127:main.c        ****                 Wakeup_Interrupt_Start();
 111              		.loc 1 127 0
 112 0060 FFF7FEFF 		bl	Wakeup_Interrupt_ClearPending
 113              	.LVL14:
 128:main.c        ****             #if (DEBUG_UART_ENABLED == ENABLED)
 114              		.loc 1 128 0
 115 0064 FFF7FEFF 		bl	Wakeup_Interrupt_Start
 116              	.LVL15:
 133:main.c        ****             }
 117              		.loc 1 133 0
 118 0068 FFF7FEFF 		bl	CySysPmHibernate
 119              	.LVL16:
 120 006c 11E0     		b	.L1
 121              	.LVL17:
 122              	.L6:
 123              	.LBE9:
 124              	.LBE8:
 138:main.c        ****             break;
 125              		.loc 1 138 0
 126 006e 0120     		movs	r0, #1
ARM GAS  C:\Users\Xavier\AppData\Local\Temp\ccUXCgoV.s 			page 7


 127              	.LVL18:
 128 0070 FFF7FEFF 		bl	Advertising_LED_Write
 129              	.LVL19:
 139:main.c        ****         case CYBLE_EVT_GAP_DEVICE_DISCONNECTED:
 130              		.loc 1 139 0
 131 0074 0DE0     		b	.L1
 132              	.LVL20:
 133              	.L3:
 142:main.c        ****             if(apiResult != CYBLE_ERROR_OK)
 134              		.loc 1 142 0
 135 0076 0020     		movs	r0, #0
 136              	.LVL21:
 137 0078 FFF7FEFF 		bl	CyBle_GappStartAdvertisement
 138              	.LVL22:
 147:main.c        ****         case CYBLE_EVT_GATTS_XCNHG_MTU_REQ:
 139              		.loc 1 147 0
 140 007c 09E0     		b	.L1
 141              	.LVL23:
 142              	.L8:
 143              	.LBB10:
 151:main.c        ****                 DBG_PRINTF("CYBLE_EVT_GATTS_XCNHG_MTU_REQ, final mtu= %d \r\n", mtu);
 144              		.loc 1 151 0 discriminator 13
 145 007e 6846     		mov	r0, sp
 146              	.LVL24:
 147 0080 FFF7FEFF 		bl	CyBle_GattGetMtuSize
 148              	.LVL25:
 149              	.LBE10:
 154:main.c        ****         case CYBLE_EVT_GATTS_WRITE_REQ:
 150              		.loc 1 154 0 discriminator 13
 151 0084 05E0     		b	.L1
 152              	.LVL26:
 153              	.L9:
 157:main.c        ****             (void)CyBle_GattsWriteRsp(((CYBLE_GATTS_WRITE_REQ_PARAM_T *)eventParam)->connHandle);
 154              		.loc 1 157 0
 155 0086 081D     		adds	r0, r1, #4
 156              	.LVL27:
 157 0088 FFF7FEFF 		bl	ShowValue
 158              	.LVL28:
 158:main.c        ****             break;
 159              		.loc 1 158 0
 160 008c 2068     		ldr	r0, [r4]
 161 008e FFF7FEFF 		bl	CyBle_GattsWriteRsp
 162              	.LVL29:
 163              	.L1:
 164              		.loc 1 205 0
 165              		@ sp needed
 166              	.LVL30:
 167 0092 13BD     		pop	{r0, r1, r4, pc}
 168              	.L13:
 169              		.align	2
 170              	.L12:
 171 0094 00000000 		.word	cyBle_state
 172              		.cfi_endproc
 173              	.LFE36:
 174              		.size	AppCallBack, .-AppCallBack
 175              		.section	.text.Timer_Interrupt,"ax",%progbits
 176              		.align	1
ARM GAS  C:\Users\Xavier\AppData\Local\Temp\ccUXCgoV.s 			page 8


 177              		.global	Timer_Interrupt
 178              		.code	16
 179              		.thumb_func
 180              		.type	Timer_Interrupt, %function
 181              	Timer_Interrupt:
 182              	.LFB37:
 206:main.c        **** 
 207:main.c        **** 
 208:main.c        **** /*******************************************************************************
 209:main.c        **** * Function Name: Timer_Interrupt
 210:main.c        **** ********************************************************************************
 211:main.c        **** *
 212:main.c        **** * Summary:
 213:main.c        **** *  Handles the Interrupt Service Routine for the WDT timer.
 214:main.c        **** *
 215:main.c        **** *******************************************************************************/
 216:main.c        **** CY_ISR(Timer_Interrupt)
 217:main.c        **** {
 183              		.loc 1 217 0
 184              		.cfi_startproc
 185              		@ args = 0, pretend = 0, frame = 0
 186              		@ frame_needed = 0, uses_anonymous_args = 0
 187 0000 10B5     		push	{r4, lr}
 188              		.cfi_def_cfa_offset 8
 189              		.cfi_offset 4, -8
 190              		.cfi_offset 14, -4
 218:main.c        ****     if(CySysWdtGetInterruptSource() & WDT_INTERRUPT_SOURCE)
 191              		.loc 1 218 0
 192 0002 FFF7FEFF 		bl	CySysWdtGetInterruptSource
 193              	.LVL31:
 194 0006 4305     		lsls	r3, r0, #21
 195 0008 1AD5     		bpl	.L14
 196              	.LBB14:
 197              	.LBB15:
 219:main.c        ****     {
 220:main.c        ****         static uint8 led = LED_OFF;
 221:main.c        ****         static uint32 ledTimer = LED_TIMEOUT;
 222:main.c        ****     
 223:main.c        ****         /* Blink green LED to indicate that device advertises */
 224:main.c        ****         if(CyBle_GetState() == CYBLE_STATE_ADVERTISING)
 198              		.loc 1 224 0
 199 000a 0E4B     		ldr	r3, .L23
 200 000c 1B78     		ldrb	r3, [r3]
 201 000e 032B     		cmp	r3, #3
 202 0010 0ED1     		bne	.L17
 225:main.c        ****         {
 226:main.c        ****             if(--ledTimer == 0u) 
 203              		.loc 1 226 0
 204 0012 0D4B     		ldr	r3, .L23+4
 205 0014 1A68     		ldr	r2, [r3]
 206 0016 013A     		subs	r2, r2, #1
 207 0018 002A     		cmp	r2, #0
 208 001a 01D0     		beq	.L18
 209 001c 1A60     		str	r2, [r3]
 210 001e 07E0     		b	.L17
 211              	.L18:
 227:main.c        ****             {
ARM GAS  C:\Users\Xavier\AppData\Local\Temp\ccUXCgoV.s 			page 9


 228:main.c        ****                 ledTimer = LED_TIMEOUT;
 212              		.loc 1 228 0
 213 0020 0A22     		movs	r2, #10
 229:main.c        ****                 led ^= LED_OFF;
 214              		.loc 1 229 0
 215 0022 0120     		movs	r0, #1
 228:main.c        ****                 led ^= LED_OFF;
 216              		.loc 1 228 0
 217 0024 1A60     		str	r2, [r3]
 218              		.loc 1 229 0
 219 0026 1A79     		ldrb	r2, [r3, #4]
 220 0028 5040     		eors	r0, r2
 221 002a 1871     		strb	r0, [r3, #4]
 230:main.c        ****                 Advertising_LED_Write(led);
 222              		.loc 1 230 0
 223 002c FFF7FEFF 		bl	Advertising_LED_Write
 224              	.LVL32:
 225              	.L17:
 231:main.c        ****             }
 232:main.c        ****         }
 233:main.c        ****         
 234:main.c        ****         /* Indicate that timer is raised to the main loop */
 235:main.c        ****         mainTimer++;
 236:main.c        ****         
 237:main.c        ****         /* Clears interrupt request  */
 238:main.c        ****         CySysWdtClearInterrupt(WDT_INTERRUPT_SOURCE);
 226              		.loc 1 238 0
 227 0030 8020     		movs	r0, #128
 235:main.c        ****         
 228              		.loc 1 235 0
 229 0032 064A     		ldr	r2, .L23+8
 230              		.loc 1 238 0
 231 0034 C000     		lsls	r0, r0, #3
 235:main.c        ****         
 232              		.loc 1 235 0
 233 0036 1368     		ldr	r3, [r2]
 234 0038 0133     		adds	r3, r3, #1
 235 003a 1360     		str	r3, [r2]
 236              		.loc 1 238 0
 237 003c FFF7FEFF 		bl	CySysWdtClearInterrupt
 238              	.LVL33:
 239              	.L14:
 240              	.LBE15:
 241              	.LBE14:
 239:main.c        ****     }
 240:main.c        **** }
 242              		.loc 1 240 0
 243              		@ sp needed
 244 0040 10BD     		pop	{r4, pc}
 245              	.L24:
 246 0042 C046     		.align	2
 247              	.L23:
 248 0044 00000000 		.word	cyBle_state
 249 0048 00000000 		.word	.LANCHOR0
 250 004c 00000000 		.word	.LANCHOR1
 251              		.cfi_endproc
 252              	.LFE37:
ARM GAS  C:\Users\Xavier\AppData\Local\Temp\ccUXCgoV.s 			page 10


 253              		.size	Timer_Interrupt, .-Timer_Interrupt
 254              		.section	.text.WDT_Start,"ax",%progbits
 255              		.align	1
 256              		.global	WDT_Start
 257              		.code	16
 258              		.thumb_func
 259              		.type	WDT_Start, %function
 260              	WDT_Start:
 261              	.LFB38:
 241:main.c        **** 
 242:main.c        **** /*******************************************************************************
 243:main.c        **** * Function Name: WDT_Start
 244:main.c        **** ********************************************************************************
 245:main.c        **** *
 246:main.c        **** * Summary:
 247:main.c        **** *  Configures WDT to trigger an interrupt.
 248:main.c        **** *
 249:main.c        **** *******************************************************************************/
 250:main.c        **** 
 251:main.c        **** void WDT_Start(void)
 252:main.c        **** {
 262              		.loc 1 252 0
 263              		.cfi_startproc
 264              		@ args = 0, pretend = 0, frame = 0
 265              		@ frame_needed = 0, uses_anonymous_args = 0
 266 0000 10B5     		push	{r4, lr}
 267              		.cfi_def_cfa_offset 8
 268              		.cfi_offset 4, -8
 269              		.cfi_offset 14, -4
 253:main.c        ****     /* Unlock the WDT registers for modification */
 254:main.c        ****     CySysWdtUnlock(); 
 270              		.loc 1 254 0
 271 0002 FFF7FEFF 		bl	CySysWdtUnlock
 272              	.LVL34:
 255:main.c        ****     /* Setup ISR */
 256:main.c        ****     WDT_Interrupt_StartEx(&Timer_Interrupt);
 273              		.loc 1 256 0
 274 0006 0C48     		ldr	r0, .L26
 275 0008 FFF7FEFF 		bl	WDT_Interrupt_StartEx
 276              	.LVL35:
 257:main.c        ****     /* Write the mode to generate interrupt on match */
 258:main.c        ****     CySysWdtWriteMode(WDT_COUNTER, CY_SYS_WDT_MODE_INT);
 277              		.loc 1 258 0
 278 000c 0121     		movs	r1, #1
 279 000e 0800     		movs	r0, r1
 280 0010 FFF7FEFF 		bl	CySysWdtSetMode
 281              	.LVL36:
 259:main.c        ****     /* Configure the WDT counter clear on a match setting */
 260:main.c        ****     CySysWdtWriteClearOnMatch(WDT_COUNTER, WDT_COUNTER_ENABLE);
 282              		.loc 1 260 0
 283 0014 0121     		movs	r1, #1
 284 0016 0800     		movs	r0, r1
 285 0018 FFF7FEFF 		bl	CySysWdtSetClearOnMatch
 286              	.LVL37:
 261:main.c        ****     /* Configure the WDT counter match comparison value */
 262:main.c        ****     CySysWdtWriteMatch(WDT_COUNTER, WDT_TIMEOUT);
 287              		.loc 1 262 0
ARM GAS  C:\Users\Xavier\AppData\Local\Temp\ccUXCgoV.s 			page 11


 288 001c 0749     		ldr	r1, .L26+4
 289 001e 0120     		movs	r0, #1
 290 0020 FFF7FEFF 		bl	CySysWdtSetMatch
 291              	.LVL38:
 263:main.c        ****     /* Reset WDT counter */
 264:main.c        ****     CySysWdtResetCounters(WDT_COUNTER);
 292              		.loc 1 264 0
 293 0024 0120     		movs	r0, #1
 294 0026 FFF7FEFF 		bl	CySysWdtResetCounters
 295              	.LVL39:
 265:main.c        ****     /* Enable the specified WDT counter */
 266:main.c        ****     CySysWdtEnable(WDT_COUNTER_MASK);
 296              		.loc 1 266 0
 297 002a 8020     		movs	r0, #128
 298 002c 4000     		lsls	r0, r0, #1
 299 002e FFF7FEFF 		bl	CySysWdtEnable
 300              	.LVL40:
 267:main.c        ****     /* Lock out configuration changes to the Watchdog timer registers */
 268:main.c        ****     CySysWdtLock();    
 269:main.c        **** }
 301              		.loc 1 269 0
 302              		@ sp needed
 268:main.c        **** }
 303              		.loc 1 268 0
 304 0032 FFF7FEFF 		bl	CySysWdtLock
 305              	.LVL41:
 306              		.loc 1 269 0
 307 0036 10BD     		pop	{r4, pc}
 308              	.L27:
 309              		.align	2
 310              	.L26:
 311 0038 00000000 		.word	Timer_Interrupt
 312 003c CC0C0000 		.word	3276
 313              		.cfi_endproc
 314              	.LFE38:
 315              		.size	WDT_Start, .-WDT_Start
 316              		.section	.text.WDT_Stop,"ax",%progbits
 317              		.align	1
 318              		.global	WDT_Stop
 319              		.code	16
 320              		.thumb_func
 321              		.type	WDT_Stop, %function
 322              	WDT_Stop:
 323              	.LFB39:
 270:main.c        **** 
 271:main.c        **** 
 272:main.c        **** /*******************************************************************************
 273:main.c        **** * Function Name: WDT_Stop
 274:main.c        **** ********************************************************************************
 275:main.c        **** *
 276:main.c        **** * Summary:
 277:main.c        **** *  This API stops the WDT timer.
 278:main.c        **** *
 279:main.c        **** *******************************************************************************/
 280:main.c        **** void WDT_Stop(void)
 281:main.c        **** {
 324              		.loc 1 281 0
ARM GAS  C:\Users\Xavier\AppData\Local\Temp\ccUXCgoV.s 			page 12


 325              		.cfi_startproc
 326              		@ args = 0, pretend = 0, frame = 0
 327              		@ frame_needed = 0, uses_anonymous_args = 0
 328 0000 10B5     		push	{r4, lr}
 329              		.cfi_def_cfa_offset 8
 330              		.cfi_offset 4, -8
 331              		.cfi_offset 14, -4
 282:main.c        ****     /* Unlock the WDT registers for modification */
 283:main.c        ****     CySysWdtUnlock(); 
 332              		.loc 1 283 0
 333 0002 FFF7FEFF 		bl	CySysWdtUnlock
 334              	.LVL42:
 284:main.c        ****     /* Disable the specified WDT counter */
 285:main.c        ****     CySysWdtDisable(WDT_COUNTER_MASK);
 335              		.loc 1 285 0
 336 0006 8020     		movs	r0, #128
 337 0008 4000     		lsls	r0, r0, #1
 338 000a FFF7FEFF 		bl	CySysWdtDisable
 339              	.LVL43:
 286:main.c        ****     /* Locks out configuration changes to the Watchdog timer registers */
 287:main.c        ****     CySysWdtLock();    
 288:main.c        **** }
 340              		.loc 1 288 0
 341              		@ sp needed
 287:main.c        **** }
 342              		.loc 1 287 0
 343 000e FFF7FEFF 		bl	CySysWdtLock
 344              	.LVL44:
 345              		.loc 1 288 0
 346 0012 10BD     		pop	{r4, pc}
 347              		.cfi_endproc
 348              	.LFE39:
 349              		.size	WDT_Stop, .-WDT_Stop
 350              		.section	.text.startup.main,"ax",%progbits
 351              		.align	1
 352              		.global	main
 353              		.code	16
 354              		.thumb_func
 355              		.type	main, %function
 356              	main:
 357              	.LFB41:
 289:main.c        **** 
 290:main.c        **** /*******************************************************************************
 291:main.c        **** * Function Name: LowPowerImplementation()
 292:main.c        **** ********************************************************************************
 293:main.c        **** * Summary:
 294:main.c        **** * Implements low power in the project.
 295:main.c        **** *
 296:main.c        **** * Parameters:
 297:main.c        **** * None
 298:main.c        **** *
 299:main.c        **** * Return:
 300:main.c        **** * None
 301:main.c        **** *
 302:main.c        **** * Theory:
 303:main.c        **** * The function tries to enter deep sleep as much as possible - whenever the 
 304:main.c        **** * BLE is idle and the UART transmission/reception is not happening. At all other
ARM GAS  C:\Users\Xavier\AppData\Local\Temp\ccUXCgoV.s 			page 13


 305:main.c        **** * times, the function tries to enter CPU sleep.
 306:main.c        **** *
 307:main.c        **** *******************************************************************************/
 308:main.c        **** static void LowPowerImplementation(void)
 309:main.c        **** {
 310:main.c        ****     CYBLE_LP_MODE_T bleMode;
 311:main.c        ****     uint8 interruptStatus;
 312:main.c        ****     
 313:main.c        ****     /* For advertising and connected states, implement deep sleep 
 314:main.c        ****      * functionality to achieve low power in the system. For more details
 315:main.c        ****      * on the low power implementation, refer to the Low Power Application 
 316:main.c        ****      * Note.
 317:main.c        ****      */
 318:main.c        ****     if((CyBle_GetState() == CYBLE_STATE_ADVERTISING) || 
 319:main.c        ****        (CyBle_GetState() == CYBLE_STATE_CONNECTED))
 320:main.c        ****     {
 321:main.c        ****         /* Request BLE subsystem to enter into Deep-Sleep mode between connection and advertising i
 322:main.c        ****         bleMode = CyBle_EnterLPM(CYBLE_BLESS_DEEPSLEEP);
 323:main.c        ****         /* Disable global interrupts */
 324:main.c        ****         interruptStatus = CyEnterCriticalSection();
 325:main.c        ****         /* When BLE subsystem has been put into Deep-Sleep mode */
 326:main.c        ****         if(bleMode == CYBLE_BLESS_DEEPSLEEP)
 327:main.c        ****         {
 328:main.c        ****             /* And it is still there or ECO is on */
 329:main.c        ****             if((CyBle_GetBleSsState() == CYBLE_BLESS_STATE_ECO_ON) || 
 330:main.c        ****                (CyBle_GetBleSsState() == CYBLE_BLESS_STATE_DEEPSLEEP))
 331:main.c        ****             {
 332:main.c        ****             #if (DEBUG_UART_ENABLED == ENABLED)
 333:main.c        ****                 /* Put the CPU into the Deep-Sleep mode when all debug information has been sent */
 334:main.c        ****                 if((UART_DEB_SpiUartGetTxBufferSize() + UART_DEB_GET_TX_FIFO_SR_VALID) == 0u)
 335:main.c        ****                 {
 336:main.c        ****                     CySysPmDeepSleep();
 337:main.c        ****                 }
 338:main.c        ****                 else /* Put the CPU into Sleep mode and let SCB to continue sending debug data */
 339:main.c        ****                 {
 340:main.c        ****                     CySysPmSleep();
 341:main.c        ****                 }
 342:main.c        ****             #else
 343:main.c        ****                 CySysPmDeepSleep();
 344:main.c        ****             #endif /* (DEBUG_UART_ENABLED == ENABLED) */
 345:main.c        ****             }
 346:main.c        ****         }
 347:main.c        ****         else /* When BLE subsystem has been put into Sleep mode or is active */
 348:main.c        ****         {
 349:main.c        ****             /* And hardware doesn't finish Tx/Rx opeation - put the CPU into Sleep mode */
 350:main.c        ****             if(CyBle_GetBleSsState() != CYBLE_BLESS_STATE_EVENT_CLOSE)
 351:main.c        ****             {
 352:main.c        ****                 CySysPmSleep();
 353:main.c        ****             }
 354:main.c        ****         }
 355:main.c        ****         /* Enable global interrupt */
 356:main.c        ****         CyExitCriticalSection(interruptStatus);
 357:main.c        ****     }
 358:main.c        **** }
 359:main.c        **** 
 360:main.c        **** 
 361:main.c        **** /*******************************************************************************
ARM GAS  C:\Users\Xavier\AppData\Local\Temp\ccUXCgoV.s 			page 14


 362:main.c        **** * Function Name: main()
 363:main.c        **** ********************************************************************************
 364:main.c        **** * Summary:
 365:main.c        **** *  Main function for the project.
 366:main.c        **** *
 367:main.c        **** * Parameters:
 368:main.c        **** *  None
 369:main.c        **** *
 370:main.c        **** * Return:
 371:main.c        **** *  None
 372:main.c        **** *
 373:main.c        **** * Theory:
 374:main.c        **** *  The function starts BLE and UART components.
 375:main.c        **** *  This function process all BLE events and also implements the low power 
 376:main.c        **** *  functionality.
 377:main.c        **** *
 378:main.c        **** *******************************************************************************/int main()
 379:main.c        **** {
 358              		.loc 1 379 0
 359              		.cfi_startproc
 360              		@ args = 0, pretend = 0, frame = 0
 361              		@ frame_needed = 0, uses_anonymous_args = 0
 362 0000 70B5     		push	{r4, r5, r6, lr}
 363              		.cfi_def_cfa_offset 16
 364              		.cfi_offset 4, -16
 365              		.cfi_offset 5, -12
 366              		.cfi_offset 6, -8
 367              		.cfi_offset 14, -4
 380:main.c        ****     CyGlobalIntEnable;  
 368              		.loc 1 380 0
 369              		.syntax divided
 370              	@ 380 "main.c" 1
 371 0002 62B6     		CPSIE   i
 372              	@ 0 "" 2
 381:main.c        **** 
 382:main.c        **** #if (DEBUG_UART_ENABLED == ENABLED)
 383:main.c        ****     UART_DEB_Start();
 384:main.c        **** #endif /* (DEBUG_UART_ENABLED == ENABLED) */
 385:main.c        ****     DBG_PRINTF("BLE HID Keyboard Example Project \r\n");
 386:main.c        **** 
 387:main.c        ****     Disconnect_LED_Write(LED_OFF);
 373              		.loc 1 387 0
 374              		.thumb
 375              		.syntax unified
 376 0004 0120     		movs	r0, #1
 377 0006 FFF7FEFF 		bl	Disconnect_LED_Write
 378              	.LVL45:
 388:main.c        ****     Advertising_LED_Write(LED_OFF);
 379              		.loc 1 388 0
 380 000a 0120     		movs	r0, #1
 381 000c FFF7FEFF 		bl	Advertising_LED_Write
 382              	.LVL46:
 389:main.c        ****     CapsLock_LED_Write(LED_OFF);
 383              		.loc 1 389 0
 384 0010 0120     		movs	r0, #1
 385 0012 FFF7FEFF 		bl	CapsLock_LED_Write
 386              	.LVL47:
ARM GAS  C:\Users\Xavier\AppData\Local\Temp\ccUXCgoV.s 			page 15


 390:main.c        **** 
 391:main.c        ****     /* Start CYBLE component and register generic event handler */
 392:main.c        ****     CyBle_Start(AppCallBack);
 387              		.loc 1 392 0
 388 0016 2448     		ldr	r0, .L54
 389 0018 FFF7FEFF 		bl	CyBle_Start
 390              	.LVL48:
 393:main.c        ****     WDT_Start();
 391              		.loc 1 393 0
 392 001c FFF7FEFF 		bl	WDT_Start
 393              	.LVL49:
 394              	.L30:
 394:main.c        **** 
 395:main.c        **** #if (BAS_MEASURE_ENABLE != 0)
 396:main.c        ****     ADC_Start();
 397:main.c        **** #endif /* BAS_MEASURE_ENABLE != 0 */
 398:main.c        **** 
 399:main.c        ****     while(1) 
 400:main.c        ****     {           
 401:main.c        ****         /* CyBle_ProcessEvents() allows BLE stack to process pending events */
 402:main.c        ****         CyBle_ProcessEvents();
 395              		.loc 1 402 0
 396 0020 FFF7FEFF 		bl	CyBle_ProcessEvents
 397              	.LVL50:
 398              	.LBB19:
 399              	.LBB20:
 318:main.c        ****        (CyBle_GetState() == CYBLE_STATE_CONNECTED))
 400              		.loc 1 318 0
 401 0024 214C     		ldr	r4, .L54+4
 402 0026 2378     		ldrb	r3, [r4]
 403 0028 023B     		subs	r3, r3, #2
 404 002a 012B     		cmp	r3, #1
 405 002c 1DD8     		bhi	.L31
 322:main.c        ****         /* Disable global interrupts */
 406              		.loc 1 322 0
 407 002e 0320     		movs	r0, #3
 408 0030 FFF7FEFF 		bl	CyBle_EnterLPM
 409              	.LVL51:
 410 0034 0600     		movs	r6, r0
 411              	.LVL52:
 324:main.c        ****         /* When BLE subsystem has been put into Deep-Sleep mode */
 412              		.loc 1 324 0
 413 0036 FFF7FEFF 		bl	CyEnterCriticalSection
 414              	.LVL53:
 415 003a 0500     		movs	r5, r0
 416              	.LVL54:
 326:main.c        ****         {
 417              		.loc 1 326 0
 418 003c 032E     		cmp	r6, #3
 419 003e 0BD1     		bne	.L32
 329:main.c        ****                (CyBle_GetBleSsState() == CYBLE_BLESS_STATE_DEEPSLEEP))
 420              		.loc 1 329 0
 421 0040 FFF7FEFF 		bl	CyBle_GetBleSsState
 422              	.LVL55:
 423 0044 0428     		cmp	r0, #4
 424 0046 02D1     		bne	.L33
 425              	.L35:
ARM GAS  C:\Users\Xavier\AppData\Local\Temp\ccUXCgoV.s 			page 16


 343:main.c        ****             #endif /* (DEBUG_UART_ENABLED == ENABLED) */
 426              		.loc 1 343 0
 427 0048 FFF7FEFF 		bl	CySysPmDeepSleep
 428              	.LVL56:
 429 004c 0AE0     		b	.L34
 430              	.L33:
 330:main.c        ****             {
 431              		.loc 1 330 0
 432 004e FFF7FEFF 		bl	CyBle_GetBleSsState
 433              	.LVL57:
 329:main.c        ****                (CyBle_GetBleSsState() == CYBLE_BLESS_STATE_DEEPSLEEP))
 434              		.loc 1 329 0
 435 0052 0628     		cmp	r0, #6
 436 0054 06D1     		bne	.L34
 437 0056 F7E7     		b	.L35
 438              	.L32:
 350:main.c        ****             {
 439              		.loc 1 350 0
 440 0058 FFF7FEFF 		bl	CyBle_GetBleSsState
 441              	.LVL58:
 442 005c 0228     		cmp	r0, #2
 443 005e 01D0     		beq	.L34
 352:main.c        ****             }
 444              		.loc 1 352 0
 445 0060 FFF7FEFF 		bl	CySysPmSleep
 446              	.LVL59:
 447              	.L34:
 356:main.c        ****     }
 448              		.loc 1 356 0
 449 0064 2800     		movs	r0, r5
 450 0066 FFF7FEFF 		bl	CyExitCriticalSection
 451              	.LVL60:
 452              	.L31:
 453              	.LBE20:
 454              	.LBE19:
 403:main.c        **** 
 404:main.c        ****         /* To achieve low power in the device */
 405:main.c        ****         LowPowerImplementation();
 406:main.c        **** 
 407:main.c        ****         if((CyBle_GetState() == CYBLE_STATE_CONNECTED) && (suspend != CYBLE_HIDS_CP_SUSPEND))
 455              		.loc 1 407 0
 456 006a 2378     		ldrb	r3, [r4]
 457 006c 022B     		cmp	r3, #2
 458 006e D7D1     		bne	.L30
 459              		.loc 1 407 0 is_stmt 0 discriminator 1
 460 0070 0F4B     		ldr	r3, .L54+8
 461 0072 1B78     		ldrb	r3, [r3]
 462 0074 002B     		cmp	r3, #0
 463 0076 D3D0     		beq	.L30
 408:main.c        ****         {
 409:main.c        ****             if(mainTimer != 0u)
 464              		.loc 1 409 0 is_stmt 1
 465 0078 0E4B     		ldr	r3, .L54+12
 466 007a 1A68     		ldr	r2, [r3]
 467 007c 002A     		cmp	r2, #0
 468 007e 0BD0     		beq	.L39
 410:main.c        ****             {
ARM GAS  C:\Users\Xavier\AppData\Local\Temp\ccUXCgoV.s 			page 17


 411:main.c        ****                 mainTimer = 0u;                
 469              		.loc 1 411 0
 470 0080 0022     		movs	r2, #0
 471 0082 1A60     		str	r2, [r3]
 412:main.c        ****             #if (BAS_SIMULATE_ENABLE != 0)
 413:main.c        ****                 SimulateBattery();
 472              		.loc 1 413 0
 473 0084 FFF7FEFF 		bl	SimulateBattery
 474              	.LVL61:
 414:main.c        ****                 CyBle_ProcessEvents();
 475              		.loc 1 414 0
 476 0088 FFF7FEFF 		bl	CyBle_ProcessEvents
 477              	.LVL62:
 415:main.c        ****             #endif /* BAS_SIMULATE_ENABLE != 0 */    
 416:main.c        ****             #if (BAS_MEASURE_ENABLE != 0)
 417:main.c        ****                 MeasureBattery();
 418:main.c        ****                 CyBle_ProcessEvents();
 419:main.c        ****             #endif /* BAS_MEASURE_ENABLE != 0 */
 420:main.c        ****                 if(keyboardSimulation == ENABLED)
 478              		.loc 1 420 0
 479 008c 0A4B     		ldr	r3, .L54+16
 480 008e 1B88     		ldrh	r3, [r3]
 481 0090 012B     		cmp	r3, #1
 482 0092 01D1     		bne	.L39
 421:main.c        ****                 {
 422:main.c        ****                     SimulateKeyboard();
 483              		.loc 1 422 0
 484 0094 FFF7FEFF 		bl	SimulateKeyboard
 485              	.LVL63:
 486              	.L39:
 423:main.c        ****                 }
 424:main.c        ****             }
 425:main.c        ****             /* Store bonding data to flash only when all debug information has been sent */
 426:main.c        ****         #if(CYBLE_BONDING_REQUIREMENT == CYBLE_BONDING_YES)
 427:main.c        ****         #if (DEBUG_UART_ENABLED == ENABLED)
 428:main.c        ****             if((cyBle_pendingFlashWrite != 0u) &&
 429:main.c        ****                ((UART_DEB_SpiUartGetTxBufferSize() + UART_DEB_GET_TX_FIFO_SR_VALID) == 0u))
 430:main.c        ****             
 431:main.c        ****         #else
 432:main.c        ****             if(cyBle_pendingFlashWrite != 0u)
 487              		.loc 1 432 0
 488 0098 084B     		ldr	r3, .L54+20
 489 009a 1B78     		ldrb	r3, [r3]
 490 009c 002B     		cmp	r3, #0
 491 009e BFD0     		beq	.L30
 492              	.LBB21:
 433:main.c        ****         #endif /* (DEBUG_UART_ENABLED == ENABLED) */
 434:main.c        ****             {
 435:main.c        ****                 CYBLE_API_RESULT_T apiResult;
 436:main.c        ****                 
 437:main.c        ****                 apiResult = CyBle_StoreBondingData(0u);
 493              		.loc 1 437 0
 494 00a0 0020     		movs	r0, #0
 495 00a2 FFF7FEFF 		bl	CyBle_StoreBondingData
 496              	.LVL64:
 497 00a6 BBE7     		b	.L30
 498              	.L55:
ARM GAS  C:\Users\Xavier\AppData\Local\Temp\ccUXCgoV.s 			page 18


 499              		.align	2
 500              	.L54:
 501 00a8 00000000 		.word	AppCallBack
 502 00ac 00000000 		.word	cyBle_state
 503 00b0 00000000 		.word	suspend
 504 00b4 00000000 		.word	.LANCHOR1
 505 00b8 00000000 		.word	keyboardSimulation
 506 00bc 00000000 		.word	cyBle_pendingFlashWrite
 507              	.LBE21:
 508              		.cfi_endproc
 509              	.LFE41:
 510              		.size	main, .-main
 511              		.global	mainTimer
 512              		.data
 513              		.align	2
 514              		.set	.LANCHOR0,. + 0
 515              		.type	ledTimer.8527, %object
 516              		.size	ledTimer.8527, 4
 517              	ledTimer.8527:
 518 0000 0A000000 		.word	10
 519              		.type	led.8526, %object
 520              		.size	led.8526, 1
 521              	led.8526:
 522 0004 01       		.byte	1
 523              		.bss
 524              		.align	2
 525              		.set	.LANCHOR1,. + 0
 526              		.type	mainTimer, %object
 527              		.size	mainTimer, 4
 528              	mainTimer:
 529 0000 00000000 		.space	4
 530              		.text
 531              	.Letext0:
 532              		.file 2 "Generated_Source\\PSoC4/cytypes.h"
 533              		.file 3 "Generated_Source\\PSoC4/BLE_Stack.h"
 534              		.file 4 "Generated_Source\\PSoC4/BLE_StackGap.h"
 535              		.file 5 "Generated_Source\\PSoC4/BLE_StackGatt.h"
 536              		.file 6 "Generated_Source\\PSoC4/BLE_StackGattServer.h"
 537              		.file 7 "Generated_Source\\PSoC4/BLE_dis.h"
 538              		.file 8 "Generated_Source\\PSoC4/BLE_eventHandler.h"
 539              		.file 9 "Generated_Source\\PSoC4/BLE.h"
 540              		.file 10 "hids.h"
 541              		.file 11 "Generated_Source\\PSoC4/Advertising_LED.h"
 542              		.file 12 "Generated_Source\\PSoC4/Disconnect_LED.h"
 543              		.file 13 "Generated_Source\\PSoC4/CapsLock_LED.h"
 544              		.file 14 "Generated_Source\\PSoC4/SW2.h"
 545              		.file 15 "Generated_Source\\PSoC4/Wakeup_Interrupt.h"
 546              		.file 16 "Generated_Source\\PSoC4/cyPm.h"
 547              		.file 17 "bas.h"
 548              		.file 18 "scps.h"
 549              		.file 19 "common.h"
 550              		.file 20 "Generated_Source\\PSoC4/CyLFClk.h"
 551              		.file 21 "Generated_Source\\PSoC4/WDT_Interrupt.h"
 552              		.file 22 "Generated_Source\\PSoC4/CyLib.h"