ARM GAS  C:\Users\Xavier\AppData\Local\Temp\ccMUNkST.s 			page 1


   1              		.syntax unified
   2              		.cpu cortex-m0
   3              		.fpu softvfp
   4              		.eabi_attribute 20, 1
   5              		.eabi_attribute 21, 1
   6              		.eabi_attribute 23, 3
   7              		.eabi_attribute 24, 1
   8              		.eabi_attribute 25, 1
   9              		.eabi_attribute 26, 1
  10              		.eabi_attribute 30, 4
  11              		.eabi_attribute 34, 0
  12              		.eabi_attribute 18, 4
  13              		.thumb
  14              		.syntax unified
  15              		.file	"UART_DEB_UART.c"
  16              		.text
  17              	.Ltext0:
  18              		.cfi_sections	.debug_frame
  19              		.section	.text.UART_DEB_UartInit,"ax",%progbits
  20              		.align	1
  21              		.global	UART_DEB_UartInit
  22              		.code	16
  23              		.thumb_func
  24              		.type	UART_DEB_UartInit, %function
  25              	UART_DEB_UartInit:
  26              	.LFB2:
  27              		.file 1 "Generated_Source\\PSoC4\\UART_DEB_UART.c"
   1:Generated_Source\PSoC4/UART_DEB_UART.c **** /***************************************************************************//**
   2:Generated_Source\PSoC4/UART_DEB_UART.c **** * \file UART_DEB_UART.c
   3:Generated_Source\PSoC4/UART_DEB_UART.c **** * \version 3.20
   4:Generated_Source\PSoC4/UART_DEB_UART.c **** *
   5:Generated_Source\PSoC4/UART_DEB_UART.c **** * \brief
   6:Generated_Source\PSoC4/UART_DEB_UART.c **** *  This file provides the source code to the API for the SCB Component in
   7:Generated_Source\PSoC4/UART_DEB_UART.c **** *  UART mode.
   8:Generated_Source\PSoC4/UART_DEB_UART.c **** *
   9:Generated_Source\PSoC4/UART_DEB_UART.c **** * Note:
  10:Generated_Source\PSoC4/UART_DEB_UART.c **** *
  11:Generated_Source\PSoC4/UART_DEB_UART.c **** *******************************************************************************
  12:Generated_Source\PSoC4/UART_DEB_UART.c **** * \copyright
  13:Generated_Source\PSoC4/UART_DEB_UART.c **** * Copyright 2013-2016, Cypress Semiconductor Corporation.  All rights reserved.
  14:Generated_Source\PSoC4/UART_DEB_UART.c **** * You may use this file only in accordance with the license, terms, conditions,
  15:Generated_Source\PSoC4/UART_DEB_UART.c **** * disclaimers, and limitations in the end user license agreement accompanying
  16:Generated_Source\PSoC4/UART_DEB_UART.c **** * the software package with which this file was provided.
  17:Generated_Source\PSoC4/UART_DEB_UART.c **** *******************************************************************************/
  18:Generated_Source\PSoC4/UART_DEB_UART.c **** 
  19:Generated_Source\PSoC4/UART_DEB_UART.c **** #include "UART_DEB_PVT.h"
  20:Generated_Source\PSoC4/UART_DEB_UART.c **** #include "UART_DEB_SPI_UART_PVT.h"
  21:Generated_Source\PSoC4/UART_DEB_UART.c **** #include "cyapicallbacks.h"
  22:Generated_Source\PSoC4/UART_DEB_UART.c **** 
  23:Generated_Source\PSoC4/UART_DEB_UART.c **** #if (UART_DEB_UART_WAKE_ENABLE_CONST && UART_DEB_UART_RX_WAKEUP_IRQ)
  24:Generated_Source\PSoC4/UART_DEB_UART.c ****     /**
  25:Generated_Source\PSoC4/UART_DEB_UART.c ****     * \addtogroup group_globals
  26:Generated_Source\PSoC4/UART_DEB_UART.c ****     * \{
  27:Generated_Source\PSoC4/UART_DEB_UART.c ****     */
  28:Generated_Source\PSoC4/UART_DEB_UART.c ****     /** This global variable determines whether to enable Skip Start
  29:Generated_Source\PSoC4/UART_DEB_UART.c ****     * functionality when UART_DEB_Sleep() function is called:
  30:Generated_Source\PSoC4/UART_DEB_UART.c ****     * 0 – disable, other values – enable. Default value is 1.
ARM GAS  C:\Users\Xavier\AppData\Local\Temp\ccMUNkST.s 			page 2


  31:Generated_Source\PSoC4/UART_DEB_UART.c ****     * It is only available when Enable wakeup from Deep Sleep Mode is enabled.
  32:Generated_Source\PSoC4/UART_DEB_UART.c ****     */
  33:Generated_Source\PSoC4/UART_DEB_UART.c ****     uint8 UART_DEB_skipStart = 1u;
  34:Generated_Source\PSoC4/UART_DEB_UART.c ****     /** \} globals */
  35:Generated_Source\PSoC4/UART_DEB_UART.c **** #endif /* (UART_DEB_UART_WAKE_ENABLE_CONST && UART_DEB_UART_RX_WAKEUP_IRQ) */
  36:Generated_Source\PSoC4/UART_DEB_UART.c **** 
  37:Generated_Source\PSoC4/UART_DEB_UART.c **** #if(UART_DEB_SCB_MODE_UNCONFIG_CONST_CFG)
  38:Generated_Source\PSoC4/UART_DEB_UART.c **** 
  39:Generated_Source\PSoC4/UART_DEB_UART.c ****     /***************************************
  40:Generated_Source\PSoC4/UART_DEB_UART.c ****     *  Configuration Structure Initialization
  41:Generated_Source\PSoC4/UART_DEB_UART.c ****     ***************************************/
  42:Generated_Source\PSoC4/UART_DEB_UART.c **** 
  43:Generated_Source\PSoC4/UART_DEB_UART.c ****     const UART_DEB_UART_INIT_STRUCT UART_DEB_configUart =
  44:Generated_Source\PSoC4/UART_DEB_UART.c ****     {
  45:Generated_Source\PSoC4/UART_DEB_UART.c ****         UART_DEB_UART_SUB_MODE,
  46:Generated_Source\PSoC4/UART_DEB_UART.c ****         UART_DEB_UART_DIRECTION,
  47:Generated_Source\PSoC4/UART_DEB_UART.c ****         UART_DEB_UART_DATA_BITS_NUM,
  48:Generated_Source\PSoC4/UART_DEB_UART.c ****         UART_DEB_UART_PARITY_TYPE,
  49:Generated_Source\PSoC4/UART_DEB_UART.c ****         UART_DEB_UART_STOP_BITS_NUM,
  50:Generated_Source\PSoC4/UART_DEB_UART.c ****         UART_DEB_UART_OVS_FACTOR,
  51:Generated_Source\PSoC4/UART_DEB_UART.c ****         UART_DEB_UART_IRDA_LOW_POWER,
  52:Generated_Source\PSoC4/UART_DEB_UART.c ****         UART_DEB_UART_MEDIAN_FILTER_ENABLE,
  53:Generated_Source\PSoC4/UART_DEB_UART.c ****         UART_DEB_UART_RETRY_ON_NACK,
  54:Generated_Source\PSoC4/UART_DEB_UART.c ****         UART_DEB_UART_IRDA_POLARITY,
  55:Generated_Source\PSoC4/UART_DEB_UART.c ****         UART_DEB_UART_DROP_ON_PARITY_ERR,
  56:Generated_Source\PSoC4/UART_DEB_UART.c ****         UART_DEB_UART_DROP_ON_FRAME_ERR,
  57:Generated_Source\PSoC4/UART_DEB_UART.c ****         UART_DEB_UART_WAKE_ENABLE,
  58:Generated_Source\PSoC4/UART_DEB_UART.c ****         0u,
  59:Generated_Source\PSoC4/UART_DEB_UART.c ****         NULL,
  60:Generated_Source\PSoC4/UART_DEB_UART.c ****         0u,
  61:Generated_Source\PSoC4/UART_DEB_UART.c ****         NULL,
  62:Generated_Source\PSoC4/UART_DEB_UART.c ****         UART_DEB_UART_MP_MODE_ENABLE,
  63:Generated_Source\PSoC4/UART_DEB_UART.c ****         UART_DEB_UART_MP_ACCEPT_ADDRESS,
  64:Generated_Source\PSoC4/UART_DEB_UART.c ****         UART_DEB_UART_MP_RX_ADDRESS,
  65:Generated_Source\PSoC4/UART_DEB_UART.c ****         UART_DEB_UART_MP_RX_ADDRESS_MASK,
  66:Generated_Source\PSoC4/UART_DEB_UART.c ****         (uint32) UART_DEB_SCB_IRQ_INTERNAL,
  67:Generated_Source\PSoC4/UART_DEB_UART.c ****         UART_DEB_UART_INTR_RX_MASK,
  68:Generated_Source\PSoC4/UART_DEB_UART.c ****         UART_DEB_UART_RX_TRIGGER_LEVEL,
  69:Generated_Source\PSoC4/UART_DEB_UART.c ****         UART_DEB_UART_INTR_TX_MASK,
  70:Generated_Source\PSoC4/UART_DEB_UART.c ****         UART_DEB_UART_TX_TRIGGER_LEVEL,
  71:Generated_Source\PSoC4/UART_DEB_UART.c ****         (uint8) UART_DEB_UART_BYTE_MODE_ENABLE,
  72:Generated_Source\PSoC4/UART_DEB_UART.c ****         (uint8) UART_DEB_UART_CTS_ENABLE,
  73:Generated_Source\PSoC4/UART_DEB_UART.c ****         (uint8) UART_DEB_UART_CTS_POLARITY,
  74:Generated_Source\PSoC4/UART_DEB_UART.c ****         (uint8) UART_DEB_UART_RTS_POLARITY,
  75:Generated_Source\PSoC4/UART_DEB_UART.c ****         (uint8) UART_DEB_UART_RTS_FIFO_LEVEL
  76:Generated_Source\PSoC4/UART_DEB_UART.c ****     };
  77:Generated_Source\PSoC4/UART_DEB_UART.c **** 
  78:Generated_Source\PSoC4/UART_DEB_UART.c **** 
  79:Generated_Source\PSoC4/UART_DEB_UART.c ****     /*******************************************************************************
  80:Generated_Source\PSoC4/UART_DEB_UART.c ****     * Function Name: UART_DEB_UartInit
  81:Generated_Source\PSoC4/UART_DEB_UART.c ****     ****************************************************************************//**
  82:Generated_Source\PSoC4/UART_DEB_UART.c ****     *
  83:Generated_Source\PSoC4/UART_DEB_UART.c ****     *  Configures the UART_DEB for UART operation.
  84:Generated_Source\PSoC4/UART_DEB_UART.c ****     *
  85:Generated_Source\PSoC4/UART_DEB_UART.c ****     *  This function is intended specifically to be used when the UART_DEB
  86:Generated_Source\PSoC4/UART_DEB_UART.c ****     *  configuration is set to “Unconfigured UART_DEB” in the customizer.
  87:Generated_Source\PSoC4/UART_DEB_UART.c ****     *  After initializing the UART_DEB in UART mode using this function,
ARM GAS  C:\Users\Xavier\AppData\Local\Temp\ccMUNkST.s 			page 3


  88:Generated_Source\PSoC4/UART_DEB_UART.c ****     *  the component can be enabled using the UART_DEB_Start() or
  89:Generated_Source\PSoC4/UART_DEB_UART.c ****     * UART_DEB_Enable() function.
  90:Generated_Source\PSoC4/UART_DEB_UART.c ****     *  This function uses a pointer to a structure that provides the configuration
  91:Generated_Source\PSoC4/UART_DEB_UART.c ****     *  settings. This structure contains the same information that would otherwise
  92:Generated_Source\PSoC4/UART_DEB_UART.c ****     *  be provided by the customizer settings.
  93:Generated_Source\PSoC4/UART_DEB_UART.c ****     *
  94:Generated_Source\PSoC4/UART_DEB_UART.c ****     *  \param config: pointer to a structure that contains the following list of
  95:Generated_Source\PSoC4/UART_DEB_UART.c ****     *   fields. These fields match the selections available in the customizer.
  96:Generated_Source\PSoC4/UART_DEB_UART.c ****     *   Refer to the customizer for further description of the settings.
  97:Generated_Source\PSoC4/UART_DEB_UART.c ****     *
  98:Generated_Source\PSoC4/UART_DEB_UART.c ****     *******************************************************************************/
  99:Generated_Source\PSoC4/UART_DEB_UART.c ****     void UART_DEB_UartInit(const UART_DEB_UART_INIT_STRUCT *config)
 100:Generated_Source\PSoC4/UART_DEB_UART.c ****     {
 101:Generated_Source\PSoC4/UART_DEB_UART.c ****         uint32 pinsConfig;
 102:Generated_Source\PSoC4/UART_DEB_UART.c **** 
 103:Generated_Source\PSoC4/UART_DEB_UART.c ****         if (NULL == config)
 104:Generated_Source\PSoC4/UART_DEB_UART.c ****         {
 105:Generated_Source\PSoC4/UART_DEB_UART.c ****             CYASSERT(0u != 0u); /* Halt execution due to bad function parameter */
 106:Generated_Source\PSoC4/UART_DEB_UART.c ****         }
 107:Generated_Source\PSoC4/UART_DEB_UART.c ****         else
 108:Generated_Source\PSoC4/UART_DEB_UART.c ****         {
 109:Generated_Source\PSoC4/UART_DEB_UART.c ****             /* Get direction to configure UART pins: TX, RX or TX+RX */
 110:Generated_Source\PSoC4/UART_DEB_UART.c ****             pinsConfig  = config->direction;
 111:Generated_Source\PSoC4/UART_DEB_UART.c **** 
 112:Generated_Source\PSoC4/UART_DEB_UART.c ****         #if !(UART_DEB_CY_SCBIP_V0 || UART_DEB_CY_SCBIP_V1)
 113:Generated_Source\PSoC4/UART_DEB_UART.c ****             /* Add RTS and CTS pins to configure */
 114:Generated_Source\PSoC4/UART_DEB_UART.c ****             pinsConfig |= (0u != config->rtsRxFifoLevel) ? (UART_DEB_UART_RTS_PIN_ENABLE) : (0u);
 115:Generated_Source\PSoC4/UART_DEB_UART.c ****             pinsConfig |= (0u != config->enableCts)      ? (UART_DEB_UART_CTS_PIN_ENABLE) : (0u);
 116:Generated_Source\PSoC4/UART_DEB_UART.c ****         #endif /* !(UART_DEB_CY_SCBIP_V0 || UART_DEB_CY_SCBIP_V1) */
 117:Generated_Source\PSoC4/UART_DEB_UART.c **** 
 118:Generated_Source\PSoC4/UART_DEB_UART.c ****             /* Configure pins */
 119:Generated_Source\PSoC4/UART_DEB_UART.c ****             UART_DEB_SetPins(UART_DEB_SCB_MODE_UART, config->mode, pinsConfig);
 120:Generated_Source\PSoC4/UART_DEB_UART.c **** 
 121:Generated_Source\PSoC4/UART_DEB_UART.c ****             /* Store internal configuration */
 122:Generated_Source\PSoC4/UART_DEB_UART.c ****             UART_DEB_scbMode       = (uint8) UART_DEB_SCB_MODE_UART;
 123:Generated_Source\PSoC4/UART_DEB_UART.c ****             UART_DEB_scbEnableWake = (uint8) config->enableWake;
 124:Generated_Source\PSoC4/UART_DEB_UART.c ****             UART_DEB_scbEnableIntr = (uint8) config->enableInterrupt;
 125:Generated_Source\PSoC4/UART_DEB_UART.c **** 
 126:Generated_Source\PSoC4/UART_DEB_UART.c ****             /* Set RX direction internal variables */
 127:Generated_Source\PSoC4/UART_DEB_UART.c ****             UART_DEB_rxBuffer      =         config->rxBuffer;
 128:Generated_Source\PSoC4/UART_DEB_UART.c ****             UART_DEB_rxDataBits    = (uint8) config->dataBits;
 129:Generated_Source\PSoC4/UART_DEB_UART.c ****             UART_DEB_rxBufferSize  = (uint8) config->rxBufferSize;
 130:Generated_Source\PSoC4/UART_DEB_UART.c **** 
 131:Generated_Source\PSoC4/UART_DEB_UART.c ****             /* Set TX direction internal variables */
 132:Generated_Source\PSoC4/UART_DEB_UART.c ****             UART_DEB_txBuffer      =         config->txBuffer;
 133:Generated_Source\PSoC4/UART_DEB_UART.c ****             UART_DEB_txDataBits    = (uint8) config->dataBits;
 134:Generated_Source\PSoC4/UART_DEB_UART.c ****             UART_DEB_txBufferSize  = (uint8) config->txBufferSize;
 135:Generated_Source\PSoC4/UART_DEB_UART.c **** 
 136:Generated_Source\PSoC4/UART_DEB_UART.c ****             /* Configure UART interface */
 137:Generated_Source\PSoC4/UART_DEB_UART.c ****             if(UART_DEB_UART_MODE_IRDA == config->mode)
 138:Generated_Source\PSoC4/UART_DEB_UART.c ****             {
 139:Generated_Source\PSoC4/UART_DEB_UART.c ****                 /* OVS settings: IrDA */
 140:Generated_Source\PSoC4/UART_DEB_UART.c ****                 UART_DEB_CTRL_REG  = ((0u != config->enableIrdaLowPower) ?
 141:Generated_Source\PSoC4/UART_DEB_UART.c ****                                                 (UART_DEB_UART_GET_CTRL_OVS_IRDA_LP(config->oversam
 142:Generated_Source\PSoC4/UART_DEB_UART.c ****                                                 (UART_DEB_CTRL_OVS_IRDA_OVS16));
 143:Generated_Source\PSoC4/UART_DEB_UART.c ****             }
 144:Generated_Source\PSoC4/UART_DEB_UART.c ****             else
ARM GAS  C:\Users\Xavier\AppData\Local\Temp\ccMUNkST.s 			page 4


 145:Generated_Source\PSoC4/UART_DEB_UART.c ****             {
 146:Generated_Source\PSoC4/UART_DEB_UART.c ****                 /* OVS settings: UART and SmartCard */
 147:Generated_Source\PSoC4/UART_DEB_UART.c ****                 UART_DEB_CTRL_REG  = UART_DEB_GET_CTRL_OVS(config->oversample);
 148:Generated_Source\PSoC4/UART_DEB_UART.c ****             }
 149:Generated_Source\PSoC4/UART_DEB_UART.c **** 
 150:Generated_Source\PSoC4/UART_DEB_UART.c ****             UART_DEB_CTRL_REG     |= UART_DEB_GET_CTRL_BYTE_MODE  (config->enableByteMode)      |
 151:Generated_Source\PSoC4/UART_DEB_UART.c ****                                              UART_DEB_GET_CTRL_ADDR_ACCEPT(config->multiprocAcceptA
 152:Generated_Source\PSoC4/UART_DEB_UART.c ****                                              UART_DEB_CTRL_UART;
 153:Generated_Source\PSoC4/UART_DEB_UART.c **** 
 154:Generated_Source\PSoC4/UART_DEB_UART.c ****             /* Configure sub-mode: UART, SmartCard or IrDA */
 155:Generated_Source\PSoC4/UART_DEB_UART.c ****             UART_DEB_UART_CTRL_REG = UART_DEB_GET_UART_CTRL_MODE(config->mode);
 156:Generated_Source\PSoC4/UART_DEB_UART.c **** 
 157:Generated_Source\PSoC4/UART_DEB_UART.c ****             /* Configure RX direction */
 158:Generated_Source\PSoC4/UART_DEB_UART.c ****             UART_DEB_UART_RX_CTRL_REG = UART_DEB_GET_UART_RX_CTRL_MODE(config->stopBits)           
 159:Generated_Source\PSoC4/UART_DEB_UART.c ****                                         UART_DEB_GET_UART_RX_CTRL_POLARITY(config->enableInvertedRx
 160:Generated_Source\PSoC4/UART_DEB_UART.c ****                                         UART_DEB_GET_UART_RX_CTRL_MP_MODE(config->enableMultiproc) 
 161:Generated_Source\PSoC4/UART_DEB_UART.c ****                                         UART_DEB_GET_UART_RX_CTRL_DROP_ON_PARITY_ERR(config->dropOn
 162:Generated_Source\PSoC4/UART_DEB_UART.c ****                                         UART_DEB_GET_UART_RX_CTRL_DROP_ON_FRAME_ERR(config->dropOnF
 163:Generated_Source\PSoC4/UART_DEB_UART.c **** 
 164:Generated_Source\PSoC4/UART_DEB_UART.c ****             if(UART_DEB_UART_PARITY_NONE != config->parity)
 165:Generated_Source\PSoC4/UART_DEB_UART.c ****             {
 166:Generated_Source\PSoC4/UART_DEB_UART.c ****                UART_DEB_UART_RX_CTRL_REG |= UART_DEB_GET_UART_RX_CTRL_PARITY(config->parity) |
 167:Generated_Source\PSoC4/UART_DEB_UART.c ****                                                     UART_DEB_UART_RX_CTRL_PARITY_ENABLED;
 168:Generated_Source\PSoC4/UART_DEB_UART.c ****             }
 169:Generated_Source\PSoC4/UART_DEB_UART.c **** 
 170:Generated_Source\PSoC4/UART_DEB_UART.c ****             UART_DEB_RX_CTRL_REG      = UART_DEB_GET_RX_CTRL_DATA_WIDTH(config->dataBits)       |
 171:Generated_Source\PSoC4/UART_DEB_UART.c ****                                                 UART_DEB_GET_RX_CTRL_MEDIAN(config->enableMedianFil
 172:Generated_Source\PSoC4/UART_DEB_UART.c ****                                                 UART_DEB_GET_UART_RX_CTRL_ENABLED(config->direction
 173:Generated_Source\PSoC4/UART_DEB_UART.c **** 
 174:Generated_Source\PSoC4/UART_DEB_UART.c ****             UART_DEB_RX_FIFO_CTRL_REG = UART_DEB_GET_RX_FIFO_CTRL_TRIGGER_LEVEL(config->rxTriggerLe
 175:Generated_Source\PSoC4/UART_DEB_UART.c **** 
 176:Generated_Source\PSoC4/UART_DEB_UART.c ****             /* Configure MP address */
 177:Generated_Source\PSoC4/UART_DEB_UART.c ****             UART_DEB_RX_MATCH_REG     = UART_DEB_GET_RX_MATCH_ADDR(config->multiprocAddr) |
 178:Generated_Source\PSoC4/UART_DEB_UART.c ****                                                 UART_DEB_GET_RX_MATCH_MASK(config->multiprocAddrMas
 179:Generated_Source\PSoC4/UART_DEB_UART.c **** 
 180:Generated_Source\PSoC4/UART_DEB_UART.c ****             /* Configure RX direction */
 181:Generated_Source\PSoC4/UART_DEB_UART.c ****             UART_DEB_UART_TX_CTRL_REG = UART_DEB_GET_UART_TX_CTRL_MODE(config->stopBits) |
 182:Generated_Source\PSoC4/UART_DEB_UART.c ****                                                 UART_DEB_GET_UART_TX_CTRL_RETRY_NACK(config->enable
 183:Generated_Source\PSoC4/UART_DEB_UART.c **** 
 184:Generated_Source\PSoC4/UART_DEB_UART.c ****             if(UART_DEB_UART_PARITY_NONE != config->parity)
 185:Generated_Source\PSoC4/UART_DEB_UART.c ****             {
 186:Generated_Source\PSoC4/UART_DEB_UART.c ****                UART_DEB_UART_TX_CTRL_REG |= UART_DEB_GET_UART_TX_CTRL_PARITY(config->parity) |
 187:Generated_Source\PSoC4/UART_DEB_UART.c ****                                                     UART_DEB_UART_TX_CTRL_PARITY_ENABLED;
 188:Generated_Source\PSoC4/UART_DEB_UART.c ****             }
 189:Generated_Source\PSoC4/UART_DEB_UART.c **** 
 190:Generated_Source\PSoC4/UART_DEB_UART.c ****             UART_DEB_TX_CTRL_REG      = UART_DEB_GET_TX_CTRL_DATA_WIDTH(config->dataBits)    |
 191:Generated_Source\PSoC4/UART_DEB_UART.c ****                                                 UART_DEB_GET_UART_TX_CTRL_ENABLED(config->direction
 192:Generated_Source\PSoC4/UART_DEB_UART.c **** 
 193:Generated_Source\PSoC4/UART_DEB_UART.c ****             UART_DEB_TX_FIFO_CTRL_REG = UART_DEB_GET_TX_FIFO_CTRL_TRIGGER_LEVEL(config->txTriggerLe
 194:Generated_Source\PSoC4/UART_DEB_UART.c **** 
 195:Generated_Source\PSoC4/UART_DEB_UART.c ****         #if !(UART_DEB_CY_SCBIP_V0 || UART_DEB_CY_SCBIP_V1)
 196:Generated_Source\PSoC4/UART_DEB_UART.c ****             UART_DEB_UART_FLOW_CTRL_REG = UART_DEB_GET_UART_FLOW_CTRL_CTS_ENABLE(config->enableCts)
 197:Generated_Source\PSoC4/UART_DEB_UART.c ****                                             UART_DEB_GET_UART_FLOW_CTRL_CTS_POLARITY (config->ctsPo
 198:Generated_Source\PSoC4/UART_DEB_UART.c ****                                             UART_DEB_GET_UART_FLOW_CTRL_RTS_POLARITY (config->rtsPo
 199:Generated_Source\PSoC4/UART_DEB_UART.c ****                                             UART_DEB_GET_UART_FLOW_CTRL_TRIGGER_LEVEL(config->rtsRx
 200:Generated_Source\PSoC4/UART_DEB_UART.c ****         #endif /* !(UART_DEB_CY_SCBIP_V0 || UART_DEB_CY_SCBIP_V1) */
 201:Generated_Source\PSoC4/UART_DEB_UART.c **** 
ARM GAS  C:\Users\Xavier\AppData\Local\Temp\ccMUNkST.s 			page 5


 202:Generated_Source\PSoC4/UART_DEB_UART.c ****             /* Configure interrupt with UART handler but do not enable it */
 203:Generated_Source\PSoC4/UART_DEB_UART.c ****             CyIntDisable    (UART_DEB_ISR_NUMBER);
 204:Generated_Source\PSoC4/UART_DEB_UART.c ****             CyIntSetPriority(UART_DEB_ISR_NUMBER, UART_DEB_ISR_PRIORITY);
 205:Generated_Source\PSoC4/UART_DEB_UART.c ****             (void) CyIntSetVector(UART_DEB_ISR_NUMBER, &UART_DEB_SPI_UART_ISR);
 206:Generated_Source\PSoC4/UART_DEB_UART.c **** 
 207:Generated_Source\PSoC4/UART_DEB_UART.c ****             /* Configure WAKE interrupt */
 208:Generated_Source\PSoC4/UART_DEB_UART.c ****         #if(UART_DEB_UART_RX_WAKEUP_IRQ)
 209:Generated_Source\PSoC4/UART_DEB_UART.c ****             CyIntDisable    (UART_DEB_RX_WAKE_ISR_NUMBER);
 210:Generated_Source\PSoC4/UART_DEB_UART.c ****             CyIntSetPriority(UART_DEB_RX_WAKE_ISR_NUMBER, UART_DEB_RX_WAKE_ISR_PRIORITY);
 211:Generated_Source\PSoC4/UART_DEB_UART.c ****             (void) CyIntSetVector(UART_DEB_RX_WAKE_ISR_NUMBER, &UART_DEB_UART_WAKEUP_ISR);
 212:Generated_Source\PSoC4/UART_DEB_UART.c ****         #endif /* (UART_DEB_UART_RX_WAKEUP_IRQ) */
 213:Generated_Source\PSoC4/UART_DEB_UART.c **** 
 214:Generated_Source\PSoC4/UART_DEB_UART.c ****             /* Configure interrupt sources */
 215:Generated_Source\PSoC4/UART_DEB_UART.c ****             UART_DEB_INTR_I2C_EC_MASK_REG = UART_DEB_NO_INTR_SOURCES;
 216:Generated_Source\PSoC4/UART_DEB_UART.c ****             UART_DEB_INTR_SPI_EC_MASK_REG = UART_DEB_NO_INTR_SOURCES;
 217:Generated_Source\PSoC4/UART_DEB_UART.c ****             UART_DEB_INTR_SLAVE_MASK_REG  = UART_DEB_NO_INTR_SOURCES;
 218:Generated_Source\PSoC4/UART_DEB_UART.c ****             UART_DEB_INTR_MASTER_MASK_REG = UART_DEB_NO_INTR_SOURCES;
 219:Generated_Source\PSoC4/UART_DEB_UART.c ****             UART_DEB_INTR_RX_MASK_REG     = config->rxInterruptMask;
 220:Generated_Source\PSoC4/UART_DEB_UART.c ****             UART_DEB_INTR_TX_MASK_REG     = config->txInterruptMask;
 221:Generated_Source\PSoC4/UART_DEB_UART.c ****         
 222:Generated_Source\PSoC4/UART_DEB_UART.c ****             /* Configure TX interrupt sources to restore. */
 223:Generated_Source\PSoC4/UART_DEB_UART.c ****             UART_DEB_IntrTxMask = LO16(UART_DEB_INTR_TX_MASK_REG);
 224:Generated_Source\PSoC4/UART_DEB_UART.c **** 
 225:Generated_Source\PSoC4/UART_DEB_UART.c ****             /* Clear RX buffer indexes */
 226:Generated_Source\PSoC4/UART_DEB_UART.c ****             UART_DEB_rxBufferHead     = 0u;
 227:Generated_Source\PSoC4/UART_DEB_UART.c ****             UART_DEB_rxBufferTail     = 0u;
 228:Generated_Source\PSoC4/UART_DEB_UART.c ****             UART_DEB_rxBufferOverflow = 0u;
 229:Generated_Source\PSoC4/UART_DEB_UART.c **** 
 230:Generated_Source\PSoC4/UART_DEB_UART.c ****             /* Clear TX buffer indexes */
 231:Generated_Source\PSoC4/UART_DEB_UART.c ****             UART_DEB_txBufferHead = 0u;
 232:Generated_Source\PSoC4/UART_DEB_UART.c ****             UART_DEB_txBufferTail = 0u;
 233:Generated_Source\PSoC4/UART_DEB_UART.c ****         }
 234:Generated_Source\PSoC4/UART_DEB_UART.c ****     }
 235:Generated_Source\PSoC4/UART_DEB_UART.c **** 
 236:Generated_Source\PSoC4/UART_DEB_UART.c **** #else
 237:Generated_Source\PSoC4/UART_DEB_UART.c **** 
 238:Generated_Source\PSoC4/UART_DEB_UART.c ****     /*******************************************************************************
 239:Generated_Source\PSoC4/UART_DEB_UART.c ****     * Function Name: UART_DEB_UartInit
 240:Generated_Source\PSoC4/UART_DEB_UART.c ****     ****************************************************************************//**
 241:Generated_Source\PSoC4/UART_DEB_UART.c ****     *
 242:Generated_Source\PSoC4/UART_DEB_UART.c ****     *  Configures the SCB for the UART operation.
 243:Generated_Source\PSoC4/UART_DEB_UART.c ****     *
 244:Generated_Source\PSoC4/UART_DEB_UART.c ****     *******************************************************************************/
 245:Generated_Source\PSoC4/UART_DEB_UART.c ****     void UART_DEB_UartInit(void)
 246:Generated_Source\PSoC4/UART_DEB_UART.c ****     {
  28              		.loc 1 246 0
  29              		.cfi_startproc
  30              		@ args = 0, pretend = 0, frame = 0
  31              		@ frame_needed = 0, uses_anonymous_args = 0
 247:Generated_Source\PSoC4/UART_DEB_UART.c ****         /* Configure UART interface */
 248:Generated_Source\PSoC4/UART_DEB_UART.c ****         UART_DEB_CTRL_REG = UART_DEB_UART_DEFAULT_CTRL;
  32              		.loc 1 248 0
  33 0000 154A     		ldr	r2, .L2
  34 0002 164B     		ldr	r3, .L2+4
 246:Generated_Source\PSoC4/UART_DEB_UART.c ****         /* Configure UART interface */
  35              		.loc 1 246 0
  36 0004 10B5     		push	{r4, lr}
ARM GAS  C:\Users\Xavier\AppData\Local\Temp\ccMUNkST.s 			page 6


  37              		.cfi_def_cfa_offset 8
  38              		.cfi_offset 4, -8
  39              		.cfi_offset 14, -4
  40              		.loc 1 248 0
  41 0006 1A60     		str	r2, [r3]
 249:Generated_Source\PSoC4/UART_DEB_UART.c **** 
 250:Generated_Source\PSoC4/UART_DEB_UART.c ****         /* Configure sub-mode: UART, SmartCard or IrDA */
 251:Generated_Source\PSoC4/UART_DEB_UART.c ****         UART_DEB_UART_CTRL_REG = UART_DEB_UART_DEFAULT_UART_CTRL;
  42              		.loc 1 251 0
  43 0008 0023     		movs	r3, #0
 252:Generated_Source\PSoC4/UART_DEB_UART.c **** 
 253:Generated_Source\PSoC4/UART_DEB_UART.c ****         /* Configure RX direction */
 254:Generated_Source\PSoC4/UART_DEB_UART.c ****         UART_DEB_UART_RX_CTRL_REG = UART_DEB_UART_DEFAULT_UART_RX_CTRL;
  44              		.loc 1 254 0
  45 000a 0121     		movs	r1, #1
 255:Generated_Source\PSoC4/UART_DEB_UART.c ****         UART_DEB_RX_CTRL_REG      = UART_DEB_UART_DEFAULT_RX_CTRL;
 256:Generated_Source\PSoC4/UART_DEB_UART.c ****         UART_DEB_RX_FIFO_CTRL_REG = UART_DEB_UART_DEFAULT_RX_FIFO_CTRL;
  46              		.loc 1 256 0
  47 000c 0724     		movs	r4, #7
 251:Generated_Source\PSoC4/UART_DEB_UART.c **** 
  48              		.loc 1 251 0
  49 000e 144A     		ldr	r2, .L2+8
 255:Generated_Source\PSoC4/UART_DEB_UART.c ****         UART_DEB_RX_CTRL_REG      = UART_DEB_UART_DEFAULT_RX_CTRL;
  50              		.loc 1 255 0
  51 0010 1448     		ldr	r0, .L2+12
 251:Generated_Source\PSoC4/UART_DEB_UART.c **** 
  52              		.loc 1 251 0
  53 0012 1360     		str	r3, [r2]
 254:Generated_Source\PSoC4/UART_DEB_UART.c ****         UART_DEB_RX_CTRL_REG      = UART_DEB_UART_DEFAULT_RX_CTRL;
  54              		.loc 1 254 0
  55 0014 144A     		ldr	r2, .L2+16
 257:Generated_Source\PSoC4/UART_DEB_UART.c ****         UART_DEB_RX_MATCH_REG     = UART_DEB_UART_DEFAULT_RX_MATCH_REG;
 258:Generated_Source\PSoC4/UART_DEB_UART.c **** 
 259:Generated_Source\PSoC4/UART_DEB_UART.c ****         /* Configure TX direction */
 260:Generated_Source\PSoC4/UART_DEB_UART.c ****         UART_DEB_UART_TX_CTRL_REG = UART_DEB_UART_DEFAULT_UART_TX_CTRL;
 261:Generated_Source\PSoC4/UART_DEB_UART.c ****         UART_DEB_TX_CTRL_REG      = UART_DEB_UART_DEFAULT_TX_CTRL;
 262:Generated_Source\PSoC4/UART_DEB_UART.c ****         UART_DEB_TX_FIFO_CTRL_REG = UART_DEB_UART_DEFAULT_TX_FIFO_CTRL;
 263:Generated_Source\PSoC4/UART_DEB_UART.c **** 
 264:Generated_Source\PSoC4/UART_DEB_UART.c ****     #if !(UART_DEB_CY_SCBIP_V0 || UART_DEB_CY_SCBIP_V1)
 265:Generated_Source\PSoC4/UART_DEB_UART.c ****         UART_DEB_UART_FLOW_CTRL_REG = UART_DEB_UART_DEFAULT_FLOW_CTRL;
 266:Generated_Source\PSoC4/UART_DEB_UART.c ****     #endif /* !(UART_DEB_CY_SCBIP_V0 || UART_DEB_CY_SCBIP_V1) */
 267:Generated_Source\PSoC4/UART_DEB_UART.c **** 
 268:Generated_Source\PSoC4/UART_DEB_UART.c ****         /* Configure interrupt with UART handler but do not enable it */
 269:Generated_Source\PSoC4/UART_DEB_UART.c ****     #if(UART_DEB_SCB_IRQ_INTERNAL)
 270:Generated_Source\PSoC4/UART_DEB_UART.c ****         CyIntDisable    (UART_DEB_ISR_NUMBER);
 271:Generated_Source\PSoC4/UART_DEB_UART.c ****         CyIntSetPriority(UART_DEB_ISR_NUMBER, UART_DEB_ISR_PRIORITY);
 272:Generated_Source\PSoC4/UART_DEB_UART.c ****         (void) CyIntSetVector(UART_DEB_ISR_NUMBER, &UART_DEB_SPI_UART_ISR);
 273:Generated_Source\PSoC4/UART_DEB_UART.c ****     #endif /* (UART_DEB_SCB_IRQ_INTERNAL) */
 274:Generated_Source\PSoC4/UART_DEB_UART.c **** 
 275:Generated_Source\PSoC4/UART_DEB_UART.c ****         /* Configure WAKE interrupt */
 276:Generated_Source\PSoC4/UART_DEB_UART.c ****     #if(UART_DEB_UART_RX_WAKEUP_IRQ)
 277:Generated_Source\PSoC4/UART_DEB_UART.c ****         CyIntDisable    (UART_DEB_RX_WAKE_ISR_NUMBER);
 278:Generated_Source\PSoC4/UART_DEB_UART.c ****         CyIntSetPriority(UART_DEB_RX_WAKE_ISR_NUMBER, UART_DEB_RX_WAKE_ISR_PRIORITY);
 279:Generated_Source\PSoC4/UART_DEB_UART.c ****         (void) CyIntSetVector(UART_DEB_RX_WAKE_ISR_NUMBER, &UART_DEB_UART_WAKEUP_ISR);
 280:Generated_Source\PSoC4/UART_DEB_UART.c ****     #endif /* (UART_DEB_UART_RX_WAKEUP_IRQ) */
 281:Generated_Source\PSoC4/UART_DEB_UART.c **** 
 282:Generated_Source\PSoC4/UART_DEB_UART.c ****         /* Configure interrupt sources */
ARM GAS  C:\Users\Xavier\AppData\Local\Temp\ccMUNkST.s 			page 7


 283:Generated_Source\PSoC4/UART_DEB_UART.c ****         UART_DEB_INTR_I2C_EC_MASK_REG = UART_DEB_UART_DEFAULT_INTR_I2C_EC_MASK;
 284:Generated_Source\PSoC4/UART_DEB_UART.c ****         UART_DEB_INTR_SPI_EC_MASK_REG = UART_DEB_UART_DEFAULT_INTR_SPI_EC_MASK;
 285:Generated_Source\PSoC4/UART_DEB_UART.c ****         UART_DEB_INTR_SLAVE_MASK_REG  = UART_DEB_UART_DEFAULT_INTR_SLAVE_MASK;
 286:Generated_Source\PSoC4/UART_DEB_UART.c ****         UART_DEB_INTR_MASTER_MASK_REG = UART_DEB_UART_DEFAULT_INTR_MASTER_MASK;
 287:Generated_Source\PSoC4/UART_DEB_UART.c ****         UART_DEB_INTR_RX_MASK_REG     = UART_DEB_UART_DEFAULT_INTR_RX_MASK;
 288:Generated_Source\PSoC4/UART_DEB_UART.c ****         UART_DEB_INTR_TX_MASK_REG     = UART_DEB_UART_DEFAULT_INTR_TX_MASK;
 289:Generated_Source\PSoC4/UART_DEB_UART.c ****     
 290:Generated_Source\PSoC4/UART_DEB_UART.c ****         /* Configure TX interrupt sources to restore. */
 291:Generated_Source\PSoC4/UART_DEB_UART.c ****         UART_DEB_IntrTxMask = LO16(UART_DEB_INTR_TX_MASK_REG);
 292:Generated_Source\PSoC4/UART_DEB_UART.c **** 
 293:Generated_Source\PSoC4/UART_DEB_UART.c ****     #if(UART_DEB_INTERNAL_RX_SW_BUFFER_CONST)
 294:Generated_Source\PSoC4/UART_DEB_UART.c ****         UART_DEB_rxBufferHead     = 0u;
 295:Generated_Source\PSoC4/UART_DEB_UART.c ****         UART_DEB_rxBufferTail     = 0u;
 296:Generated_Source\PSoC4/UART_DEB_UART.c ****         UART_DEB_rxBufferOverflow = 0u;
 297:Generated_Source\PSoC4/UART_DEB_UART.c ****     #endif /* (UART_DEB_INTERNAL_RX_SW_BUFFER_CONST) */
 298:Generated_Source\PSoC4/UART_DEB_UART.c **** 
 299:Generated_Source\PSoC4/UART_DEB_UART.c ****     #if(UART_DEB_INTERNAL_TX_SW_BUFFER_CONST)
 300:Generated_Source\PSoC4/UART_DEB_UART.c ****         UART_DEB_txBufferHead = 0u;
 301:Generated_Source\PSoC4/UART_DEB_UART.c ****         UART_DEB_txBufferTail = 0u;
 302:Generated_Source\PSoC4/UART_DEB_UART.c ****     #endif /* (UART_DEB_INTERNAL_TX_SW_BUFFER_CONST) */
 303:Generated_Source\PSoC4/UART_DEB_UART.c ****     }
  56              		.loc 1 303 0
  57              		@ sp needed
 254:Generated_Source\PSoC4/UART_DEB_UART.c ****         UART_DEB_RX_CTRL_REG      = UART_DEB_UART_DEFAULT_RX_CTRL;
  58              		.loc 1 254 0
  59 0016 1160     		str	r1, [r2]
 255:Generated_Source\PSoC4/UART_DEB_UART.c ****         UART_DEB_RX_FIFO_CTRL_REG = UART_DEB_UART_DEFAULT_RX_FIFO_CTRL;
  60              		.loc 1 255 0
  61 0018 144A     		ldr	r2, .L2+20
  62 001a 0260     		str	r2, [r0]
 256:Generated_Source\PSoC4/UART_DEB_UART.c ****         UART_DEB_RX_MATCH_REG     = UART_DEB_UART_DEFAULT_RX_MATCH_REG;
  63              		.loc 1 256 0
  64 001c 1448     		ldr	r0, .L2+24
  65 001e 0460     		str	r4, [r0]
 257:Generated_Source\PSoC4/UART_DEB_UART.c ****         UART_DEB_RX_MATCH_REG     = UART_DEB_UART_DEFAULT_RX_MATCH_REG;
  66              		.loc 1 257 0
  67 0020 1448     		ldr	r0, .L2+28
  68 0022 0360     		str	r3, [r0]
 260:Generated_Source\PSoC4/UART_DEB_UART.c ****         UART_DEB_TX_CTRL_REG      = UART_DEB_UART_DEFAULT_TX_CTRL;
  69              		.loc 1 260 0
  70 0024 1448     		ldr	r0, .L2+32
  71 0026 0160     		str	r1, [r0]
 261:Generated_Source\PSoC4/UART_DEB_UART.c ****         UART_DEB_TX_FIFO_CTRL_REG = UART_DEB_UART_DEFAULT_TX_FIFO_CTRL;
  72              		.loc 1 261 0
  73 0028 1449     		ldr	r1, .L2+36
  74 002a 0A60     		str	r2, [r1]
 265:Generated_Source\PSoC4/UART_DEB_UART.c ****     #endif /* !(UART_DEB_CY_SCBIP_V0 || UART_DEB_CY_SCBIP_V1) */
  75              		.loc 1 265 0
  76 002c 0421     		movs	r1, #4
 262:Generated_Source\PSoC4/UART_DEB_UART.c **** 
  77              		.loc 1 262 0
  78 002e 144A     		ldr	r2, .L2+40
  79 0030 1360     		str	r3, [r2]
 265:Generated_Source\PSoC4/UART_DEB_UART.c ****     #endif /* !(UART_DEB_CY_SCBIP_V0 || UART_DEB_CY_SCBIP_V1) */
  80              		.loc 1 265 0
  81 0032 144A     		ldr	r2, .L2+44
  82 0034 1160     		str	r1, [r2]
ARM GAS  C:\Users\Xavier\AppData\Local\Temp\ccMUNkST.s 			page 8


 283:Generated_Source\PSoC4/UART_DEB_UART.c ****         UART_DEB_INTR_SPI_EC_MASK_REG = UART_DEB_UART_DEFAULT_INTR_SPI_EC_MASK;
  83              		.loc 1 283 0
  84 0036 144A     		ldr	r2, .L2+48
  85 0038 1360     		str	r3, [r2]
 284:Generated_Source\PSoC4/UART_DEB_UART.c ****         UART_DEB_INTR_SLAVE_MASK_REG  = UART_DEB_UART_DEFAULT_INTR_SLAVE_MASK;
  86              		.loc 1 284 0
  87 003a 144A     		ldr	r2, .L2+52
  88 003c 1360     		str	r3, [r2]
 285:Generated_Source\PSoC4/UART_DEB_UART.c ****         UART_DEB_INTR_MASTER_MASK_REG = UART_DEB_UART_DEFAULT_INTR_MASTER_MASK;
  89              		.loc 1 285 0
  90 003e 144A     		ldr	r2, .L2+56
  91 0040 1360     		str	r3, [r2]
 286:Generated_Source\PSoC4/UART_DEB_UART.c ****         UART_DEB_INTR_RX_MASK_REG     = UART_DEB_UART_DEFAULT_INTR_RX_MASK;
  92              		.loc 1 286 0
  93 0042 144A     		ldr	r2, .L2+60
  94 0044 1360     		str	r3, [r2]
 287:Generated_Source\PSoC4/UART_DEB_UART.c ****         UART_DEB_INTR_TX_MASK_REG     = UART_DEB_UART_DEFAULT_INTR_TX_MASK;
  95              		.loc 1 287 0
  96 0046 144A     		ldr	r2, .L2+64
  97 0048 1360     		str	r3, [r2]
 288:Generated_Source\PSoC4/UART_DEB_UART.c ****     
  98              		.loc 1 288 0
  99 004a 144A     		ldr	r2, .L2+68
 100 004c 1360     		str	r3, [r2]
 291:Generated_Source\PSoC4/UART_DEB_UART.c **** 
 101              		.loc 1 291 0
 102 004e 1268     		ldr	r2, [r2]
 103 0050 134B     		ldr	r3, .L2+72
 104 0052 1A80     		strh	r2, [r3]
 105              		.loc 1 303 0
 106 0054 10BD     		pop	{r4, pc}
 107              	.L3:
 108 0056 C046     		.align	2
 109              	.L2:
 110 0058 0F000002 		.word	33554447
 111 005c 00002440 		.word	1076101120
 112 0060 40002440 		.word	1076101184
 113 0064 00032440 		.word	1076101888
 114 0068 48002440 		.word	1076101192
 115 006c 07000080 		.word	-2147483641
 116 0070 04032440 		.word	1076101892
 117 0074 10032440 		.word	1076101904
 118 0078 44002440 		.word	1076101188
 119 007c 00022440 		.word	1076101632
 120 0080 04022440 		.word	1076101636
 121 0084 50002440 		.word	1076101200
 122 0088 880E2440 		.word	1076104840
 123 008c C80E2440 		.word	1076104904
 124 0090 480F2440 		.word	1076105032
 125 0094 080F2440 		.word	1076104968
 126 0098 C80F2440 		.word	1076105160
 127 009c 880F2440 		.word	1076105096
 128 00a0 00000000 		.word	UART_DEB_IntrTxMask
 129              		.cfi_endproc
 130              	.LFE2:
 131              		.size	UART_DEB_UartInit, .-UART_DEB_UartInit
 132              		.section	.text.UART_DEB_UartPostEnable,"ax",%progbits
ARM GAS  C:\Users\Xavier\AppData\Local\Temp\ccMUNkST.s 			page 9


 133              		.align	1
 134              		.global	UART_DEB_UartPostEnable
 135              		.code	16
 136              		.thumb_func
 137              		.type	UART_DEB_UartPostEnable, %function
 138              	UART_DEB_UartPostEnable:
 139              	.LFB3:
 304:Generated_Source\PSoC4/UART_DEB_UART.c **** #endif /* (UART_DEB_SCB_MODE_UNCONFIG_CONST_CFG) */
 305:Generated_Source\PSoC4/UART_DEB_UART.c **** 
 306:Generated_Source\PSoC4/UART_DEB_UART.c **** 
 307:Generated_Source\PSoC4/UART_DEB_UART.c **** /*******************************************************************************
 308:Generated_Source\PSoC4/UART_DEB_UART.c **** * Function Name: UART_DEB_UartPostEnable
 309:Generated_Source\PSoC4/UART_DEB_UART.c **** ****************************************************************************//**
 310:Generated_Source\PSoC4/UART_DEB_UART.c **** *
 311:Generated_Source\PSoC4/UART_DEB_UART.c **** *  Restores HSIOM settings for the UART output pins (TX and/or RTS) to be
 312:Generated_Source\PSoC4/UART_DEB_UART.c **** *  controlled by the SCB UART.
 313:Generated_Source\PSoC4/UART_DEB_UART.c **** *
 314:Generated_Source\PSoC4/UART_DEB_UART.c **** *******************************************************************************/
 315:Generated_Source\PSoC4/UART_DEB_UART.c **** void UART_DEB_UartPostEnable(void)
 316:Generated_Source\PSoC4/UART_DEB_UART.c **** {
 140              		.loc 1 316 0
 141              		.cfi_startproc
 142              		@ args = 0, pretend = 0, frame = 0
 143              		@ frame_needed = 0, uses_anonymous_args = 0
 144              		@ link register save eliminated.
 317:Generated_Source\PSoC4/UART_DEB_UART.c **** #if (UART_DEB_SCB_MODE_UNCONFIG_CONST_CFG)
 318:Generated_Source\PSoC4/UART_DEB_UART.c ****     #if (UART_DEB_TX_SCL_MISO_PIN)
 319:Generated_Source\PSoC4/UART_DEB_UART.c ****         if (UART_DEB_CHECK_TX_SCL_MISO_PIN_USED)
 320:Generated_Source\PSoC4/UART_DEB_UART.c ****         {
 321:Generated_Source\PSoC4/UART_DEB_UART.c ****             /* Set SCB UART to drive the output pin */
 322:Generated_Source\PSoC4/UART_DEB_UART.c ****             UART_DEB_SET_HSIOM_SEL(UART_DEB_TX_SCL_MISO_HSIOM_REG, UART_DEB_TX_SCL_MISO_HSIOM_MASK,
 323:Generated_Source\PSoC4/UART_DEB_UART.c ****                                            UART_DEB_TX_SCL_MISO_HSIOM_POS, UART_DEB_TX_SCL_MISO_HSI
 324:Generated_Source\PSoC4/UART_DEB_UART.c ****         }
 325:Generated_Source\PSoC4/UART_DEB_UART.c ****     #endif /* (UART_DEB_TX_SCL_MISO_PIN_PIN) */
 326:Generated_Source\PSoC4/UART_DEB_UART.c **** 
 327:Generated_Source\PSoC4/UART_DEB_UART.c ****     #if !(UART_DEB_CY_SCBIP_V0 || UART_DEB_CY_SCBIP_V1)
 328:Generated_Source\PSoC4/UART_DEB_UART.c ****         #if (UART_DEB_RTS_SS0_PIN)
 329:Generated_Source\PSoC4/UART_DEB_UART.c ****             if (UART_DEB_CHECK_RTS_SS0_PIN_USED)
 330:Generated_Source\PSoC4/UART_DEB_UART.c ****             {
 331:Generated_Source\PSoC4/UART_DEB_UART.c ****                 /* Set SCB UART to drive the output pin */
 332:Generated_Source\PSoC4/UART_DEB_UART.c ****                 UART_DEB_SET_HSIOM_SEL(UART_DEB_RTS_SS0_HSIOM_REG, UART_DEB_RTS_SS0_HSIOM_MASK,
 333:Generated_Source\PSoC4/UART_DEB_UART.c ****                                                UART_DEB_RTS_SS0_HSIOM_POS, UART_DEB_RTS_SS0_HSIOM_S
 334:Generated_Source\PSoC4/UART_DEB_UART.c ****             }
 335:Generated_Source\PSoC4/UART_DEB_UART.c ****         #endif /* (UART_DEB_RTS_SS0_PIN) */
 336:Generated_Source\PSoC4/UART_DEB_UART.c ****     #endif /* !(UART_DEB_CY_SCBIP_V0 || UART_DEB_CY_SCBIP_V1) */
 337:Generated_Source\PSoC4/UART_DEB_UART.c **** 
 338:Generated_Source\PSoC4/UART_DEB_UART.c **** #else
 339:Generated_Source\PSoC4/UART_DEB_UART.c ****     #if (UART_DEB_UART_TX_PIN)
 340:Generated_Source\PSoC4/UART_DEB_UART.c ****          /* Set SCB UART to drive the output pin */
 341:Generated_Source\PSoC4/UART_DEB_UART.c ****         UART_DEB_SET_HSIOM_SEL(UART_DEB_TX_HSIOM_REG, UART_DEB_TX_HSIOM_MASK,
 145              		.loc 1 341 0
 146 0000 064A     		ldr	r2, .L5
 147 0002 074B     		ldr	r3, .L5+4
 148 0004 1168     		ldr	r1, [r2]
 342:Generated_Source\PSoC4/UART_DEB_UART.c ****                                        UART_DEB_TX_HSIOM_POS, UART_DEB_TX_HSIOM_SEL_UART);
 343:Generated_Source\PSoC4/UART_DEB_UART.c ****     #endif /* (UART_DEB_UART_TX_PIN) */
 344:Generated_Source\PSoC4/UART_DEB_UART.c **** 
ARM GAS  C:\Users\Xavier\AppData\Local\Temp\ccMUNkST.s 			page 10


 345:Generated_Source\PSoC4/UART_DEB_UART.c ****     #if (UART_DEB_UART_RTS_PIN)
 346:Generated_Source\PSoC4/UART_DEB_UART.c ****         /* Set SCB UART to drive the output pin */
 347:Generated_Source\PSoC4/UART_DEB_UART.c ****         UART_DEB_SET_HSIOM_SEL(UART_DEB_RTS_HSIOM_REG, UART_DEB_RTS_HSIOM_MASK,
 348:Generated_Source\PSoC4/UART_DEB_UART.c ****                                        UART_DEB_RTS_HSIOM_POS, UART_DEB_RTS_HSIOM_SEL_UART);
 349:Generated_Source\PSoC4/UART_DEB_UART.c ****     #endif /* (UART_DEB_UART_RTS_PIN) */
 350:Generated_Source\PSoC4/UART_DEB_UART.c **** #endif /* (UART_DEB_SCB_MODE_UNCONFIG_CONST_CFG) */
 351:Generated_Source\PSoC4/UART_DEB_UART.c **** 
 352:Generated_Source\PSoC4/UART_DEB_UART.c ****     /* Restore TX interrupt sources. */
 353:Generated_Source\PSoC4/UART_DEB_UART.c ****     UART_DEB_SetTxInterruptMode(UART_DEB_IntrTxMask);
 354:Generated_Source\PSoC4/UART_DEB_UART.c **** }
 149              		.loc 1 354 0
 150              		@ sp needed
 341:Generated_Source\PSoC4/UART_DEB_UART.c ****                                        UART_DEB_TX_HSIOM_POS, UART_DEB_TX_HSIOM_SEL_UART);
 151              		.loc 1 341 0
 152 0006 0B40     		ands	r3, r1
 153 0008 9021     		movs	r1, #144
 154 000a 0904     		lsls	r1, r1, #16
 155 000c 0B43     		orrs	r3, r1
 156 000e 1360     		str	r3, [r2]
 353:Generated_Source\PSoC4/UART_DEB_UART.c **** }
 157              		.loc 1 353 0
 158 0010 044B     		ldr	r3, .L5+8
 159 0012 1A88     		ldrh	r2, [r3]
 160 0014 044B     		ldr	r3, .L5+12
 161 0016 1A60     		str	r2, [r3]
 162              		.loc 1 354 0
 163 0018 7047     		bx	lr
 164              	.L6:
 165 001a C046     		.align	2
 166              	.L5:
 167 001c 00010240 		.word	1073873152
 168 0020 FFFF0FFF 		.word	-15728641
 169 0024 00000000 		.word	UART_DEB_IntrTxMask
 170 0028 880F2440 		.word	1076105096
 171              		.cfi_endproc
 172              	.LFE3:
 173              		.size	UART_DEB_UartPostEnable, .-UART_DEB_UartPostEnable
 174              		.section	.text.UART_DEB_UartStop,"ax",%progbits
 175              		.align	1
 176              		.global	UART_DEB_UartStop
 177              		.code	16
 178              		.thumb_func
 179              		.type	UART_DEB_UartStop, %function
 180              	UART_DEB_UartStop:
 181              	.LFB4:
 355:Generated_Source\PSoC4/UART_DEB_UART.c **** 
 356:Generated_Source\PSoC4/UART_DEB_UART.c **** 
 357:Generated_Source\PSoC4/UART_DEB_UART.c **** /*******************************************************************************
 358:Generated_Source\PSoC4/UART_DEB_UART.c **** * Function Name: UART_DEB_UartStop
 359:Generated_Source\PSoC4/UART_DEB_UART.c **** ****************************************************************************//**
 360:Generated_Source\PSoC4/UART_DEB_UART.c **** *
 361:Generated_Source\PSoC4/UART_DEB_UART.c **** *  Changes the HSIOM settings for the UART output pins (TX and/or RTS) to keep
 362:Generated_Source\PSoC4/UART_DEB_UART.c **** *  them inactive after the block is disabled. The output pins are controlled by
 363:Generated_Source\PSoC4/UART_DEB_UART.c **** *  the GPIO data register. Also, the function disables the skip start feature
 364:Generated_Source\PSoC4/UART_DEB_UART.c **** *  to not cause it to trigger after the component is enabled.
 365:Generated_Source\PSoC4/UART_DEB_UART.c **** *
 366:Generated_Source\PSoC4/UART_DEB_UART.c **** *******************************************************************************/
ARM GAS  C:\Users\Xavier\AppData\Local\Temp\ccMUNkST.s 			page 11


 367:Generated_Source\PSoC4/UART_DEB_UART.c **** void UART_DEB_UartStop(void)
 368:Generated_Source\PSoC4/UART_DEB_UART.c **** {
 182              		.loc 1 368 0
 183              		.cfi_startproc
 184              		@ args = 0, pretend = 0, frame = 0
 185              		@ frame_needed = 0, uses_anonymous_args = 0
 186              		@ link register save eliminated.
 369:Generated_Source\PSoC4/UART_DEB_UART.c **** #if(UART_DEB_SCB_MODE_UNCONFIG_CONST_CFG)
 370:Generated_Source\PSoC4/UART_DEB_UART.c ****     #if (UART_DEB_TX_SCL_MISO_PIN)
 371:Generated_Source\PSoC4/UART_DEB_UART.c ****         if (UART_DEB_CHECK_TX_SCL_MISO_PIN_USED)
 372:Generated_Source\PSoC4/UART_DEB_UART.c ****         {
 373:Generated_Source\PSoC4/UART_DEB_UART.c ****             /* Set GPIO to drive output pin */
 374:Generated_Source\PSoC4/UART_DEB_UART.c ****             UART_DEB_SET_HSIOM_SEL(UART_DEB_TX_SCL_MISO_HSIOM_REG, UART_DEB_TX_SCL_MISO_HSIOM_MASK,
 375:Generated_Source\PSoC4/UART_DEB_UART.c ****                                            UART_DEB_TX_SCL_MISO_HSIOM_POS, UART_DEB_TX_SCL_MISO_HSI
 376:Generated_Source\PSoC4/UART_DEB_UART.c ****         }
 377:Generated_Source\PSoC4/UART_DEB_UART.c ****     #endif /* (UART_DEB_TX_SCL_MISO_PIN_PIN) */
 378:Generated_Source\PSoC4/UART_DEB_UART.c **** 
 379:Generated_Source\PSoC4/UART_DEB_UART.c ****     #if !(UART_DEB_CY_SCBIP_V0 || UART_DEB_CY_SCBIP_V1)
 380:Generated_Source\PSoC4/UART_DEB_UART.c ****         #if (UART_DEB_RTS_SS0_PIN)
 381:Generated_Source\PSoC4/UART_DEB_UART.c ****             if (UART_DEB_CHECK_RTS_SS0_PIN_USED)
 382:Generated_Source\PSoC4/UART_DEB_UART.c ****             {
 383:Generated_Source\PSoC4/UART_DEB_UART.c ****                 /* Set output pin state after block is disabled */
 384:Generated_Source\PSoC4/UART_DEB_UART.c ****                 UART_DEB_uart_rts_spi_ss0_Write(UART_DEB_GET_UART_RTS_INACTIVE);
 385:Generated_Source\PSoC4/UART_DEB_UART.c **** 
 386:Generated_Source\PSoC4/UART_DEB_UART.c ****                 /* Set GPIO to drive output pin */
 387:Generated_Source\PSoC4/UART_DEB_UART.c ****                 UART_DEB_SET_HSIOM_SEL(UART_DEB_RTS_SS0_HSIOM_REG, UART_DEB_RTS_SS0_HSIOM_MASK,
 388:Generated_Source\PSoC4/UART_DEB_UART.c ****                                                UART_DEB_RTS_SS0_HSIOM_POS, UART_DEB_RTS_SS0_HSIOM_S
 389:Generated_Source\PSoC4/UART_DEB_UART.c ****             }
 390:Generated_Source\PSoC4/UART_DEB_UART.c ****         #endif /* (UART_DEB_RTS_SS0_PIN) */
 391:Generated_Source\PSoC4/UART_DEB_UART.c ****     #endif /* !(UART_DEB_CY_SCBIP_V0 || UART_DEB_CY_SCBIP_V1) */
 392:Generated_Source\PSoC4/UART_DEB_UART.c **** 
 393:Generated_Source\PSoC4/UART_DEB_UART.c **** #else
 394:Generated_Source\PSoC4/UART_DEB_UART.c ****     #if (UART_DEB_UART_TX_PIN)
 395:Generated_Source\PSoC4/UART_DEB_UART.c ****         /* Set GPIO to drive output pin */
 396:Generated_Source\PSoC4/UART_DEB_UART.c ****         UART_DEB_SET_HSIOM_SEL(UART_DEB_TX_HSIOM_REG, UART_DEB_TX_HSIOM_MASK,
 187              		.loc 1 396 0
 188 0000 064A     		ldr	r2, .L8
 189 0002 074B     		ldr	r3, .L8+4
 190 0004 1168     		ldr	r1, [r2]
 397:Generated_Source\PSoC4/UART_DEB_UART.c ****                                        UART_DEB_TX_HSIOM_POS, UART_DEB_TX_HSIOM_SEL_GPIO);
 398:Generated_Source\PSoC4/UART_DEB_UART.c ****     #endif /* (UART_DEB_UART_TX_PIN) */
 399:Generated_Source\PSoC4/UART_DEB_UART.c **** 
 400:Generated_Source\PSoC4/UART_DEB_UART.c ****     #if (UART_DEB_UART_RTS_PIN)
 401:Generated_Source\PSoC4/UART_DEB_UART.c ****         /* Set output pin state after block is disabled */
 402:Generated_Source\PSoC4/UART_DEB_UART.c ****         UART_DEB_rts_Write(UART_DEB_GET_UART_RTS_INACTIVE);
 403:Generated_Source\PSoC4/UART_DEB_UART.c **** 
 404:Generated_Source\PSoC4/UART_DEB_UART.c ****         /* Set GPIO to drive output pin */
 405:Generated_Source\PSoC4/UART_DEB_UART.c ****         UART_DEB_SET_HSIOM_SEL(UART_DEB_RTS_HSIOM_REG, UART_DEB_RTS_HSIOM_MASK,
 406:Generated_Source\PSoC4/UART_DEB_UART.c ****                                        UART_DEB_RTS_HSIOM_POS, UART_DEB_RTS_HSIOM_SEL_GPIO);
 407:Generated_Source\PSoC4/UART_DEB_UART.c ****     #endif /* (UART_DEB_UART_RTS_PIN) */
 408:Generated_Source\PSoC4/UART_DEB_UART.c **** 
 409:Generated_Source\PSoC4/UART_DEB_UART.c **** #endif /* (UART_DEB_SCB_MODE_UNCONFIG_CONST_CFG) */
 410:Generated_Source\PSoC4/UART_DEB_UART.c **** 
 411:Generated_Source\PSoC4/UART_DEB_UART.c **** #if (UART_DEB_UART_WAKE_ENABLE_CONST)
 412:Generated_Source\PSoC4/UART_DEB_UART.c ****     /* Disable skip start feature used for wakeup */
 413:Generated_Source\PSoC4/UART_DEB_UART.c ****     UART_DEB_UART_RX_CTRL_REG &= (uint32) ~UART_DEB_UART_RX_CTRL_SKIP_START;
 414:Generated_Source\PSoC4/UART_DEB_UART.c **** #endif /* (UART_DEB_UART_WAKE_ENABLE_CONST) */
ARM GAS  C:\Users\Xavier\AppData\Local\Temp\ccMUNkST.s 			page 12


 415:Generated_Source\PSoC4/UART_DEB_UART.c **** 
 416:Generated_Source\PSoC4/UART_DEB_UART.c ****     /* Store TX interrupt sources (exclude level triggered). */
 417:Generated_Source\PSoC4/UART_DEB_UART.c ****     UART_DEB_IntrTxMask = LO16(UART_DEB_GetTxInterruptMode() & UART_DEB_INTR_UART_TX_RESTORE);
 418:Generated_Source\PSoC4/UART_DEB_UART.c **** }
 191              		.loc 1 418 0
 192              		@ sp needed
 396:Generated_Source\PSoC4/UART_DEB_UART.c ****                                        UART_DEB_TX_HSIOM_POS, UART_DEB_TX_HSIOM_SEL_GPIO);
 193              		.loc 1 396 0
 194 0006 0B40     		ands	r3, r1
 195 0008 1360     		str	r3, [r2]
 417:Generated_Source\PSoC4/UART_DEB_UART.c **** }
 196              		.loc 1 417 0
 197 000a 064B     		ldr	r3, .L8+8
 198 000c 1A68     		ldr	r2, [r3]
 199 000e E423     		movs	r3, #228
 200 0010 DB00     		lsls	r3, r3, #3
 201 0012 1340     		ands	r3, r2
 202 0014 044A     		ldr	r2, .L8+12
 203 0016 1380     		strh	r3, [r2]
 204              		.loc 1 418 0
 205 0018 7047     		bx	lr
 206              	.L9:
 207 001a C046     		.align	2
 208              	.L8:
 209 001c 00010240 		.word	1073873152
 210 0020 FFFF0FFF 		.word	-15728641
 211 0024 880F2440 		.word	1076105096
 212 0028 00000000 		.word	UART_DEB_IntrTxMask
 213              		.cfi_endproc
 214              	.LFE4:
 215              		.size	UART_DEB_UartStop, .-UART_DEB_UartStop
 216              		.section	.text.UART_DEB_UartSetRxAddress,"ax",%progbits
 217              		.align	1
 218              		.global	UART_DEB_UartSetRxAddress
 219              		.code	16
 220              		.thumb_func
 221              		.type	UART_DEB_UartSetRxAddress, %function
 222              	UART_DEB_UartSetRxAddress:
 223              	.LFB5:
 419:Generated_Source\PSoC4/UART_DEB_UART.c **** 
 420:Generated_Source\PSoC4/UART_DEB_UART.c **** 
 421:Generated_Source\PSoC4/UART_DEB_UART.c **** /*******************************************************************************
 422:Generated_Source\PSoC4/UART_DEB_UART.c **** * Function Name: UART_DEB_UartSetRxAddress
 423:Generated_Source\PSoC4/UART_DEB_UART.c **** ****************************************************************************//**
 424:Generated_Source\PSoC4/UART_DEB_UART.c **** *
 425:Generated_Source\PSoC4/UART_DEB_UART.c **** *  Sets the hardware detectable receiver address for the UART in the
 426:Generated_Source\PSoC4/UART_DEB_UART.c **** *  Multiprocessor mode.
 427:Generated_Source\PSoC4/UART_DEB_UART.c **** *
 428:Generated_Source\PSoC4/UART_DEB_UART.c **** *  \param address: Address for hardware address detection.
 429:Generated_Source\PSoC4/UART_DEB_UART.c **** *
 430:Generated_Source\PSoC4/UART_DEB_UART.c **** *******************************************************************************/
 431:Generated_Source\PSoC4/UART_DEB_UART.c **** void UART_DEB_UartSetRxAddress(uint32 address)
 432:Generated_Source\PSoC4/UART_DEB_UART.c **** {
 224              		.loc 1 432 0
 225              		.cfi_startproc
 226              		@ args = 0, pretend = 0, frame = 0
 227              		@ frame_needed = 0, uses_anonymous_args = 0
ARM GAS  C:\Users\Xavier\AppData\Local\Temp\ccMUNkST.s 			page 13


 228              		@ link register save eliminated.
 229              	.LVL0:
 433:Generated_Source\PSoC4/UART_DEB_UART.c ****      uint32 matchReg;
 434:Generated_Source\PSoC4/UART_DEB_UART.c **** 
 435:Generated_Source\PSoC4/UART_DEB_UART.c ****     matchReg = UART_DEB_RX_MATCH_REG;
 436:Generated_Source\PSoC4/UART_DEB_UART.c **** 
 437:Generated_Source\PSoC4/UART_DEB_UART.c ****     matchReg &= ((uint32) ~UART_DEB_RX_MATCH_ADDR_MASK); /* Clear address bits */
 230              		.loc 1 437 0
 231 0000 FF22     		movs	r2, #255
 435:Generated_Source\PSoC4/UART_DEB_UART.c **** 
 232              		.loc 1 435 0
 233 0002 0349     		ldr	r1, .L11
 438:Generated_Source\PSoC4/UART_DEB_UART.c ****     matchReg |= ((uint32)  (address & UART_DEB_RX_MATCH_ADDR_MASK)); /* Set address  */
 234              		.loc 1 438 0
 235 0004 1040     		ands	r0, r2
 236              	.LVL1:
 435:Generated_Source\PSoC4/UART_DEB_UART.c **** 
 237              		.loc 1 435 0
 238 0006 0B68     		ldr	r3, [r1]
 239              	.LVL2:
 439:Generated_Source\PSoC4/UART_DEB_UART.c **** 
 440:Generated_Source\PSoC4/UART_DEB_UART.c ****     UART_DEB_RX_MATCH_REG = matchReg;
 441:Generated_Source\PSoC4/UART_DEB_UART.c **** }
 240              		.loc 1 441 0
 241              		@ sp needed
 437:Generated_Source\PSoC4/UART_DEB_UART.c ****     matchReg |= ((uint32)  (address & UART_DEB_RX_MATCH_ADDR_MASK)); /* Set address  */
 242              		.loc 1 437 0
 243 0008 9343     		bics	r3, r2
 244              	.LVL3:
 438:Generated_Source\PSoC4/UART_DEB_UART.c ****     matchReg |= ((uint32)  (address & UART_DEB_RX_MATCH_ADDR_MASK)); /* Set address  */
 245              		.loc 1 438 0
 246 000a 1843     		orrs	r0, r3
 247              	.LVL4:
 440:Generated_Source\PSoC4/UART_DEB_UART.c **** }
 248              		.loc 1 440 0
 249 000c 0860     		str	r0, [r1]
 250              		.loc 1 441 0
 251 000e 7047     		bx	lr
 252              	.L12:
 253              		.align	2
 254              	.L11:
 255 0010 10032440 		.word	1076101904
 256              		.cfi_endproc
 257              	.LFE5:
 258              		.size	UART_DEB_UartSetRxAddress, .-UART_DEB_UartSetRxAddress
 259              		.section	.text.UART_DEB_UartSetRxAddressMask,"ax",%progbits
 260              		.align	1
 261              		.global	UART_DEB_UartSetRxAddressMask
 262              		.code	16
 263              		.thumb_func
 264              		.type	UART_DEB_UartSetRxAddressMask, %function
 265              	UART_DEB_UartSetRxAddressMask:
 266              	.LFB6:
 442:Generated_Source\PSoC4/UART_DEB_UART.c **** 
 443:Generated_Source\PSoC4/UART_DEB_UART.c **** 
 444:Generated_Source\PSoC4/UART_DEB_UART.c **** /*******************************************************************************
 445:Generated_Source\PSoC4/UART_DEB_UART.c **** * Function Name: UART_DEB_UartSetRxAddressMask
ARM GAS  C:\Users\Xavier\AppData\Local\Temp\ccMUNkST.s 			page 14


 446:Generated_Source\PSoC4/UART_DEB_UART.c **** ****************************************************************************//**
 447:Generated_Source\PSoC4/UART_DEB_UART.c **** *
 448:Generated_Source\PSoC4/UART_DEB_UART.c **** *  Sets the hardware address mask for the UART in the Multiprocessor mode.
 449:Generated_Source\PSoC4/UART_DEB_UART.c **** *
 450:Generated_Source\PSoC4/UART_DEB_UART.c **** *  \param addressMask: Address mask.
 451:Generated_Source\PSoC4/UART_DEB_UART.c **** *   - Bit value 0 – excludes bit from address comparison.
 452:Generated_Source\PSoC4/UART_DEB_UART.c **** *   - Bit value 1 – the bit needs to match with the corresponding bit
 453:Generated_Source\PSoC4/UART_DEB_UART.c **** *     of the address.
 454:Generated_Source\PSoC4/UART_DEB_UART.c **** *
 455:Generated_Source\PSoC4/UART_DEB_UART.c **** *******************************************************************************/
 456:Generated_Source\PSoC4/UART_DEB_UART.c **** void UART_DEB_UartSetRxAddressMask(uint32 addressMask)
 457:Generated_Source\PSoC4/UART_DEB_UART.c **** {
 267              		.loc 1 457 0
 268              		.cfi_startproc
 269              		@ args = 0, pretend = 0, frame = 0
 270              		@ frame_needed = 0, uses_anonymous_args = 0
 271              		@ link register save eliminated.
 272              	.LVL5:
 458:Generated_Source\PSoC4/UART_DEB_UART.c ****     uint32 matchReg;
 459:Generated_Source\PSoC4/UART_DEB_UART.c **** 
 460:Generated_Source\PSoC4/UART_DEB_UART.c ****     matchReg = UART_DEB_RX_MATCH_REG;
 273              		.loc 1 460 0
 274 0000 034A     		ldr	r2, .L14
 461:Generated_Source\PSoC4/UART_DEB_UART.c **** 
 462:Generated_Source\PSoC4/UART_DEB_UART.c ****     matchReg &= ((uint32) ~UART_DEB_RX_MATCH_MASK_MASK); /* Clear address mask bits */
 275              		.loc 1 462 0
 276 0002 044B     		ldr	r3, .L14+4
 460:Generated_Source\PSoC4/UART_DEB_UART.c **** 
 277              		.loc 1 460 0
 278 0004 1168     		ldr	r1, [r2]
 279              	.LVL6:
 463:Generated_Source\PSoC4/UART_DEB_UART.c ****     matchReg |= ((uint32) (addressMask << UART_DEB_RX_MATCH_MASK_POS));
 280              		.loc 1 463 0
 281 0006 0004     		lsls	r0, r0, #16
 282              	.LVL7:
 462:Generated_Source\PSoC4/UART_DEB_UART.c ****     matchReg |= ((uint32) (addressMask << UART_DEB_RX_MATCH_MASK_POS));
 283              		.loc 1 462 0
 284 0008 0B40     		ands	r3, r1
 285              	.LVL8:
 286              		.loc 1 463 0
 287 000a 1843     		orrs	r0, r3
 288              	.LVL9:
 464:Generated_Source\PSoC4/UART_DEB_UART.c **** 
 465:Generated_Source\PSoC4/UART_DEB_UART.c ****     UART_DEB_RX_MATCH_REG = matchReg;
 289              		.loc 1 465 0
 290 000c 1060     		str	r0, [r2]
 466:Generated_Source\PSoC4/UART_DEB_UART.c **** }
 291              		.loc 1 466 0
 292              		@ sp needed
 293 000e 7047     		bx	lr
 294              	.L15:
 295              		.align	2
 296              	.L14:
 297 0010 10032440 		.word	1076101904
 298 0014 FFFF00FF 		.word	-16711681
 299              		.cfi_endproc
 300              	.LFE6:
ARM GAS  C:\Users\Xavier\AppData\Local\Temp\ccMUNkST.s 			page 15


 301              		.size	UART_DEB_UartSetRxAddressMask, .-UART_DEB_UartSetRxAddressMask
 302              		.section	.text.UART_DEB_UartGetChar,"ax",%progbits
 303              		.align	1
 304              		.global	UART_DEB_UartGetChar
 305              		.code	16
 306              		.thumb_func
 307              		.type	UART_DEB_UartGetChar, %function
 308              	UART_DEB_UartGetChar:
 309              	.LFB7:
 467:Generated_Source\PSoC4/UART_DEB_UART.c **** 
 468:Generated_Source\PSoC4/UART_DEB_UART.c **** 
 469:Generated_Source\PSoC4/UART_DEB_UART.c **** #if(UART_DEB_UART_RX_DIRECTION)
 470:Generated_Source\PSoC4/UART_DEB_UART.c ****     /*******************************************************************************
 471:Generated_Source\PSoC4/UART_DEB_UART.c ****     * Function Name: UART_DEB_UartGetChar
 472:Generated_Source\PSoC4/UART_DEB_UART.c ****     ****************************************************************************//**
 473:Generated_Source\PSoC4/UART_DEB_UART.c ****     *
 474:Generated_Source\PSoC4/UART_DEB_UART.c ****     *  Retrieves next data element from receive buffer.
 475:Generated_Source\PSoC4/UART_DEB_UART.c ****     *  This function is designed for ASCII characters and returns a char where
 476:Generated_Source\PSoC4/UART_DEB_UART.c ****     *  1 to 255 are valid characters and 0 indicates an error occurred or no data
 477:Generated_Source\PSoC4/UART_DEB_UART.c ****     *  is present.
 478:Generated_Source\PSoC4/UART_DEB_UART.c ****     *  - RX software buffer is disabled: Returns data element retrieved from RX
 479:Generated_Source\PSoC4/UART_DEB_UART.c ****     *    FIFO.
 480:Generated_Source\PSoC4/UART_DEB_UART.c ****     *  - RX software buffer is enabled: Returns data element from the software
 481:Generated_Source\PSoC4/UART_DEB_UART.c ****     *    receive buffer.
 482:Generated_Source\PSoC4/UART_DEB_UART.c ****     *
 483:Generated_Source\PSoC4/UART_DEB_UART.c ****     *  \return
 484:Generated_Source\PSoC4/UART_DEB_UART.c ****     *   Next data element from the receive buffer. ASCII character values from
 485:Generated_Source\PSoC4/UART_DEB_UART.c ****     *   1 to 255 are valid. A returned zero signifies an error condition or no
 486:Generated_Source\PSoC4/UART_DEB_UART.c ****     *   data available.
 487:Generated_Source\PSoC4/UART_DEB_UART.c ****     *
 488:Generated_Source\PSoC4/UART_DEB_UART.c ****     *  \sideeffect
 489:Generated_Source\PSoC4/UART_DEB_UART.c ****     *   The errors bits may not correspond with reading characters due to
 490:Generated_Source\PSoC4/UART_DEB_UART.c ****     *   RX FIFO and software buffer usage.
 491:Generated_Source\PSoC4/UART_DEB_UART.c ****     *   RX software buffer is enabled: The internal software buffer overflow
 492:Generated_Source\PSoC4/UART_DEB_UART.c ****     *   is not treated as an error condition.
 493:Generated_Source\PSoC4/UART_DEB_UART.c ****     *   Check UART_DEB_rxBufferOverflow to capture that error condition.
 494:Generated_Source\PSoC4/UART_DEB_UART.c ****     *
 495:Generated_Source\PSoC4/UART_DEB_UART.c ****     *******************************************************************************/
 496:Generated_Source\PSoC4/UART_DEB_UART.c ****     uint32 UART_DEB_UartGetChar(void)
 497:Generated_Source\PSoC4/UART_DEB_UART.c ****     {
 310              		.loc 1 497 0
 311              		.cfi_startproc
 312              		@ args = 0, pretend = 0, frame = 0
 313              		@ frame_needed = 0, uses_anonymous_args = 0
 314              	.LVL10:
 315 0000 10B5     		push	{r4, lr}
 316              		.cfi_def_cfa_offset 8
 317              		.cfi_offset 4, -8
 318              		.cfi_offset 14, -4
 498:Generated_Source\PSoC4/UART_DEB_UART.c ****         uint32 rxData = 0u;
 499:Generated_Source\PSoC4/UART_DEB_UART.c **** 
 500:Generated_Source\PSoC4/UART_DEB_UART.c ****         /* Reads data only if there is data to read */
 501:Generated_Source\PSoC4/UART_DEB_UART.c ****         if (0u != UART_DEB_SpiUartGetRxBufferSize())
 319              		.loc 1 501 0
 320 0002 FFF7FEFF 		bl	UART_DEB_SpiUartGetRxBufferSize
 321              	.LVL11:
 322 0006 0300     		movs	r3, r0
ARM GAS  C:\Users\Xavier\AppData\Local\Temp\ccMUNkST.s 			page 16


 498:Generated_Source\PSoC4/UART_DEB_UART.c ****         uint32 rxData = 0u;
 323              		.loc 1 498 0
 324 0008 0020     		movs	r0, #0
 325              		.loc 1 501 0
 326 000a 8342     		cmp	r3, r0
 327 000c 01D0     		beq	.L17
 502:Generated_Source\PSoC4/UART_DEB_UART.c ****         {
 503:Generated_Source\PSoC4/UART_DEB_UART.c ****             rxData = UART_DEB_SpiUartReadRxData();
 328              		.loc 1 503 0
 329 000e FFF7FEFF 		bl	UART_DEB_SpiUartReadRxData
 330              	.LVL12:
 331              	.L17:
 504:Generated_Source\PSoC4/UART_DEB_UART.c ****         }
 505:Generated_Source\PSoC4/UART_DEB_UART.c **** 
 506:Generated_Source\PSoC4/UART_DEB_UART.c ****         if (UART_DEB_CHECK_INTR_RX(UART_DEB_INTR_RX_ERR))
 332              		.loc 1 506 0
 333 0012 D822     		movs	r2, #216
 334 0014 034B     		ldr	r3, .L25
 335 0016 9200     		lsls	r2, r2, #2
 336 0018 1968     		ldr	r1, [r3]
 337 001a 1142     		tst	r1, r2
 338 001c 01D0     		beq	.L18
 339              	.LVL13:
 507:Generated_Source\PSoC4/UART_DEB_UART.c ****         {
 508:Generated_Source\PSoC4/UART_DEB_UART.c ****             rxData = 0u; /* Error occurred: returns zero */
 340              		.loc 1 508 0
 341 001e 0020     		movs	r0, #0
 509:Generated_Source\PSoC4/UART_DEB_UART.c ****             UART_DEB_ClearRxInterruptSource(UART_DEB_INTR_RX_ERR);
 342              		.loc 1 509 0
 343 0020 1A60     		str	r2, [r3]
 344              	.LVL14:
 345              	.L18:
 510:Generated_Source\PSoC4/UART_DEB_UART.c ****         }
 511:Generated_Source\PSoC4/UART_DEB_UART.c **** 
 512:Generated_Source\PSoC4/UART_DEB_UART.c ****         return (rxData);
 513:Generated_Source\PSoC4/UART_DEB_UART.c ****     }
 346              		.loc 1 513 0
 347              		@ sp needed
 348 0022 10BD     		pop	{r4, pc}
 349              	.L26:
 350              		.align	2
 351              	.L25:
 352 0024 C00F2440 		.word	1076105152
 353              		.cfi_endproc
 354              	.LFE7:
 355              		.size	UART_DEB_UartGetChar, .-UART_DEB_UartGetChar
 356              		.section	.text.UART_DEB_UartGetByte,"ax",%progbits
 357              		.align	1
 358              		.global	UART_DEB_UartGetByte
 359              		.code	16
 360              		.thumb_func
 361              		.type	UART_DEB_UartGetByte, %function
 362              	UART_DEB_UartGetByte:
 363              	.LFB8:
 514:Generated_Source\PSoC4/UART_DEB_UART.c **** 
 515:Generated_Source\PSoC4/UART_DEB_UART.c **** 
 516:Generated_Source\PSoC4/UART_DEB_UART.c ****     /*******************************************************************************
ARM GAS  C:\Users\Xavier\AppData\Local\Temp\ccMUNkST.s 			page 17


 517:Generated_Source\PSoC4/UART_DEB_UART.c ****     * Function Name: UART_DEB_UartGetByte
 518:Generated_Source\PSoC4/UART_DEB_UART.c ****     ****************************************************************************//**
 519:Generated_Source\PSoC4/UART_DEB_UART.c ****     *
 520:Generated_Source\PSoC4/UART_DEB_UART.c ****     *  Retrieves the next data element from the receive buffer, returns the
 521:Generated_Source\PSoC4/UART_DEB_UART.c ****     *  received byte and error condition.
 522:Generated_Source\PSoC4/UART_DEB_UART.c ****     *   - The RX software buffer is disabled: returns the data element retrieved
 523:Generated_Source\PSoC4/UART_DEB_UART.c ****     *     from the RX FIFO. Undefined data will be returned if the RX FIFO is
 524:Generated_Source\PSoC4/UART_DEB_UART.c ****     *     empty.
 525:Generated_Source\PSoC4/UART_DEB_UART.c ****     *   - The RX software buffer is enabled: returns data element from the
 526:Generated_Source\PSoC4/UART_DEB_UART.c ****     *     software receive buffer.
 527:Generated_Source\PSoC4/UART_DEB_UART.c ****     *
 528:Generated_Source\PSoC4/UART_DEB_UART.c ****     *  \return
 529:Generated_Source\PSoC4/UART_DEB_UART.c ****     *   Bits 7-0 contain the next data element from the receive buffer and
 530:Generated_Source\PSoC4/UART_DEB_UART.c ****     *   other bits contain the error condition.
 531:Generated_Source\PSoC4/UART_DEB_UART.c ****     *   - UART_DEB_UART_RX_OVERFLOW - Attempt to write to a full
 532:Generated_Source\PSoC4/UART_DEB_UART.c ****     *     receiver FIFO.
 533:Generated_Source\PSoC4/UART_DEB_UART.c ****     *   - UART_DEB_UART_RX_UNDERFLOW	Attempt to read from an empty
 534:Generated_Source\PSoC4/UART_DEB_UART.c ****     *     receiver FIFO.
 535:Generated_Source\PSoC4/UART_DEB_UART.c ****     *   - UART_DEB_UART_RX_FRAME_ERROR - UART framing error detected.
 536:Generated_Source\PSoC4/UART_DEB_UART.c ****     *   - UART_DEB_UART_RX_PARITY_ERROR - UART parity error detected.
 537:Generated_Source\PSoC4/UART_DEB_UART.c ****     *
 538:Generated_Source\PSoC4/UART_DEB_UART.c ****     *  \sideeffect
 539:Generated_Source\PSoC4/UART_DEB_UART.c ****     *   The errors bits may not correspond with reading characters due to
 540:Generated_Source\PSoC4/UART_DEB_UART.c ****     *   RX FIFO and software buffer usage.
 541:Generated_Source\PSoC4/UART_DEB_UART.c ****     *   RX software buffer is enabled: The internal software buffer overflow
 542:Generated_Source\PSoC4/UART_DEB_UART.c ****     *   is not treated as an error condition.
 543:Generated_Source\PSoC4/UART_DEB_UART.c ****     *   Check UART_DEB_rxBufferOverflow to capture that error condition.
 544:Generated_Source\PSoC4/UART_DEB_UART.c ****     *
 545:Generated_Source\PSoC4/UART_DEB_UART.c ****     *******************************************************************************/
 546:Generated_Source\PSoC4/UART_DEB_UART.c ****     uint32 UART_DEB_UartGetByte(void)
 547:Generated_Source\PSoC4/UART_DEB_UART.c ****     {
 364              		.loc 1 547 0
 365              		.cfi_startproc
 366              		@ args = 0, pretend = 0, frame = 0
 367              		@ frame_needed = 0, uses_anonymous_args = 0
 368 0000 10B5     		push	{r4, lr}
 369              		.cfi_def_cfa_offset 8
 370              		.cfi_offset 4, -8
 371              		.cfi_offset 14, -4
 548:Generated_Source\PSoC4/UART_DEB_UART.c ****         uint32 rxData;
 549:Generated_Source\PSoC4/UART_DEB_UART.c ****         uint32 tmpStatus;
 550:Generated_Source\PSoC4/UART_DEB_UART.c **** 
 551:Generated_Source\PSoC4/UART_DEB_UART.c ****         #if (UART_DEB_CHECK_RX_SW_BUFFER)
 552:Generated_Source\PSoC4/UART_DEB_UART.c ****         {
 553:Generated_Source\PSoC4/UART_DEB_UART.c ****             UART_DEB_DisableInt();
 554:Generated_Source\PSoC4/UART_DEB_UART.c ****         }
 555:Generated_Source\PSoC4/UART_DEB_UART.c ****         #endif
 556:Generated_Source\PSoC4/UART_DEB_UART.c **** 
 557:Generated_Source\PSoC4/UART_DEB_UART.c ****         if (0u != UART_DEB_SpiUartGetRxBufferSize())
 372              		.loc 1 557 0
 373 0002 FFF7FEFF 		bl	UART_DEB_SpiUartGetRxBufferSize
 374              	.LVL15:
 375 0006 0028     		cmp	r0, #0
 376 0008 02D0     		beq	.L28
 558:Generated_Source\PSoC4/UART_DEB_UART.c ****         {
 559:Generated_Source\PSoC4/UART_DEB_UART.c ****             /* Enables interrupt to receive more bytes: at least one byte is in
 560:Generated_Source\PSoC4/UART_DEB_UART.c ****             * buffer.
ARM GAS  C:\Users\Xavier\AppData\Local\Temp\ccMUNkST.s 			page 18


 561:Generated_Source\PSoC4/UART_DEB_UART.c ****             */
 562:Generated_Source\PSoC4/UART_DEB_UART.c ****             #if (UART_DEB_CHECK_RX_SW_BUFFER)
 563:Generated_Source\PSoC4/UART_DEB_UART.c ****             {
 564:Generated_Source\PSoC4/UART_DEB_UART.c ****                 UART_DEB_EnableInt();
 565:Generated_Source\PSoC4/UART_DEB_UART.c ****             }
 566:Generated_Source\PSoC4/UART_DEB_UART.c ****             #endif
 567:Generated_Source\PSoC4/UART_DEB_UART.c **** 
 568:Generated_Source\PSoC4/UART_DEB_UART.c ****             /* Get received byte */
 569:Generated_Source\PSoC4/UART_DEB_UART.c ****             rxData = UART_DEB_SpiUartReadRxData();
 377              		.loc 1 569 0
 378 000a FFF7FEFF 		bl	UART_DEB_SpiUartReadRxData
 379              	.LVL16:
 380 000e 01E0     		b	.L29
 381              	.LVL17:
 382              	.L28:
 570:Generated_Source\PSoC4/UART_DEB_UART.c ****         }
 571:Generated_Source\PSoC4/UART_DEB_UART.c ****         else
 572:Generated_Source\PSoC4/UART_DEB_UART.c ****         {
 573:Generated_Source\PSoC4/UART_DEB_UART.c ****             /* Reads a byte directly from RX FIFO: underflow is raised in the
 574:Generated_Source\PSoC4/UART_DEB_UART.c ****             * case of empty. Otherwise the first received byte will be read.
 575:Generated_Source\PSoC4/UART_DEB_UART.c ****             */
 576:Generated_Source\PSoC4/UART_DEB_UART.c ****             rxData = UART_DEB_RX_FIFO_RD_REG;
 383              		.loc 1 576 0
 384 0010 064B     		ldr	r3, .L30
 385 0012 1868     		ldr	r0, [r3]
 386              	.LVL18:
 387              	.L29:
 577:Generated_Source\PSoC4/UART_DEB_UART.c **** 
 578:Generated_Source\PSoC4/UART_DEB_UART.c **** 
 579:Generated_Source\PSoC4/UART_DEB_UART.c ****             /* Enables interrupt to receive more bytes. */
 580:Generated_Source\PSoC4/UART_DEB_UART.c ****             #if (UART_DEB_CHECK_RX_SW_BUFFER)
 581:Generated_Source\PSoC4/UART_DEB_UART.c ****             {
 582:Generated_Source\PSoC4/UART_DEB_UART.c **** 
 583:Generated_Source\PSoC4/UART_DEB_UART.c ****                 /* The byte has been read from RX FIFO. Clear RX interrupt to
 584:Generated_Source\PSoC4/UART_DEB_UART.c ****                 * not involve interrupt handler when RX FIFO is empty.
 585:Generated_Source\PSoC4/UART_DEB_UART.c ****                 */
 586:Generated_Source\PSoC4/UART_DEB_UART.c ****                 UART_DEB_ClearRxInterruptSource(UART_DEB_INTR_RX_NOT_EMPTY);
 587:Generated_Source\PSoC4/UART_DEB_UART.c **** 
 588:Generated_Source\PSoC4/UART_DEB_UART.c ****                 UART_DEB_EnableInt();
 589:Generated_Source\PSoC4/UART_DEB_UART.c ****             }
 590:Generated_Source\PSoC4/UART_DEB_UART.c ****             #endif
 591:Generated_Source\PSoC4/UART_DEB_UART.c ****         }
 592:Generated_Source\PSoC4/UART_DEB_UART.c **** 
 593:Generated_Source\PSoC4/UART_DEB_UART.c ****         /* Get and clear RX error mask */
 594:Generated_Source\PSoC4/UART_DEB_UART.c ****         tmpStatus = (UART_DEB_GetRxInterruptSource() & UART_DEB_INTR_RX_ERR);
 595:Generated_Source\PSoC4/UART_DEB_UART.c ****         UART_DEB_ClearRxInterruptSource(UART_DEB_INTR_RX_ERR);
 388              		.loc 1 595 0
 389 0014 D821     		movs	r1, #216
 594:Generated_Source\PSoC4/UART_DEB_UART.c ****         UART_DEB_ClearRxInterruptSource(UART_DEB_INTR_RX_ERR);
 390              		.loc 1 594 0
 391 0016 064A     		ldr	r2, .L30+4
 392              		.loc 1 595 0
 393 0018 8900     		lsls	r1, r1, #2
 594:Generated_Source\PSoC4/UART_DEB_UART.c ****         UART_DEB_ClearRxInterruptSource(UART_DEB_INTR_RX_ERR);
 394              		.loc 1 594 0
 395 001a 1368     		ldr	r3, [r2]
 396              	.LVL19:
ARM GAS  C:\Users\Xavier\AppData\Local\Temp\ccMUNkST.s 			page 19


 397              		.loc 1 595 0
 398 001c 1160     		str	r1, [r2]
 399              	.LVL20:
 596:Generated_Source\PSoC4/UART_DEB_UART.c **** 
 597:Generated_Source\PSoC4/UART_DEB_UART.c ****         /* Puts together data and error status:
 598:Generated_Source\PSoC4/UART_DEB_UART.c ****         * MP mode and accept address: 9th bit is set to notify mark.
 599:Generated_Source\PSoC4/UART_DEB_UART.c ****         */
 600:Generated_Source\PSoC4/UART_DEB_UART.c ****         rxData |= ((uint32) (tmpStatus << 8u));
 601:Generated_Source\PSoC4/UART_DEB_UART.c **** 
 602:Generated_Source\PSoC4/UART_DEB_UART.c ****         return (rxData);
 400              		.loc 1 602 0
 401 001e D822     		movs	r2, #216
 402 0020 1B02     		lsls	r3, r3, #8
 403              	.LVL21:
 404 0022 9202     		lsls	r2, r2, #10
 405 0024 1340     		ands	r3, r2
 406 0026 1843     		orrs	r0, r3
 603:Generated_Source\PSoC4/UART_DEB_UART.c ****     }
 407              		.loc 1 603 0
 408              		@ sp needed
 409 0028 10BD     		pop	{r4, pc}
 410              	.L31:
 411 002a C046     		.align	2
 412              	.L30:
 413 002c 40032440 		.word	1076101952
 414 0030 C00F2440 		.word	1076105152
 415              		.cfi_endproc
 416              	.LFE8:
 417              		.size	UART_DEB_UartGetByte, .-UART_DEB_UartGetByte
 418              		.section	.text.UART_DEB_UartSetRtsPolarity,"ax",%progbits
 419              		.align	1
 420              		.global	UART_DEB_UartSetRtsPolarity
 421              		.code	16
 422              		.thumb_func
 423              		.type	UART_DEB_UartSetRtsPolarity, %function
 424              	UART_DEB_UartSetRtsPolarity:
 425              	.LFB9:
 604:Generated_Source\PSoC4/UART_DEB_UART.c **** 
 605:Generated_Source\PSoC4/UART_DEB_UART.c **** 
 606:Generated_Source\PSoC4/UART_DEB_UART.c ****     #if !(UART_DEB_CY_SCBIP_V0 || UART_DEB_CY_SCBIP_V1)
 607:Generated_Source\PSoC4/UART_DEB_UART.c ****         /*******************************************************************************
 608:Generated_Source\PSoC4/UART_DEB_UART.c ****         * Function Name: UART_DEB_UartSetRtsPolarity
 609:Generated_Source\PSoC4/UART_DEB_UART.c ****         ****************************************************************************//**
 610:Generated_Source\PSoC4/UART_DEB_UART.c ****         *
 611:Generated_Source\PSoC4/UART_DEB_UART.c ****         *  Sets active polarity of RTS output signal.
 612:Generated_Source\PSoC4/UART_DEB_UART.c ****         *  Only available for PSoC 4100 BLE / PSoC 4200 BLE / PSoC 4100M / PSoC 4200M /
 613:Generated_Source\PSoC4/UART_DEB_UART.c ****         *  PSoC 4200L / PSoC 4000S / PSoC 4100S / PSoC Analog Coprocessor devices.
 614:Generated_Source\PSoC4/UART_DEB_UART.c ****         *
 615:Generated_Source\PSoC4/UART_DEB_UART.c ****         *  \param polarity: Active polarity of RTS output signal.
 616:Generated_Source\PSoC4/UART_DEB_UART.c ****         *   - UART_DEB_UART_RTS_ACTIVE_LOW  - RTS signal is active low.
 617:Generated_Source\PSoC4/UART_DEB_UART.c ****         *   - UART_DEB_UART_RTS_ACTIVE_HIGH - RTS signal is active high.
 618:Generated_Source\PSoC4/UART_DEB_UART.c ****         *
 619:Generated_Source\PSoC4/UART_DEB_UART.c ****         *******************************************************************************/
 620:Generated_Source\PSoC4/UART_DEB_UART.c ****         void UART_DEB_UartSetRtsPolarity(uint32 polarity)
 621:Generated_Source\PSoC4/UART_DEB_UART.c ****         {
 426              		.loc 1 621 0
 427              		.cfi_startproc
ARM GAS  C:\Users\Xavier\AppData\Local\Temp\ccMUNkST.s 			page 20


 428              		@ args = 0, pretend = 0, frame = 0
 429              		@ frame_needed = 0, uses_anonymous_args = 0
 430              		@ link register save eliminated.
 431              	.LVL22:
 432 0000 064B     		ldr	r3, .L36
 622:Generated_Source\PSoC4/UART_DEB_UART.c ****             if(0u != polarity)
 433              		.loc 1 622 0
 434 0002 0028     		cmp	r0, #0
 435 0004 04D0     		beq	.L33
 623:Generated_Source\PSoC4/UART_DEB_UART.c ****             {
 624:Generated_Source\PSoC4/UART_DEB_UART.c ****                 UART_DEB_UART_FLOW_CTRL_REG |= (uint32)  UART_DEB_UART_FLOW_CTRL_RTS_POLARITY;
 436              		.loc 1 624 0
 437 0006 8021     		movs	r1, #128
 438 0008 1A68     		ldr	r2, [r3]
 439 000a 4902     		lsls	r1, r1, #9
 440 000c 0A43     		orrs	r2, r1
 441 000e 02E0     		b	.L35
 442              	.L33:
 625:Generated_Source\PSoC4/UART_DEB_UART.c ****             }
 626:Generated_Source\PSoC4/UART_DEB_UART.c ****             else
 627:Generated_Source\PSoC4/UART_DEB_UART.c ****             {
 628:Generated_Source\PSoC4/UART_DEB_UART.c ****                 UART_DEB_UART_FLOW_CTRL_REG &= (uint32) ~UART_DEB_UART_FLOW_CTRL_RTS_POLARITY;
 443              		.loc 1 628 0
 444 0010 1968     		ldr	r1, [r3]
 445 0012 034A     		ldr	r2, .L36+4
 446 0014 0A40     		ands	r2, r1
 447              	.L35:
 448 0016 1A60     		str	r2, [r3]
 629:Generated_Source\PSoC4/UART_DEB_UART.c ****             }
 630:Generated_Source\PSoC4/UART_DEB_UART.c ****         }
 449              		.loc 1 630 0
 450              		@ sp needed
 451 0018 7047     		bx	lr
 452              	.L37:
 453 001a C046     		.align	2
 454              	.L36:
 455 001c 50002440 		.word	1076101200
 456 0020 FFFFFEFF 		.word	-65537
 457              		.cfi_endproc
 458              	.LFE9:
 459              		.size	UART_DEB_UartSetRtsPolarity, .-UART_DEB_UartSetRtsPolarity
 460              		.section	.text.UART_DEB_UartSetRtsFifoLevel,"ax",%progbits
 461              		.align	1
 462              		.global	UART_DEB_UartSetRtsFifoLevel
 463              		.code	16
 464              		.thumb_func
 465              		.type	UART_DEB_UartSetRtsFifoLevel, %function
 466              	UART_DEB_UartSetRtsFifoLevel:
 467              	.LFB10:
 631:Generated_Source\PSoC4/UART_DEB_UART.c **** 
 632:Generated_Source\PSoC4/UART_DEB_UART.c **** 
 633:Generated_Source\PSoC4/UART_DEB_UART.c ****         /*******************************************************************************
 634:Generated_Source\PSoC4/UART_DEB_UART.c ****         * Function Name: UART_DEB_UartSetRtsFifoLevel
 635:Generated_Source\PSoC4/UART_DEB_UART.c ****         ****************************************************************************//**
 636:Generated_Source\PSoC4/UART_DEB_UART.c ****         *
 637:Generated_Source\PSoC4/UART_DEB_UART.c ****         *  Sets level in the RX FIFO for RTS signal activation.
 638:Generated_Source\PSoC4/UART_DEB_UART.c ****         *  While the RX FIFO has fewer entries than the RX FIFO level the RTS signal
ARM GAS  C:\Users\Xavier\AppData\Local\Temp\ccMUNkST.s 			page 21


 639:Generated_Source\PSoC4/UART_DEB_UART.c ****         *  remains active, otherwise the RTS signal becomes inactive.
 640:Generated_Source\PSoC4/UART_DEB_UART.c ****         *  Only available for PSoC 4100 BLE / PSoC 4200 BLE / PSoC 4100M / PSoC 4200M /
 641:Generated_Source\PSoC4/UART_DEB_UART.c ****         *  PSoC 4200L / PSoC 4000S / PSoC 4100S / PSoC Analog Coprocessor devices.
 642:Generated_Source\PSoC4/UART_DEB_UART.c ****         *
 643:Generated_Source\PSoC4/UART_DEB_UART.c ****         *  \param level: Level in the RX FIFO for RTS signal activation.
 644:Generated_Source\PSoC4/UART_DEB_UART.c ****         *   The range of valid level values is between 0 and RX FIFO depth - 1.
 645:Generated_Source\PSoC4/UART_DEB_UART.c ****         *   Setting level value to 0 disables RTS signal activation.
 646:Generated_Source\PSoC4/UART_DEB_UART.c ****         *
 647:Generated_Source\PSoC4/UART_DEB_UART.c ****         *******************************************************************************/
 648:Generated_Source\PSoC4/UART_DEB_UART.c ****         void UART_DEB_UartSetRtsFifoLevel(uint32 level)
 649:Generated_Source\PSoC4/UART_DEB_UART.c ****         {
 468              		.loc 1 649 0
 469              		.cfi_startproc
 470              		@ args = 0, pretend = 0, frame = 0
 471              		@ frame_needed = 0, uses_anonymous_args = 0
 472              		@ link register save eliminated.
 473              	.LVL23:
 650:Generated_Source\PSoC4/UART_DEB_UART.c ****             uint32 uartFlowCtrl;
 651:Generated_Source\PSoC4/UART_DEB_UART.c **** 
 652:Generated_Source\PSoC4/UART_DEB_UART.c ****             uartFlowCtrl = UART_DEB_UART_FLOW_CTRL_REG;
 653:Generated_Source\PSoC4/UART_DEB_UART.c **** 
 654:Generated_Source\PSoC4/UART_DEB_UART.c ****             uartFlowCtrl &= ((uint32) ~UART_DEB_UART_FLOW_CTRL_TRIGGER_LEVEL_MASK); /* Clear level 
 474              		.loc 1 654 0
 475 0000 0F22     		movs	r2, #15
 652:Generated_Source\PSoC4/UART_DEB_UART.c **** 
 476              		.loc 1 652 0
 477 0002 0349     		ldr	r1, .L39
 655:Generated_Source\PSoC4/UART_DEB_UART.c ****             uartFlowCtrl |= ((uint32) (UART_DEB_UART_FLOW_CTRL_TRIGGER_LEVEL_MASK & level));
 478              		.loc 1 655 0
 479 0004 1040     		ands	r0, r2
 480              	.LVL24:
 652:Generated_Source\PSoC4/UART_DEB_UART.c **** 
 481              		.loc 1 652 0
 482 0006 0B68     		ldr	r3, [r1]
 483              	.LVL25:
 656:Generated_Source\PSoC4/UART_DEB_UART.c **** 
 657:Generated_Source\PSoC4/UART_DEB_UART.c ****             UART_DEB_UART_FLOW_CTRL_REG = uartFlowCtrl;
 658:Generated_Source\PSoC4/UART_DEB_UART.c ****         }
 484              		.loc 1 658 0
 485              		@ sp needed
 654:Generated_Source\PSoC4/UART_DEB_UART.c ****             uartFlowCtrl |= ((uint32) (UART_DEB_UART_FLOW_CTRL_TRIGGER_LEVEL_MASK & level));
 486              		.loc 1 654 0
 487 0008 9343     		bics	r3, r2
 488              	.LVL26:
 655:Generated_Source\PSoC4/UART_DEB_UART.c ****             uartFlowCtrl |= ((uint32) (UART_DEB_UART_FLOW_CTRL_TRIGGER_LEVEL_MASK & level));
 489              		.loc 1 655 0
 490 000a 1843     		orrs	r0, r3
 491              	.LVL27:
 657:Generated_Source\PSoC4/UART_DEB_UART.c ****         }
 492              		.loc 1 657 0
 493 000c 0860     		str	r0, [r1]
 494              		.loc 1 658 0
 495 000e 7047     		bx	lr
 496              	.L40:
 497              		.align	2
 498              	.L39:
 499 0010 50002440 		.word	1076101200
ARM GAS  C:\Users\Xavier\AppData\Local\Temp\ccMUNkST.s 			page 22


 500              		.cfi_endproc
 501              	.LFE10:
 502              		.size	UART_DEB_UartSetRtsFifoLevel, .-UART_DEB_UartSetRtsFifoLevel
 503              		.section	.text.UART_DEB_UartPutString,"ax",%progbits
 504              		.align	1
 505              		.global	UART_DEB_UartPutString
 506              		.code	16
 507              		.thumb_func
 508              		.type	UART_DEB_UartPutString, %function
 509              	UART_DEB_UartPutString:
 510              	.LFB11:
 659:Generated_Source\PSoC4/UART_DEB_UART.c ****     #endif /* !(UART_DEB_CY_SCBIP_V0 || UART_DEB_CY_SCBIP_V1) */
 660:Generated_Source\PSoC4/UART_DEB_UART.c **** 
 661:Generated_Source\PSoC4/UART_DEB_UART.c **** #endif /* (UART_DEB_UART_RX_DIRECTION) */
 662:Generated_Source\PSoC4/UART_DEB_UART.c **** 
 663:Generated_Source\PSoC4/UART_DEB_UART.c **** 
 664:Generated_Source\PSoC4/UART_DEB_UART.c **** #if(UART_DEB_UART_TX_DIRECTION)
 665:Generated_Source\PSoC4/UART_DEB_UART.c ****     /*******************************************************************************
 666:Generated_Source\PSoC4/UART_DEB_UART.c ****     * Function Name: UART_DEB_UartPutString
 667:Generated_Source\PSoC4/UART_DEB_UART.c ****     ****************************************************************************//**
 668:Generated_Source\PSoC4/UART_DEB_UART.c ****     *
 669:Generated_Source\PSoC4/UART_DEB_UART.c ****     *  Places a NULL terminated string in the transmit buffer to be sent at the
 670:Generated_Source\PSoC4/UART_DEB_UART.c ****     *  next available bus time.
 671:Generated_Source\PSoC4/UART_DEB_UART.c ****     *  This function is blocking and waits until there is a space available to put
 672:Generated_Source\PSoC4/UART_DEB_UART.c ****     *  requested data in transmit buffer.
 673:Generated_Source\PSoC4/UART_DEB_UART.c ****     *
 674:Generated_Source\PSoC4/UART_DEB_UART.c ****     *  \param string: pointer to the null terminated string array to be placed in the
 675:Generated_Source\PSoC4/UART_DEB_UART.c ****     *   transmit buffer.
 676:Generated_Source\PSoC4/UART_DEB_UART.c ****     *
 677:Generated_Source\PSoC4/UART_DEB_UART.c ****     *******************************************************************************/
 678:Generated_Source\PSoC4/UART_DEB_UART.c ****     void UART_DEB_UartPutString(const char8 string[])
 679:Generated_Source\PSoC4/UART_DEB_UART.c ****     {
 511              		.loc 1 679 0
 512              		.cfi_startproc
 513              		@ args = 0, pretend = 0, frame = 0
 514              		@ frame_needed = 0, uses_anonymous_args = 0
 515              	.LVL28:
 516 0000 10B5     		push	{r4, lr}
 517              		.cfi_def_cfa_offset 8
 518              		.cfi_offset 4, -8
 519              		.cfi_offset 14, -4
 520 0002 0400     		movs	r4, r0
 521              	.LVL29:
 522              	.L42:
 523 0004 0134     		adds	r4, r4, #1
 524              	.LVL30:
 680:Generated_Source\PSoC4/UART_DEB_UART.c ****         uint32 bufIndex;
 681:Generated_Source\PSoC4/UART_DEB_UART.c **** 
 682:Generated_Source\PSoC4/UART_DEB_UART.c ****         bufIndex = 0u;
 683:Generated_Source\PSoC4/UART_DEB_UART.c **** 
 684:Generated_Source\PSoC4/UART_DEB_UART.c ****         /* Blocks the control flow until all data has been sent */
 685:Generated_Source\PSoC4/UART_DEB_UART.c ****         while(string[bufIndex] != ((char8) 0))
 525              		.loc 1 685 0
 526 0006 631E     		subs	r3, r4, #1
 527 0008 1878     		ldrb	r0, [r3]
 528 000a 0028     		cmp	r0, #0
 529 000c 02D0     		beq	.L44
ARM GAS  C:\Users\Xavier\AppData\Local\Temp\ccMUNkST.s 			page 23


 686:Generated_Source\PSoC4/UART_DEB_UART.c ****         {
 687:Generated_Source\PSoC4/UART_DEB_UART.c ****             UART_DEB_UartPutChar((uint32) string[bufIndex]);
 530              		.loc 1 687 0
 531 000e FFF7FEFF 		bl	UART_DEB_SpiUartWriteTxData
 532              	.LVL31:
 533 0012 F7E7     		b	.L42
 534              	.LVL32:
 535              	.L44:
 688:Generated_Source\PSoC4/UART_DEB_UART.c ****             bufIndex++;
 689:Generated_Source\PSoC4/UART_DEB_UART.c ****         }
 690:Generated_Source\PSoC4/UART_DEB_UART.c ****     }
 536              		.loc 1 690 0
 537              		@ sp needed
 538              	.LVL33:
 539 0014 10BD     		pop	{r4, pc}
 540              		.cfi_endproc
 541              	.LFE11:
 542              		.size	UART_DEB_UartPutString, .-UART_DEB_UartPutString
 543              		.section	.text.UART_DEB_UartPutCRLF,"ax",%progbits
 544              		.align	1
 545              		.global	UART_DEB_UartPutCRLF
 546              		.code	16
 547              		.thumb_func
 548              		.type	UART_DEB_UartPutCRLF, %function
 549              	UART_DEB_UartPutCRLF:
 550              	.LFB12:
 691:Generated_Source\PSoC4/UART_DEB_UART.c **** 
 692:Generated_Source\PSoC4/UART_DEB_UART.c **** 
 693:Generated_Source\PSoC4/UART_DEB_UART.c ****     /*******************************************************************************
 694:Generated_Source\PSoC4/UART_DEB_UART.c ****     * Function Name: UART_DEB_UartPutCRLF
 695:Generated_Source\PSoC4/UART_DEB_UART.c ****     ****************************************************************************//**
 696:Generated_Source\PSoC4/UART_DEB_UART.c ****     *
 697:Generated_Source\PSoC4/UART_DEB_UART.c ****     *  Places byte of data followed by a carriage return (0x0D) and line feed
 698:Generated_Source\PSoC4/UART_DEB_UART.c ****     *  (0x0A) in the transmit buffer.
 699:Generated_Source\PSoC4/UART_DEB_UART.c ****     *  This function is blocking and waits until there is a space available to put
 700:Generated_Source\PSoC4/UART_DEB_UART.c ****     *  all requested data in transmit buffer.
 701:Generated_Source\PSoC4/UART_DEB_UART.c ****     *
 702:Generated_Source\PSoC4/UART_DEB_UART.c ****     *  \param txDataByte: the data to be transmitted.
 703:Generated_Source\PSoC4/UART_DEB_UART.c ****     *
 704:Generated_Source\PSoC4/UART_DEB_UART.c ****     *******************************************************************************/
 705:Generated_Source\PSoC4/UART_DEB_UART.c ****     void UART_DEB_UartPutCRLF(uint32 txDataByte)
 706:Generated_Source\PSoC4/UART_DEB_UART.c ****     {
 551              		.loc 1 706 0
 552              		.cfi_startproc
 553              		@ args = 0, pretend = 0, frame = 0
 554              		@ frame_needed = 0, uses_anonymous_args = 0
 555              	.LVL34:
 556 0000 10B5     		push	{r4, lr}
 557              		.cfi_def_cfa_offset 8
 558              		.cfi_offset 4, -8
 559              		.cfi_offset 14, -4
 707:Generated_Source\PSoC4/UART_DEB_UART.c ****         UART_DEB_UartPutChar(txDataByte);  /* Blocks control flow until all data has been sent */
 560              		.loc 1 707 0
 561 0002 FFF7FEFF 		bl	UART_DEB_SpiUartWriteTxData
 562              	.LVL35:
 708:Generated_Source\PSoC4/UART_DEB_UART.c ****         UART_DEB_UartPutChar(0x0Du);       /* Blocks control flow until all data has been sent */
 563              		.loc 1 708 0
ARM GAS  C:\Users\Xavier\AppData\Local\Temp\ccMUNkST.s 			page 24


 564 0006 0D20     		movs	r0, #13
 565 0008 FFF7FEFF 		bl	UART_DEB_SpiUartWriteTxData
 566              	.LVL36:
 709:Generated_Source\PSoC4/UART_DEB_UART.c ****         UART_DEB_UartPutChar(0x0Au);       /* Blocks control flow until all data has been sent */
 567              		.loc 1 709 0
 568 000c 0A20     		movs	r0, #10
 569 000e FFF7FEFF 		bl	UART_DEB_SpiUartWriteTxData
 570              	.LVL37:
 710:Generated_Source\PSoC4/UART_DEB_UART.c ****     }
 571              		.loc 1 710 0
 572              		@ sp needed
 573 0012 10BD     		pop	{r4, pc}
 574              		.cfi_endproc
 575              	.LFE12:
 576              		.size	UART_DEB_UartPutCRLF, .-UART_DEB_UartPutCRLF
 577              		.section	.text.UART_DEB_UartEnableCts,"ax",%progbits
 578              		.align	1
 579              		.global	UART_DEB_UartEnableCts
 580              		.code	16
 581              		.thumb_func
 582              		.type	UART_DEB_UartEnableCts, %function
 583              	UART_DEB_UartEnableCts:
 584              	.LFB13:
 711:Generated_Source\PSoC4/UART_DEB_UART.c **** 
 712:Generated_Source\PSoC4/UART_DEB_UART.c **** 
 713:Generated_Source\PSoC4/UART_DEB_UART.c ****     #if !(UART_DEB_CY_SCBIP_V0 || UART_DEB_CY_SCBIP_V1)
 714:Generated_Source\PSoC4/UART_DEB_UART.c ****         /*******************************************************************************
 715:Generated_Source\PSoC4/UART_DEB_UART.c ****         * Function Name: UART_DEBSCB_UartEnableCts
 716:Generated_Source\PSoC4/UART_DEB_UART.c ****         ****************************************************************************//**
 717:Generated_Source\PSoC4/UART_DEB_UART.c ****         *
 718:Generated_Source\PSoC4/UART_DEB_UART.c ****         *  Enables usage of CTS input signal by the UART transmitter.
 719:Generated_Source\PSoC4/UART_DEB_UART.c ****         *  Only available for PSoC 4100 BLE / PSoC 4200 BLE / PSoC 4100M / PSoC 4200M /
 720:Generated_Source\PSoC4/UART_DEB_UART.c ****         *  PSoC 4200L / PSoC 4000S / PSoC 4100S / PSoC Analog Coprocessor devices.
 721:Generated_Source\PSoC4/UART_DEB_UART.c ****         *
 722:Generated_Source\PSoC4/UART_DEB_UART.c ****         *******************************************************************************/
 723:Generated_Source\PSoC4/UART_DEB_UART.c ****         void UART_DEB_UartEnableCts(void)
 724:Generated_Source\PSoC4/UART_DEB_UART.c ****         {
 585              		.loc 1 724 0
 586              		.cfi_startproc
 587              		@ args = 0, pretend = 0, frame = 0
 588              		@ frame_needed = 0, uses_anonymous_args = 0
 589              		@ link register save eliminated.
 725:Generated_Source\PSoC4/UART_DEB_UART.c ****             UART_DEB_UART_FLOW_CTRL_REG |= (uint32)  UART_DEB_UART_FLOW_CTRL_CTS_ENABLE;
 590              		.loc 1 725 0
 591 0000 8021     		movs	r1, #128
 592 0002 034A     		ldr	r2, .L47
 593 0004 8904     		lsls	r1, r1, #18
 594 0006 1368     		ldr	r3, [r2]
 726:Generated_Source\PSoC4/UART_DEB_UART.c ****         }
 595              		.loc 1 726 0
 596              		@ sp needed
 725:Generated_Source\PSoC4/UART_DEB_UART.c ****             UART_DEB_UART_FLOW_CTRL_REG |= (uint32)  UART_DEB_UART_FLOW_CTRL_CTS_ENABLE;
 597              		.loc 1 725 0
 598 0008 0B43     		orrs	r3, r1
 599 000a 1360     		str	r3, [r2]
 600              		.loc 1 726 0
 601 000c 7047     		bx	lr
ARM GAS  C:\Users\Xavier\AppData\Local\Temp\ccMUNkST.s 			page 25


 602              	.L48:
 603 000e C046     		.align	2
 604              	.L47:
 605 0010 50002440 		.word	1076101200
 606              		.cfi_endproc
 607              	.LFE13:
 608              		.size	UART_DEB_UartEnableCts, .-UART_DEB_UartEnableCts
 609              		.section	.text.UART_DEB_UartDisableCts,"ax",%progbits
 610              		.align	1
 611              		.global	UART_DEB_UartDisableCts
 612              		.code	16
 613              		.thumb_func
 614              		.type	UART_DEB_UartDisableCts, %function
 615              	UART_DEB_UartDisableCts:
 616              	.LFB14:
 727:Generated_Source\PSoC4/UART_DEB_UART.c **** 
 728:Generated_Source\PSoC4/UART_DEB_UART.c **** 
 729:Generated_Source\PSoC4/UART_DEB_UART.c ****         /*******************************************************************************
 730:Generated_Source\PSoC4/UART_DEB_UART.c ****         * Function Name: UART_DEB_UartDisableCts
 731:Generated_Source\PSoC4/UART_DEB_UART.c ****         ****************************************************************************//**
 732:Generated_Source\PSoC4/UART_DEB_UART.c ****         *
 733:Generated_Source\PSoC4/UART_DEB_UART.c ****         *  Disables usage of CTS input signal by the UART transmitter.
 734:Generated_Source\PSoC4/UART_DEB_UART.c ****         *  Only available for PSoC 4100 BLE / PSoC 4200 BLE / PSoC 4100M / PSoC 4200M /
 735:Generated_Source\PSoC4/UART_DEB_UART.c ****         *  PSoC 4200L / PSoC 4000S / PSoC 4100S / PSoC Analog Coprocessor devices.
 736:Generated_Source\PSoC4/UART_DEB_UART.c ****         *
 737:Generated_Source\PSoC4/UART_DEB_UART.c ****         *******************************************************************************/
 738:Generated_Source\PSoC4/UART_DEB_UART.c ****         void UART_DEB_UartDisableCts(void)
 739:Generated_Source\PSoC4/UART_DEB_UART.c ****         {
 617              		.loc 1 739 0
 618              		.cfi_startproc
 619              		@ args = 0, pretend = 0, frame = 0
 620              		@ frame_needed = 0, uses_anonymous_args = 0
 621              		@ link register save eliminated.
 740:Generated_Source\PSoC4/UART_DEB_UART.c ****             UART_DEB_UART_FLOW_CTRL_REG &= (uint32) ~UART_DEB_UART_FLOW_CTRL_CTS_ENABLE;
 622              		.loc 1 740 0
 623 0000 024A     		ldr	r2, .L50
 624 0002 034B     		ldr	r3, .L50+4
 625 0004 1168     		ldr	r1, [r2]
 741:Generated_Source\PSoC4/UART_DEB_UART.c ****         }
 626              		.loc 1 741 0
 627              		@ sp needed
 740:Generated_Source\PSoC4/UART_DEB_UART.c ****             UART_DEB_UART_FLOW_CTRL_REG &= (uint32) ~UART_DEB_UART_FLOW_CTRL_CTS_ENABLE;
 628              		.loc 1 740 0
 629 0006 0B40     		ands	r3, r1
 630 0008 1360     		str	r3, [r2]
 631              		.loc 1 741 0
 632 000a 7047     		bx	lr
 633              	.L51:
 634              		.align	2
 635              	.L50:
 636 000c 50002440 		.word	1076101200
 637 0010 FFFFFFFD 		.word	-33554433
 638              		.cfi_endproc
 639              	.LFE14:
 640              		.size	UART_DEB_UartDisableCts, .-UART_DEB_UartDisableCts
 641              		.section	.text.UART_DEB_UartSetCtsPolarity,"ax",%progbits
 642              		.align	1
ARM GAS  C:\Users\Xavier\AppData\Local\Temp\ccMUNkST.s 			page 26


 643              		.global	UART_DEB_UartSetCtsPolarity
 644              		.code	16
 645              		.thumb_func
 646              		.type	UART_DEB_UartSetCtsPolarity, %function
 647              	UART_DEB_UartSetCtsPolarity:
 648              	.LFB15:
 742:Generated_Source\PSoC4/UART_DEB_UART.c **** 
 743:Generated_Source\PSoC4/UART_DEB_UART.c **** 
 744:Generated_Source\PSoC4/UART_DEB_UART.c ****         /*******************************************************************************
 745:Generated_Source\PSoC4/UART_DEB_UART.c ****         * Function Name: UART_DEB_UartSetCtsPolarity
 746:Generated_Source\PSoC4/UART_DEB_UART.c ****         ****************************************************************************//**
 747:Generated_Source\PSoC4/UART_DEB_UART.c ****         *
 748:Generated_Source\PSoC4/UART_DEB_UART.c ****         *  Sets active polarity of CTS input signal.
 749:Generated_Source\PSoC4/UART_DEB_UART.c ****         *  Only available for PSoC 4100 BLE / PSoC 4200 BLE / PSoC 4100M / PSoC 4200M /
 750:Generated_Source\PSoC4/UART_DEB_UART.c ****         *  PSoC 4200L / PSoC 4000S / PSoC 4100S / PSoC Analog Coprocessor devices.
 751:Generated_Source\PSoC4/UART_DEB_UART.c ****         *
 752:Generated_Source\PSoC4/UART_DEB_UART.c ****         *  \param polarity: Active polarity of CTS output signal.
 753:Generated_Source\PSoC4/UART_DEB_UART.c ****         *   - UART_DEB_UART_CTS_ACTIVE_LOW  - CTS signal is active low.
 754:Generated_Source\PSoC4/UART_DEB_UART.c ****         *   - UART_DEB_UART_CTS_ACTIVE_HIGH - CTS signal is active high.
 755:Generated_Source\PSoC4/UART_DEB_UART.c ****         *
 756:Generated_Source\PSoC4/UART_DEB_UART.c ****         *******************************************************************************/
 757:Generated_Source\PSoC4/UART_DEB_UART.c ****         void UART_DEB_UartSetCtsPolarity(uint32 polarity)
 758:Generated_Source\PSoC4/UART_DEB_UART.c ****         {
 649              		.loc 1 758 0
 650              		.cfi_startproc
 651              		@ args = 0, pretend = 0, frame = 0
 652              		@ frame_needed = 0, uses_anonymous_args = 0
 653              		@ link register save eliminated.
 654              	.LVL38:
 655 0000 064B     		ldr	r3, .L56
 759:Generated_Source\PSoC4/UART_DEB_UART.c ****             if (0u != polarity)
 656              		.loc 1 759 0
 657 0002 0028     		cmp	r0, #0
 658 0004 04D0     		beq	.L53
 760:Generated_Source\PSoC4/UART_DEB_UART.c ****             {
 761:Generated_Source\PSoC4/UART_DEB_UART.c ****                 UART_DEB_UART_FLOW_CTRL_REG |= (uint32)  UART_DEB_UART_FLOW_CTRL_CTS_POLARITY;
 659              		.loc 1 761 0
 660 0006 8021     		movs	r1, #128
 661 0008 1A68     		ldr	r2, [r3]
 662 000a 4904     		lsls	r1, r1, #17
 663 000c 0A43     		orrs	r2, r1
 664 000e 02E0     		b	.L55
 665              	.L53:
 762:Generated_Source\PSoC4/UART_DEB_UART.c ****             }
 763:Generated_Source\PSoC4/UART_DEB_UART.c ****             else
 764:Generated_Source\PSoC4/UART_DEB_UART.c ****             {
 765:Generated_Source\PSoC4/UART_DEB_UART.c ****                 UART_DEB_UART_FLOW_CTRL_REG &= (uint32) ~UART_DEB_UART_FLOW_CTRL_CTS_POLARITY;
 666              		.loc 1 765 0
 667 0010 1968     		ldr	r1, [r3]
 668 0012 034A     		ldr	r2, .L56+4
 669 0014 0A40     		ands	r2, r1
 670              	.L55:
 671 0016 1A60     		str	r2, [r3]
 766:Generated_Source\PSoC4/UART_DEB_UART.c ****             }
 767:Generated_Source\PSoC4/UART_DEB_UART.c ****         }
 672              		.loc 1 767 0
 673              		@ sp needed
ARM GAS  C:\Users\Xavier\AppData\Local\Temp\ccMUNkST.s 			page 27


 674 0018 7047     		bx	lr
 675              	.L57:
 676 001a C046     		.align	2
 677              	.L56:
 678 001c 50002440 		.word	1076101200
 679 0020 FFFFFFFE 		.word	-16777217
 680              		.cfi_endproc
 681              	.LFE15:
 682              		.size	UART_DEB_UartSetCtsPolarity, .-UART_DEB_UartSetCtsPolarity
 683              		.text
 684              	.Letext0:
 685              		.file 2 "Generated_Source\\PSoC4/cytypes.h"
 686              		.file 3 "Generated_Source\\PSoC4\\UART_DEB_SPI_UART.h"
 687              		.file 4 "Generated_Source\\PSoC4\\UART_DEB_PVT.h"